(dp0
S'4873128332.jpg'
p1
(lp2
(S'diversion'
p3
S'Choose the type of diversion present in the image?'
p4
tp5
a(S'contestant'
p6
S'Which contestant is shown in the image?'
p7
tp8
asS'6852123904.jpg'
p9
(lp10
(S'nutriment'
p11
S'What type of nutriment is present in the image?'
p12
tp13
a(S'container'
p14
S'Select the container represented by the image?'
p15
tp16
asS'49533973.jpg'
p17
(lp18
(S'group'
p19
S'Choose the type of group present in the image?'
p20
tp21
a(S'burial chamber'
p22
S'Which burial chamber is shown in the image?'
p23
tp24
asS'3118425885.jpg'
p25
(lp26
(S'nutriment'
p27
S'Choose the type of nutriment present in the image?'
p28
tp29
a(S'container'
p30
S'Which container is shown in the image?'
p31
tp32
asS'444881000.jpg'
p33
(lp34
(S'performer'
p35
S'What type of performer is present in the image?'
p36
tp37
a(S'representation'
p38
S'Select the representation represented by the image?'
p39
tp40
asS'2516266928.jpg'
p41
(lp42
(S'water travel'
p43
S'Choose the type of water travel present in the image?'
p44
tp45
a(S'paraprofessional'
p46
S'Which paraprofessional is shown in the image?'
p47
tp48
asS'535313948.jpg'
p49
(lp50
(S'yard'
p51
S'What type of yard is present in the image?'
p52
tp53
a(S'linear unit'
p54
S'Select the linear unit represented by the image?'
p55
tp56
asS'5972461484.jpg'
p57
(lp58
(S'diversion'
p59
S'Choose the type of diversion present in the image?'
p60
tp61
a(S'sport'
p62
S'Which sport is shown in the image?'
p63
tp64
asS'111285749.jpg'
p65
(lp66
(S'municipality'
p67
S'What type of municipality is present in the image?'
p68
tp69
a(S'activity'
p70
S'Select the activity represented by the image?'
p71
tp72
asS'324642762.jpg'
p73
(lp74
(S'horizontal surface'
p75
S'Choose the type of horizontal surface present in the image?'
p76
tp77
a(S'building material'
p78
S'Which building material is shown in the image?'
p79
tp80
asS'3746623148.jpg'
p81
(lp82
(S'creation'
p83
S'Choose the type of creation present in the image?'
p84
tp85
a(S'decoration'
p86
S'Which decoration is shown in the image?'
p87
tp88
asS'4606525245.jpg'
p89
(lp90
(S'dead person'
p91
S'Choose the type of dead person present in the image?'
p92
tp93
asS'4720419009.jpg'
p94
(lp95
(S'sport'
p96
S'What type of sport is present in the image?'
p97
tp98
a(S'conveyance'
p99
S'Select the conveyance represented by the image?'
p100
tp101
asS'273248777.jpg'
p102
(lp103
(S'contestant'
p104
S'What type of contestant is present in the image?'
p105
tp106
a(S'diversion'
p107
S'Select the diversion represented by the image?'
p108
tp109
asS'2444664718.jpg'
p110
(lp111
(S'instrumentality'
p112
S'Choose the type of instrumentality present in the image?'
p113
tp114
a(S'commercial enterprise'
p115
S'Which commercial enterprise is shown in the image?'
p116
tp117
asS'2093272744.jpg'
p118
(lp119
(S'group'
p120
S'Choose the type of group present in the image?'
p121
tp122
asS'4864177176.jpg'
p123
(lp124
(S'causal agent'
p125
S'What type of causal agent is present in the image?'
p126
tp127
a(S'group'
p128
S'Select the group represented by the image?'
p129
tp130
asS'2931759630.jpg'
p131
(lp132
(S'tower'
p133
S'Choose the type of tower present in the image?'
p134
tp135
a(S'physical phenomenon'
p136
S'Which physical phenomenon is shown in the image?'
p137
tp138
asS'2725508159.jpg'
p139
(lp140
(S'diversion'
p141
S'Choose the type of diversion present in the image?'
p142
tp143
a(S'canoe'
p144
S'Which canoe is shown in the image?'
p145
tp146
asS'24761526.jpg'
p147
(lp148
(S'gathering'
p149
S'Choose the type of gathering present in the image?'
p150
tp151
a(S'causal agent'
p152
S'Which causal agent is shown in the image?'
p153
tp154
asS'81641.jpg'
p155
(lp156
(S'artifact'
p157
S'What type of artifact is present in the image?'
p158
tp159
a(S'tower'
p160
S'Select the tower represented by the image?'
p161
tp162
asS'86341446.jpg'
p163
(lp164
(S'time period'
p165
S'Choose the type of time period present in the image?'
p166
tp167
asS'3002051747.jpg'
p168
(lp169
(S'locomotion'
p170
S'Choose the type of locomotion present in the image?'
p171
tp172
a(S'disfavor'
p173
S'Which disfavor is shown in the image?'
p174
tp175
asS'6773067336.jpg'
p176
(lp177
(S'area'
p178
S'What type of area is present in the image?'
p179
tp180
a(S'room'
p181
S'Select the room represented by the image?'
p182
tp183
asS'75953797.jpg'
p184
(lp185
(S'instrumentality'
p186
S'What type of instrumentality is present in the image?'
p187
tp188
a(S'conveyance'
p189
S'Select the conveyance represented by the image?'
p190
tp191
asS'3928395936.jpg'
p192
(lp193
(S'diversion'
p194
S'What type of diversion is present in the image?'
p195
tp196
a(S'court game'
p197
S'Select the court game represented by the image?'
p198
tp199
asS'3262801036.jpg'
p200
(lp201
(S'diversion'
p202
S'Choose the type of diversion present in the image?'
p203
tp204
a(S'precipitation'
p205
S'Which precipitation is shown in the image?'
p206
tp207
asS'374124237.jpg'
p208
(lp209
(S'beverage'
p210
S'What type of beverage is present in the image?'
p211
tp212
a(S'spot'
p213
S'Select the spot represented by the image?'
p214
tp215
asS'3340639621.jpg'
p216
(lp217
(S'group'
p218
S'What type of group is present in the image?'
p219
tp220
asS'4511684396.jpg'
p221
(lp222
(S'group'
p223
S'Choose the type of group present in the image?'
p224
tp225
asS'1515025681.jpg'
p226
(lp227
(S'adult'
p228
S'What type of adult is present in the image?'
p229
tp230
a(S'show'
p231
S'Select the show represented by the image?'
p232
tp233
asS'221510405.jpg'
p234
(lp235
(S'instrumentality'
p236
S'Choose the type of instrumentality present in the image?'
p237
tp238
a(S'military service'
p239
S'Which military service is shown in the image?'
p240
tp241
asS'3234159912.jpg'
p242
(lp243
(S'artwork'
p244
S'What type of artwork is present in the image?'
p245
tp246
a(S'collection'
p247
S'Select the collection represented by the image?'
p248
tp249
asS'4893597664.jpg'
p250
(lp251
(S'conveyance'
p252
S'Choose the type of conveyance present in the image?'
p253
tp254
a(S'collection'
p255
S'Which collection is shown in the image?'
p256
tp257
asS'4089350664.jpg'
p258
(lp259
(S'force'
p260
S'Choose the type of force present in the image?'
p261
tp262
a(S'group'
p263
S'Which group is shown in the image?'
p264
tp265
asS'4764430842.jpg'
p266
(lp267
(S'causal agent'
p268
S'What type of causal agent is present in the image?'
p269
tp270
asS'4194543575.jpg'
p271
(lp272
(S'point of view'
p273
S'Choose the type of point of view present in the image?'
p274
tp275
asS'2863180332.jpg'
p276
(lp277
(S'paving'
p278
S'What type of paving is present in the image?'
p279
tp280
a(S'way'
p281
S'Select the way represented by the image?'
p282
tp283
asS'7716811396.jpg'
p284
(lp285
(S'diversion'
p286
S'Choose the type of diversion present in the image?'
p287
tp288
a(S'contestant'
p289
S'Which contestant is shown in the image?'
p290
tp291
asS'4853382595.jpg'
p292
(lp293
(S'body of water'
p294
S'What type of body of water is present in the image?'
p295
tp296
a(S'body of water'
p297
S'Select the body of water represented by the image?'
p298
tp299
asS'5678896414.jpg'
p300
(lp301
(S'causal agent'
p302
S'Choose the type of causal agent present in the image?'
p303
tp304
a(S'bowed stringed instrument'
p305
S'Which bowed stringed instrument is shown in the image?'
p306
tp307
asS'7154224949.jpg'
p308
(lp309
(S'consumer goods'
p310
S'What type of consumer goods is present in the image?'
p311
tp312
a(S'contestant'
p313
S'Select the contestant represented by the image?'
p314
tp315
asS'3110818388.jpg'
p316
(lp317
(S'limb'
p318
S'Choose the type of limb present in the image?'
p319
tp320
a(S'extremity'
p321
S'Which extremity is shown in the image?'
p322
tp323
asS'18378347.jpg'
p324
(lp325
(S'causal agent'
p326
S'What type of causal agent is present in the image?'
p327
tp328
a(S'group'
p329
S'Select the group represented by the image?'
p330
tp331
asS'4805058459.jpg'
p332
(lp333
(S'group'
p334
S'What type of group is present in the image?'
p335
tp336
a(S'unit'
p337
S'Select the unit represented by the image?'
p338
tp339
asS'4153903524.jpg'
p340
(lp341
(S'conveyance'
p342
S'Choose the type of conveyance present in the image?'
p343
tp344
a(S'warship'
p345
S'Which warship is shown in the image?'
p346
tp347
asS'1389156021.jpg'
p348
(lp349
(S'martial art'
p350
S'What type of martial art is present in the image?'
p351
tp352
a(S'diversion'
p353
S'Select the diversion represented by the image?'
p354
tp355
asS'2021613437.jpg'
p356
(lp357
(S'diversion'
p358
S'Choose the type of diversion present in the image?'
p359
tp360
a(S'other'
p361
S'Which other is shown in the image?'
p362
tp363
asS'2521983429.jpg'
p364
(lp365
(S'natural elevation'
p366
S'What type of natural elevation is present in the image?'
p367
tp368
a(S'body of water'
p369
S'Select the body of water represented by the image?'
p370
tp371
asS'214597976.jpg'
p372
(lp373
(S'gathering'
p374
S'Choose the type of gathering present in the image?'
p375
tp376
a(S'dirtiness'
p377
S'Which dirtiness is shown in the image?'
p378
tp379
asS'128479785.jpg'
p380
(lp381
(S'conveyance'
p382
S'What type of conveyance is present in the image?'
p383
tp384
asS'3436221798.jpg'
p385
(lp386
(S'contestant'
p387
S'Choose the type of contestant present in the image?'
p388
tp389
a(S'contestant'
p390
S'Which contestant is shown in the image?'
p391
tp392
asS'5687357997.jpg'
p393
(lp394
(S'conveyance'
p395
S'Choose the type of conveyance present in the image?'
p396
tp397
a(S'wheeled vehicle'
p398
S'Which wheeled vehicle is shown in the image?'
p399
tp400
asS'48909006.jpg'
p401
(lp402
(S'performer'
p403
S'What type of performer is present in the image?'
p404
tp405
a(S'group'
p406
S'Select the group represented by the image?'
p407
tp408
asS'4524224040.jpg'
p409
(lp410
(S'conveyance'
p411
S'Choose the type of conveyance present in the image?'
p412
tp413
a(S'device'
p414
S'Which device is shown in the image?'
p415
tp416
asS'3517466790.jpg'
p417
(lp418
(S'newlywed'
p419
S'Choose the type of newlywed present in the image?'
p420
tp421
a(S'adult'
p422
S'Which adult is shown in the image?'
p423
tp424
asS'245895500.jpg'
p425
(lp426
(S'life'
p427
S'Choose the type of life present in the image?'
p428
tp429
a(S'land'
p430
S'Which land is shown in the image?'
p431
tp432
asS'2983837415.jpg'
p433
(lp434
(S'group'
p435
S'What type of group is present in the image?'
p436
tp437
a(S'causal agent'
p438
S'Select the causal agent represented by the image?'
p439
tp440
asS'3969219773.jpg'
p441
(lp442
(S'gathering'
p443
S'Choose the type of gathering present in the image?'
p444
tp445
a(S'group'
p446
S'Which group is shown in the image?'
p447
tp448
asS'118668756.jpg'
p449
(lp450
(S'dramatic composition'
p451
S'What type of dramatic composition is present in the image?'
p452
tp453
a(S'diversion'
p454
S'Select the diversion represented by the image?'
p455
tp456
asS'4421399995.jpg'
p457
(lp458
(S'container'
p459
S'Choose the type of container present in the image?'
p460
tp461
a(S'angiosperm'
p462
S'Which angiosperm is shown in the image?'
p463
tp464
asS'7378528824.jpg'
p465
(lp466
(S'diversion'
p467
S'Choose the type of diversion present in the image?'
p468
tp469
a(S'track and field'
p470
S'Which track and field is shown in the image?'
p471
tp472
asS'4733474874.jpg'
p473
(lp474
(S'conveyance'
p475
S'What type of conveyance is present in the image?'
p476
tp477
asS'63791851.jpg'
p478
(lp479
(S'front'
p480
S'Choose the type of front present in the image?'
p481
tp482
a(S'dwelling'
p483
S'Which dwelling is shown in the image?'
p484
tp485
asS'4329179652.jpg'
p486
(lp487
(S'juvenile'
p488
S'What type of juvenile is present in the image?'
p489
tp490
a(S'juvenile'
p491
S'Select the juvenile represented by the image?'
p492
tp493
asS'1536597926.jpg'
p494
(lp495
(S'natural elevation'
p496
S'Choose the type of natural elevation present in the image?'
p497
tp498
a(S'climb'
p499
S'Which climb is shown in the image?'
p500
tp501
asS'461784003.jpg'
p502
(lp503
(S'life'
p504
S'Choose the type of life present in the image?'
p505
tp506
a(S'woody plant'
p507
S'Which woody plant is shown in the image?'
p508
tp509
asS'5806326544.jpg'
p510
(lp511
(S'area'
p512
S'What type of area is present in the image?'
p513
tp514
a(S'diversion'
p515
S'Select the diversion represented by the image?'
p516
tp517
asS'7272406870.jpg'
p518
(lp519
(S'diversion'
p520
S'Choose the type of diversion present in the image?'
p521
tp522
a(S'gramineous plant'
p523
S'Which gramineous plant is shown in the image?'
p524
tp525
asS'3674521435.jpg'
p526
(lp527
(S'outline'
p528
S'Choose the type of outline present in the image?'
p529
tp530
a(S'sport'
p531
S'Which sport is shown in the image?'
p532
tp533
asS'1297871927.jpg'
p534
(lp535
(S'diversion'
p536
S'Choose the type of diversion present in the image?'
p537
tp538
asS'2572667907.jpg'
p539
(lp540
(S'nutriment'
p541
S'Choose the type of nutriment present in the image?'
p542
tp543
a(S'dinner'
p544
S'Which dinner is shown in the image?'
p545
tp546
asS'4702734830.jpg'
p547
(lp548
(S'consumer goods'
p549
S'What type of consumer goods is present in the image?'
p550
tp551
a(S'attire'
p552
S'Select the attire represented by the image?'
p553
tp554
asS'3024001901.jpg'
p555
(lp556
(S'track and field'
p557
S'What type of track and field is present in the image?'
p558
tp559
a(S'conveyance'
p560
S'Select the conveyance represented by the image?'
p561
tp562
asS'895359811.jpg'
p563
(lp564
(S'photograph'
p565
S'What type of photograph is present in the image?'
p566
tp567
a(S'leisure'
p568
S'Select the leisure represented by the image?'
p569
tp570
asS'3093744301.jpg'
p571
(lp572
(S'causal agent'
p573
S'Choose the type of causal agent present in the image?'
p574
tp575
a(S'group'
p576
S'Which group is shown in the image?'
p577
tp578
asS'2408570692.jpg'
p579
(lp580
(S'instrumentality'
p581
S'What type of instrumentality is present in the image?'
p582
tp583
asS'2271755053.jpg'
p584
(lp585
(S'court game'
p586
S'What type of court game is present in the image?'
p587
tp588
a(S'diversion'
p589
S'Select the diversion represented by the image?'
p590
tp591
asS'517054016.jpg'
p592
(lp593
(S'body covering'
p594
S'Choose the type of body covering present in the image?'
p595
tp596
a(S'hair'
p597
S'Which hair is shown in the image?'
p598
tp599
asS'6703928187.jpg'
p600
(lp601
(S'attire'
p602
S'Choose the type of attire present in the image?'
p603
tp604
asS'7999356691.jpg'
p605
(lp606
(S'diversion'
p607
S'What type of diversion is present in the image?'
p608
tp609
a(S'sport'
p610
S'Select the sport represented by the image?'
p611
tp612
asS'2573140722.jpg'
p613
(lp614
(S'causal agent'
p615
S'What type of causal agent is present in the image?'
p616
tp617
a(S'group'
p618
S'Select the group represented by the image?'
p619
tp620
asS'4567736674.jpg'
p621
(lp622
(S'position'
p623
S'What type of position is present in the image?'
p624
tp625
a(S'tower'
p626
S'Select the tower represented by the image?'
p627
tp628
asS'3540768808.jpg'
p629
(lp630
(S'diversion'
p631
S'Choose the type of diversion present in the image?'
p632
tp633
a(S'activity'
p634
S'Which activity is shown in the image?'
p635
tp636
asS'5222104909.jpg'
p637
(lp638
(S'activity'
p639
S'What type of activity is present in the image?'
p640
tp641
a(S'dramatic composition'
p642
S'Select the dramatic composition represented by the image?'
p643
tp644
asS'3235746553.jpg'
p645
(lp646
(S'pointer'
p647
S'Choose the type of pointer present in the image?'
p648
tp649
a(S'canine'
p650
S'Which canine is shown in the image?'
p651
tp652
asS'451326127.jpg'
p653
(lp654
(S'life'
p655
S'What type of life is present in the image?'
p656
tp657
a(S'disfavor'
p658
S'Select the disfavor represented by the image?'
p659
tp660
asS'4047727514.jpg'
p661
(lp662
(S'building'
p663
S'Choose the type of building present in the image?'
p664
tp665
a(S'nutriment'
p666
S'Which nutriment is shown in the image?'
p667
tp668
asS'6981006477.jpg'
p669
(lp670
(S'diversion'
p671
S'What type of diversion is present in the image?'
p672
tp673
a(S'waterway'
p674
S'Select the waterway represented by the image?'
p675
tp676
asS'2664027527.jpg'
p677
(lp678
(S'diversion'
p679
S'Choose the type of diversion present in the image?'
p680
tp681
a(S'activity'
p682
S'Which activity is shown in the image?'
p683
tp684
asS'2537583012.jpg'
p685
(lp686
(S'contestant'
p687
S'What type of contestant is present in the image?'
p688
tp689
a(S'diversion'
p690
S'Select the diversion represented by the image?'
p691
tp692
asS'7517455666.jpg'
p693
(lp694
(S'performer'
p695
S'What type of performer is present in the image?'
p696
tp697
a(S'musician'
p698
S'Select the musician represented by the image?'
p699
tp700
asS'2230503574.jpg'
p701
(lp702
(S'external body part'
p703
S'Choose the type of external body part present in the image?'
p704
tp705
asS'4638839630.jpg'
p706
(lp707
(S'representation'
p708
S'What type of representation is present in the image?'
p709
tp710
a(S'causal agent'
p711
S'Select the causal agent represented by the image?'
p712
tp713
asS'4018050099.jpg'
p714
(lp715
(S'way'
p716
S'Choose the type of way present in the image?'
p717
tp718
a(S'thoroughfare'
p719
S'Which thoroughfare is shown in the image?'
p720
tp721
asS'7986651427.jpg'
p722
(lp723
(S'gathering'
p724
S'What type of gathering is present in the image?'
p725
tp726
a(S'diversion'
p727
S'Select the diversion represented by the image?'
p728
tp729
asS'2932519416.jpg'
p730
(lp731
(S'wheeled vehicle'
p732
S'What type of wheeled vehicle is present in the image?'
p733
tp734
a(S'deceive'
p735
S'Select the deceive represented by the image?'
p736
tp737
asS'4082494486.jpg'
p738
(lp739
(S'adult'
p740
S'What type of adult is present in the image?'
p741
tp742
a(S'causal agent'
p743
S'Select the causal agent represented by the image?'
p744
tp745
asS'2856923934.jpg'
p746
(lp747
(S'diversion'
p748
S'What type of diversion is present in the image?'
p749
tp750
a(S'vessel'
p751
S'Select the vessel represented by the image?'
p752
tp753
asS'4528578001.jpg'
p754
(lp755
(S'adult'
p756
S'What type of adult is present in the image?'
p757
tp758
a(S'ceremony'
p759
S'Select the ceremony represented by the image?'
p760
tp761
asS'4601900180.jpg'
p762
(lp763
(S'diversion'
p764
S'What type of diversion is present in the image?'
p765
tp766
asS'4616068657.jpg'
p767
(lp768
(S'causal agent'
p769
S'Choose the type of causal agent present in the image?'
p770
tp771
a(S'actinic radiation'
p772
S'Which actinic radiation is shown in the image?'
p773
tp774
asS'5169120032.jpg'
p775
(lp776
sS'5610848512.jpg'
p777
(lp778
(S'diversion'
p779
S'Choose the type of diversion present in the image?'
p780
tp781
a(S'contestant'
p782
S'Which contestant is shown in the image?'
p783
tp784
asS'3030962048.jpg'
p785
(lp786
(S'causal agent'
p787
S'What type of causal agent is present in the image?'
p788
tp789
a(S'group'
p790
S'Select the group represented by the image?'
p791
tp792
asS'236095034.jpg'
p793
(lp794
(S'diversion'
p795
S'What type of diversion is present in the image?'
p796
tp797
a(S'rise'
p798
S'Select the rise represented by the image?'
p799
tp800
asS'4626556918.jpg'
p801
(lp802
(S'diversion'
p803
S'Choose the type of diversion present in the image?'
p804
tp805
a(S'play'
p806
S'Which play is shown in the image?'
p807
tp808
asS'4671890472.jpg'
p809
(lp810
(S'consumer goods'
p811
S'Choose the type of consumer goods present in the image?'
p812
tp813
a(S'visual property'
p814
S'Which visual property is shown in the image?'
p815
tp816
asS'3317907694.jpg'
p817
(lp818
(S'keyboard instrument'
p819
S'What type of keyboard instrument is present in the image?'
p820
tp821
a(S'performer'
p822
S'Select the performer represented by the image?'
p823
tp824
asS'2971431335.jpg'
p825
(lp826
(S'diversion'
p827
S'Choose the type of diversion present in the image?'
p828
tp829
a(S'wheeled vehicle'
p830
S'Which wheeled vehicle is shown in the image?'
p831
tp832
asS'2429284131.jpg'
p833
(lp834
(S'consumer goods'
p835
S'Choose the type of consumer goods present in the image?'
p836
tp837
a(S'creation'
p838
S'Which creation is shown in the image?'
p839
tp840
asS'4587858056.jpg'
p841
(lp842
(S'causal agent'
p843
S'Choose the type of causal agent present in the image?'
p844
tp845
a(S'adult'
p846
S'Which adult is shown in the image?'
p847
tp848
asS'4723845405.jpg'
p849
(lp850
(S'causal agent'
p851
S'What type of causal agent is present in the image?'
p852
tp853
a(S'group'
p854
S'Select the group represented by the image?'
p855
tp856
asS'3168306969.jpg'
p857
(lp858
(S'dramatic composition'
p859
S'Choose the type of dramatic composition present in the image?'
p860
tp861
asS'3492734013.jpg'
p862
(lp863
(S'position'
p864
S'Choose the type of position present in the image?'
p865
tp866
a(S'group'
p867
S'Which group is shown in the image?'
p868
tp869
asS'3590653633.jpg'
p870
(lp871
(S'occupational group'
p872
S'Choose the type of occupational group present in the image?'
p873
tp874
a(S'causal agent'
p875
S'Which causal agent is shown in the image?'
p876
tp877
asS'2894008505.jpg'
p878
(lp879
(S'way'
p880
S'What type of way is present in the image?'
p881
tp882
a(S'bridge'
p883
S'Select the bridge represented by the image?'
p884
tp885
asS'4660946919.jpg'
p886
(lp887
(S'causal agent'
p888
S'Choose the type of causal agent present in the image?'
p889
tp890
a(S'percussion instrument'
p891
S'Which percussion instrument is shown in the image?'
p892
tp893
asS'4870291079.jpg'
p894
(lp895
(S'container'
p896
S'Choose the type of container present in the image?'
p897
tp898
asS'1460500597.jpg'
p899
(lp900
(S'enterprise'
p901
S'What type of enterprise is present in the image?'
p902
tp903
a(S'nutriment'
p904
S'Select the nutriment represented by the image?'
p905
tp906
asS'2547291721.jpg'
p907
(lp908
(S'room'
p909
S'Choose the type of room present in the image?'
p910
tp911
asS'45427454.jpg'
p912
(lp913
(S'causal agent'
p914
S'What type of causal agent is present in the image?'
p915
tp916
a(S'hypothesis'
p917
S'Select the hypothesis represented by the image?'
p918
tp919
asS'6237869128.jpg'
p920
(lp921
(S'causal agent'
p922
S'Choose the type of causal agent present in the image?'
p923
tp924
a(S'limb'
p925
S'Which limb is shown in the image?'
p926
tp927
asS'300026912.jpg'
p928
(lp929
(S'causal agent'
p930
S'What type of causal agent is present in the image?'
p931
tp932
a(S'group'
p933
S'Select the group represented by the image?'
p934
tp935
asS'3474648788.jpg'
p936
(lp937
(S'creation'
p938
S'What type of creation is present in the image?'
p939
tp940
a(S'device'
p941
S'Select the device represented by the image?'
p942
tp943
asS'2050067751.jpg'
p944
(lp945
(S'woody plant'
p946
S'Choose the type of woody plant present in the image?'
p947
tp948
a(S'bird family'
p949
S'Which bird family is shown in the image?'
p950
tp951
asS'489723654.jpg'
p952
(lp953
(S'wheeled vehicle'
p954
S'Choose the type of wheeled vehicle present in the image?'
p955
tp956
asS'4644341405.jpg'
p957
(lp958
(S'sport'
p959
S'Choose the type of sport present in the image?'
p960
tp961
a(S'group'
p962
S'Which group is shown in the image?'
p963
tp964
asS'2811917934.jpg'
p965
(lp966
(S'diversion'
p967
S'Choose the type of diversion present in the image?'
p968
tp969
a(S'show'
p970
S'Which show is shown in the image?'
p971
tp972
asS'57422853.jpg'
p973
(lp974
(S'natural elevation'
p975
S'What type of natural elevation is present in the image?'
p976
tp977
a(S'natural elevation'
p978
S'Select the natural elevation represented by the image?'
p979
tp980
asS'2736508369.jpg'
p981
(lp982
(S'diversion'
p983
S'Choose the type of diversion present in the image?'
p984
tp985
a(S'ball game'
p986
S'Which ball game is shown in the image?'
p987
tp988
asS'870367466.jpg'
p989
(lp990
(S'group'
p991
S'What type of group is present in the image?'
p992
tp993
asS'3475751336.jpg'
p994
(lp995
(S'dirtiness'
p996
S'What type of dirtiness is present in the image?'
p997
tp998
a(S'angiosperm'
p999
S'Select the angiosperm represented by the image?'
p1000
tp1001
asS'25772368.jpg'
p1002
(lp1003
(S'building'
p1004
S'Choose the type of building present in the image?'
p1005
tp1006
a(S'container'
p1007
S'Which container is shown in the image?'
p1008
tp1009
asS'3763959012.jpg'
p1010
(lp1011
(S'traveler'
p1012
S'Choose the type of traveler present in the image?'
p1013
tp1014
asS'2796544901.jpg'
p1015
(lp1016
(S'leisure'
p1017
S'What type of leisure is present in the image?'
p1018
tp1019
a(S'meal'
p1020
S'Select the meal represented by the image?'
p1021
tp1022
asS'4694697799.jpg'
p1023
(lp1024
(S'diversion'
p1025
S'Choose the type of diversion present in the image?'
p1026
tp1027
asS'4696331217.jpg'
p1028
(lp1029
(S'municipality'
p1030
S'What type of municipality is present in the image?'
p1031
tp1032
a(S'municipality'
p1033
S'Select the municipality represented by the image?'
p1034
tp1035
asS'3722572342.jpg'
p1036
(lp1037
(S'conveyance'
p1038
S'Choose the type of conveyance present in the image?'
p1039
tp1040
a(S'craft'
p1041
S'Which craft is shown in the image?'
p1042
tp1043
asS'840202638.jpg'
p1044
(lp1045
(S'way'
p1046
S'Choose the type of way present in the image?'
p1047
tp1048
a(S'horizontal surface'
p1049
S'Which horizontal surface is shown in the image?'
p1050
tp1051
asS'116569042.jpg'
p1052
(lp1053
(S'conveyance'
p1054
S'Choose the type of conveyance present in the image?'
p1055
tp1056
a(S'motor vehicle'
p1057
S'Which motor vehicle is shown in the image?'
p1058
tp1059
asS'221331362.jpg'
p1060
(lp1061
(S'group'
p1062
S'Choose the type of group present in the image?'
p1063
tp1064
a(S'gathering'
p1065
S'Which gathering is shown in the image?'
p1066
tp1067
asS'2940831473.jpg'
p1068
(lp1069
(S'contestant'
p1070
S'Choose the type of contestant present in the image?'
p1071
tp1072
a(S'diversion'
p1073
S'Which diversion is shown in the image?'
p1074
tp1075
asS'4637704411.jpg'
p1076
(lp1077
sS'3001612175.jpg'
p1078
(lp1079
(S'field'
p1080
S'What type of field is present in the image?'
p1081
tp1082
a(S'paving'
p1083
S'Select the paving represented by the image?'
p1084
tp1085
asS'3477681171.jpg'
p1086
(lp1087
(S'diversion'
p1088
S'What type of diversion is present in the image?'
p1089
tp1090
a(S'skating'
p1091
S'Select the skating represented by the image?'
p1092
tp1093
asS'4029583519.jpg'
p1094
(lp1095
(S'group'
p1096
S'Choose the type of group present in the image?'
p1097
tp1098
a(S'activity'
p1099
S'Which activity is shown in the image?'
p1100
tp1101
asS'3861381128.jpg'
p1102
(lp1103
(S'group'
p1104
S'What type of group is present in the image?'
p1105
tp1106
a(S'gathering'
p1107
S'Select the gathering represented by the image?'
p1108
tp1109
asS'6476878653.jpg'
p1110
(lp1111
(S'diversion'
p1112
S'What type of diversion is present in the image?'
p1113
tp1114
a(S'martial art'
p1115
S'Select the martial art represented by the image?'
p1116
tp1117
asS'6064872574.jpg'
p1118
(lp1119
(S'creation'
p1120
S'Choose the type of creation present in the image?'
p1121
tp1122
a(S'graphic art'
p1123
S'Which graphic art is shown in the image?'
p1124
tp1125
asS'3357194782.jpg'
p1126
(lp1127
(S'conveyance'
p1128
S'What type of conveyance is present in the image?'
p1129
tp1130
a(S'public transport'
p1131
S'Select the public transport represented by the image?'
p1132
tp1133
asS'2537818472.jpg'
p1134
(lp1135
(S'production'
p1136
S'Choose the type of production present in the image?'
p1137
tp1138
asS'2519183562.jpg'
p1139
(lp1140
(S'consumer goods'
p1141
S'What type of consumer goods is present in the image?'
p1142
tp1143
a(S'attire'
p1144
S'Select the attire represented by the image?'
p1145
tp1146
asS'5068219705.jpg'
p1147
(lp1148
(S'wheeled vehicle'
p1149
S'Choose the type of wheeled vehicle present in the image?'
p1150
tp1151
asS'3111502208.jpg'
p1152
(lp1153
(S'diversion'
p1154
S'Choose the type of diversion present in the image?'
p1155
tp1156
a(S'contestant'
p1157
S'Which contestant is shown in the image?'
p1158
tp1159
asS'3427540832.jpg'
p1160
(lp1161
(S'causal agent'
p1162
S'What type of causal agent is present in the image?'
p1163
tp1164
a(S'group'
p1165
S'Select the group represented by the image?'
p1166
tp1167
asS'4814335297.jpg'
p1168
(lp1169
(S'meal'
p1170
S'Choose the type of meal present in the image?'
p1171
tp1172
asS'6586265523.jpg'
p1173
(lp1174
(S'diversion'
p1175
S'What type of diversion is present in the image?'
p1176
tp1177
a(S'lineman'
p1178
S'Select the lineman represented by the image?'
p1179
tp1180
asS'3637013.jpg'
p1181
(lp1182
(S'channel'
p1183
S'What type of channel is present in the image?'
p1184
tp1185
a(S'body of water'
p1186
S'Select the body of water represented by the image?'
p1187
tp1188
asS'4716816896.jpg'
p1189
(lp1190
(S'activity'
p1191
S'Choose the type of activity present in the image?'
p1192
tp1193
asS'3328428819.jpg'
p1194
(lp1195
(S'leisure'
p1196
S'What type of leisure is present in the image?'
p1197
tp1198
asS'2474480672.jpg'
p1199
(lp1200
(S'diversion'
p1201
S'Choose the type of diversion present in the image?'
p1202
tp1203
a(S'contestant'
p1204
S'Which contestant is shown in the image?'
p1205
tp1206
asS'247617035.jpg'
p1207
(lp1208
sS'124106477.jpg'
p1209
(lp1210
(S'track and field'
p1211
S'What type of track and field is present in the image?'
p1212
tp1213
a(S'garment'
p1214
S'Select the garment represented by the image?'
p1215
tp1216
asS'3286193613.jpg'
p1217
(lp1218
(S'mouth'
p1219
S'What type of mouth is present in the image?'
p1220
tp1221
a(S'chordate'
p1222
S'Select the chordate represented by the image?'
p1223
tp1224
asS'3384314832.jpg'
p1225
(lp1226
(S'canine'
p1227
S'What type of canine is present in the image?'
p1228
tp1229
a(S'chordate'
p1230
S'Select the chordate represented by the image?'
p1231
tp1232
asS'4401472290.jpg'
p1233
(lp1234
(S'commercial enterprise'
p1235
S'What type of commercial enterprise is present in the image?'
p1236
tp1237
asS'2536950059.jpg'
p1238
(lp1239
(S'instrumentality'
p1240
S'Choose the type of instrumentality present in the image?'
p1241
tp1242
a(S'conveyance'
p1243
S'Which conveyance is shown in the image?'
p1244
tp1245
asS'2065595152.jpg'
p1246
(lp1247
(S'sport'
p1248
S'Choose the type of sport present in the image?'
p1249
tp1250
a(S'unit'
p1251
S'Which unit is shown in the image?'
p1252
tp1253
asS'2460823604.jpg'
p1254
(lp1255
(S'lineman'
p1256
S'What type of lineman is present in the image?'
p1257
tp1258
a(S'diversion'
p1259
S'Select the diversion represented by the image?'
p1260
tp1261
asS'137430875.jpg'
p1262
(lp1263
(S'objection'
p1264
S'Choose the type of objection present in the image?'
p1265
tp1266
a(S'group'
p1267
S'Which group is shown in the image?'
p1268
tp1269
asS'181989658.jpg'
p1270
(lp1271
(S'collection'
p1272
S'Choose the type of collection present in the image?'
p1273
tp1274
a(S'residential district'
p1275
S'Which residential district is shown in the image?'
p1276
tp1277
asS'1479124077.jpg'
p1278
(lp1279
(S'track and field'
p1280
S'What type of track and field is present in the image?'
p1281
tp1282
a(S'yard'
p1283
S'Select the yard represented by the image?'
p1284
tp1285
asS'6635119569.jpg'
p1286
(lp1287
(S'motor'
p1288
S'What type of motor is present in the image?'
p1289
tp1290
a(S'device'
p1291
S'Select the device represented by the image?'
p1292
tp1293
asS'4427803613.jpg'
p1294
(lp1295
(S'instrumentality'
p1296
S'Choose the type of instrumentality present in the image?'
p1297
tp1298
a(S'commercial enterprise'
p1299
S'Which commercial enterprise is shown in the image?'
p1300
tp1301
asS'3046949818.jpg'
p1302
(lp1303
(S'diversion'
p1304
S'Choose the type of diversion present in the image?'
p1305
tp1306
asS'2667783499.jpg'
p1307
(lp1308
(S'leisure'
p1309
S'Choose the type of leisure present in the image?'
p1310
tp1311
a(S'building'
p1312
S'Which building is shown in the image?'
p1313
tp1314
asS'3009644534.jpg'
p1315
(lp1316
(S'canine'
p1317
S'What type of canine is present in the image?'
p1318
tp1319
a(S'facial hair'
p1320
S'Select the facial hair represented by the image?'
p1321
tp1322
asS'4563177695.jpg'
p1323
(lp1324
(S'contestant'
p1325
S'Choose the type of contestant present in the image?'
p1326
tp1327
a(S'collection'
p1328
S'Which collection is shown in the image?'
p1329
tp1330
asS'244829722.jpg'
p1331
(lp1332
(S'public transport'
p1333
S'What type of public transport is present in the image?'
p1334
tp1335
a(S'instrumentality'
p1336
S'Select the instrumentality represented by the image?'
p1337
tp1338
asS'2088999297.jpg'
p1339
(lp1340
(S'track and field'
p1341
S'Choose the type of track and field present in the image?'
p1342
tp1343
asS'4381641700.jpg'
p1344
(lp1345
(S'diversion'
p1346
S'Choose the type of diversion present in the image?'
p1347
tp1348
a(S'football play'
p1349
S'Which football play is shown in the image?'
p1350
tp1351
asS'4761374939.jpg'
p1352
(lp1353
(S'instrumentality'
p1354
S'What type of instrumentality is present in the image?'
p1355
tp1356
a(S'public transport'
p1357
S'Select the public transport represented by the image?'
p1358
tp1359
asS'2701635619.jpg'
p1360
(lp1361
(S'contestant'
p1362
S'Choose the type of contestant present in the image?'
p1363
tp1364
asS'49482602.jpg'
p1365
(lp1366
(S'facility'
p1367
S'What type of facility is present in the image?'
p1368
tp1369
asS'462080147.jpg'
p1370
(lp1371
(S'attire'
p1372
S'What type of attire is present in the image?'
p1373
tp1374
asS'541063419.jpg'
p1375
(lp1376
(S'climb'
p1377
S'What type of climb is present in the image?'
p1378
tp1379
a(S'natural elevation'
p1380
S'Select the natural elevation represented by the image?'
p1381
tp1382
asS'6180215411.jpg'
p1383
(lp1384
(S'adult'
p1385
S'What type of adult is present in the image?'
p1386
tp1387
a(S'auditory communication'
p1388
S'Select the auditory communication represented by the image?'
p1389
tp1390
asS'194464865.jpg'
p1391
(lp1392
(S'quality'
p1393
S'Choose the type of quality present in the image?'
p1394
tp1395
a(S'field'
p1396
S'Which field is shown in the image?'
p1397
tp1398
asS'3122579598.jpg'
p1399
(lp1400
(S'vertebrate'
p1401
S'What type of vertebrate is present in the image?'
p1402
tp1403
a(S'canine'
p1404
S'Select the canine represented by the image?'
p1405
tp1406
asS'2204550058.jpg'
p1407
(lp1408
(S'causal agent'
p1409
S'What type of causal agent is present in the image?'
p1410
tp1411
a(S'performer'
p1412
S'Select the performer represented by the image?'
p1413
tp1414
asS'4718150262.jpg'
p1415
(lp1416
(S'food'
p1417
S'Choose the type of food present in the image?'
p1418
tp1419
a(S'angiosperm'
p1420
S'Which angiosperm is shown in the image?'
p1421
tp1422
asS'3165936115.jpg'
p1423
(lp1424
(S'time period'
p1425
S'Choose the type of time period present in the image?'
p1426
tp1427
asS'8245313425.jpg'
p1428
(lp1429
(S'diversion'
p1430
S'What type of diversion is present in the image?'
p1431
tp1432
a(S'court game'
p1433
S'Select the court game represented by the image?'
p1434
tp1435
asS'574793535.jpg'
p1436
(lp1437
(S'beverage'
p1438
S'Choose the type of beverage present in the image?'
p1439
tp1440
a(S'causal agent'
p1441
S'Which causal agent is shown in the image?'
p1442
tp1443
asS'1449758127.jpg'
p1444
(lp1445
(S'leisure'
p1446
S'What type of leisure is present in the image?'
p1447
tp1448
a(S'body of water'
p1449
S'Select the body of water represented by the image?'
p1450
tp1451
asS'1420060118.jpg'
p1452
(lp1453
(S'angiosperm'
p1454
S'What type of angiosperm is present in the image?'
p1455
tp1456
a(S'season'
p1457
S'Select the season represented by the image?'
p1458
tp1459
asS'5896386113.jpg'
p1460
(lp1461
(S'group'
p1462
S'Choose the type of group present in the image?'
p1463
tp1464
a(S'yard'
p1465
S'Which yard is shown in the image?'
p1466
tp1467
asS'1944238257.jpg'
p1468
(lp1469
(S'causal agent'
p1470
S'Choose the type of causal agent present in the image?'
p1471
tp1472
a(S'group'
p1473
S'Which group is shown in the image?'
p1474
tp1475
asS'2665904080.jpg'
p1476
(lp1477
(S'chordate'
p1478
S'What type of chordate is present in the image?'
p1479
tp1480
a(S'vertebrate'
p1481
S'Select the vertebrate represented by the image?'
p1482
tp1483
asS'3590049329.jpg'
p1484
(lp1485
(S'plastic art'
p1486
S'Choose the type of plastic art present in the image?'
p1487
tp1488
asS'3272845728.jpg'
p1489
(lp1490
(S'area'
p1491
S'Choose the type of area present in the image?'
p1492
tp1493
a(S'room'
p1494
S'Which room is shown in the image?'
p1495
tp1496
asS'179510508.jpg'
p1497
(lp1498
(S'dramatic composition'
p1499
S'What type of dramatic composition is present in the image?'
p1500
tp1501
a(S'field'
p1502
S'Select the field represented by the image?'
p1503
tp1504
asS'2687977103.jpg'
p1505
(lp1506
(S'causal agent'
p1507
S'Choose the type of causal agent present in the image?'
p1508
tp1509
a(S'group'
p1510
S'Which group is shown in the image?'
p1511
tp1512
asS'358012011.jpg'
p1513
(lp1514
(S'nutriment'
p1515
S'Choose the type of nutriment present in the image?'
p1516
tp1517
a(S'enterprise'
p1518
S'Which enterprise is shown in the image?'
p1519
tp1520
asS'4154120779.jpg'
p1521
(lp1522
(S'decoration'
p1523
S'What type of decoration is present in the image?'
p1524
tp1525
a(S'creation'
p1526
S'Select the creation represented by the image?'
p1527
tp1528
asS'2505080204.jpg'
p1529
(lp1530
(S'group'
p1531
S'What type of group is present in the image?'
p1532
tp1533
asS'2144846312.jpg'
p1534
(lp1535
(S'juvenile'
p1536
S'Choose the type of juvenile present in the image?'
p1537
tp1538
a(S'child'
p1539
S'Which child is shown in the image?'
p1540
tp1541
asS'2557369301.jpg'
p1542
(lp1543
(S'leisure'
p1544
S'What type of leisure is present in the image?'
p1545
tp1546
a(S'geological formation'
p1547
S'Select the geological formation represented by the image?'
p1548
tp1549
asS'3511890331.jpg'
p1550
(lp1551
(S'equine'
p1552
S'Choose the type of equine present in the image?'
p1553
tp1554
a(S'male horse'
p1555
S'Which male horse is shown in the image?'
p1556
tp1557
asS'289620419.jpg'
p1558
(lp1559
(S'diversion'
p1560
S'What type of diversion is present in the image?'
p1561
tp1562
a(S'lineman'
p1563
S'Select the lineman represented by the image?'
p1564
tp1565
asS'3773302802.jpg'
p1566
(lp1567
(S'field'
p1568
S'What type of field is present in the image?'
p1569
tp1570
a(S'conveyance'
p1571
S'Select the conveyance represented by the image?'
p1572
tp1573
asS'4508785988.jpg'
p1574
(lp1575
(S'diversion'
p1576
S'What type of diversion is present in the image?'
p1577
tp1578
a(S'wheeled vehicle'
p1579
S'Select the wheeled vehicle represented by the image?'
p1580
tp1581
asS'3223809913.jpg'
p1582
(lp1583
(S'diversion'
p1584
S'Choose the type of diversion present in the image?'
p1585
tp1586
a(S'activity'
p1587
S'Which activity is shown in the image?'
p1588
tp1589
asS'3368671163.jpg'
p1590
(lp1591
(S'canine'
p1592
S'What type of canine is present in the image?'
p1593
tp1594
a(S'chordate'
p1595
S'Select the chordate represented by the image?'
p1596
tp1597
asS'4705366381.jpg'
p1598
(lp1599
(S'gathering'
p1600
S'Choose the type of gathering present in the image?'
p1601
tp1602
a(S'dramatic composition'
p1603
S'Which dramatic composition is shown in the image?'
p1604
tp1605
asS'3579368231.jpg'
p1606
(lp1607
(S'diversion'
p1608
S'What type of diversion is present in the image?'
p1609
tp1610
a(S'water sport'
p1611
S'Select the water sport represented by the image?'
p1612
tp1613
asS'5228334906.jpg'
p1614
(lp1615
(S'dramatic composition'
p1616
S'What type of dramatic composition is present in the image?'
p1617
tp1618
a(S'juvenile'
p1619
S'Select the juvenile represented by the image?'
p1620
tp1621
asS'2877503811.jpg'
p1622
(lp1623
(S'group'
p1624
S'Choose the type of group present in the image?'
p1625
tp1626
a(S'unit'
p1627
S'Which unit is shown in the image?'
p1628
tp1629
asS'2641288004.jpg'
p1630
(lp1631
(S'plastic art'
p1632
S'Choose the type of plastic art present in the image?'
p1633
tp1634
asS'4556897985.jpg'
p1635
(lp1636
(S'instrumentality'
p1637
S'Choose the type of instrumentality present in the image?'
p1638
tp1639
a(S'group'
p1640
S'Which group is shown in the image?'
p1641
tp1642
asS'5485593000.jpg'
p1643
(lp1644
(S'municipality'
p1645
S'What type of municipality is present in the image?'
p1646
tp1647
a(S'section'
p1648
S'Select the section represented by the image?'
p1649
tp1650
asS'3085017634.jpg'
p1651
(lp1652
(S'diversion'
p1653
S'What type of diversion is present in the image?'
p1654
tp1655
a(S'play'
p1656
S'Select the play represented by the image?'
p1657
tp1658
asS'1235099089.jpg'
p1659
(lp1660
(S'diversion'
p1661
S'What type of diversion is present in the image?'
p1662
tp1663
a(S'sound property'
p1664
S'Select the sound property represented by the image?'
p1665
tp1666
asS'6989577015.jpg'
p1667
(lp1668
(S'body of water'
p1669
S'Choose the type of body of water present in the image?'
p1670
tp1671
a(S'leisure'
p1672
S'Which leisure is shown in the image?'
p1673
tp1674
asS'3330007895.jpg'
p1675
(lp1676
(S'body covering'
p1677
S'What type of body covering is present in the image?'
p1678
tp1679
a(S'adult'
p1680
S'Select the adult represented by the image?'
p1681
tp1682
asS'3595795327.jpg'
p1683
(lp1684
(S'group'
p1685
S'Choose the type of group present in the image?'
p1686
tp1687
a(S'gathering'
p1688
S'Which gathering is shown in the image?'
p1689
tp1690
asS'186890601.jpg'
p1691
(lp1692
(S'diversion'
p1693
S'Choose the type of diversion present in the image?'
p1694
tp1695
a(S'water travel'
p1696
S'Which water travel is shown in the image?'
p1697
tp1698
asS'335009007.jpg'
p1699
(lp1700
(S'quality'
p1701
S'What type of quality is present in the image?'
p1702
tp1703
a(S'season'
p1704
S'Select the season represented by the image?'
p1705
tp1706
asS'2502248149.jpg'
p1707
(lp1708
(S'gathering'
p1709
S'What type of gathering is present in the image?'
p1710
tp1711
a(S'group'
p1712
S'Select the group represented by the image?'
p1713
tp1714
asS'3443404125.jpg'
p1715
(lp1716
(S'estate'
p1717
S'What type of estate is present in the image?'
p1718
tp1719
a(S'area'
p1720
S'Select the area represented by the image?'
p1721
tp1722
asS'845047334.jpg'
p1723
(lp1724
(S'masonry'
p1725
S'What type of masonry is present in the image?'
p1726
tp1727
a(S'tower'
p1728
S'Select the tower represented by the image?'
p1729
tp1730
asS'2303426046.jpg'
p1731
(lp1732
(S'pointer'
p1733
S'Choose the type of pointer present in the image?'
p1734
tp1735
a(S'canine'
p1736
S'Which canine is shown in the image?'
p1737
tp1738
asS'2421446839.jpg'
p1739
(lp1740
(S'canine'
p1741
S'What type of canine is present in the image?'
p1742
tp1743
a(S'conveyance'
p1744
S'Select the conveyance represented by the image?'
p1745
tp1746
asS'4984582919.jpg'
p1747
(lp1748
(S'paving'
p1749
S'What type of paving is present in the image?'
p1750
tp1751
a(S'conveyance'
p1752
S'Select the conveyance represented by the image?'
p1753
tp1754
asS'241979236.jpg'
p1755
(lp1756
(S'precipitation'
p1757
S'Choose the type of precipitation present in the image?'
p1758
tp1759
a(S'group'
p1760
S'Which group is shown in the image?'
p1761
tp1762
asS'3927614951.jpg'
p1763
(lp1764
(S'diversion'
p1765
S'What type of diversion is present in the image?'
p1766
tp1767
a(S'court game'
p1768
S'Select the court game represented by the image?'
p1769
tp1770
asS'116626604.jpg'
p1771
(lp1772
(S'juvenile'
p1773
S'What type of juvenile is present in the image?'
p1774
tp1775
a(S'facial expression'
p1776
S'Select the facial expression represented by the image?'
p1777
tp1778
asS'52226520.jpg'
p1779
(lp1780
(S'wheeled vehicle'
p1781
S'Choose the type of wheeled vehicle present in the image?'
p1782
tp1783
a(S'conveyance'
p1784
S'Which conveyance is shown in the image?'
p1785
tp1786
asS'2130203183.jpg'
p1787
(lp1788
(S'canine'
p1789
S'What type of canine is present in the image?'
p1790
tp1791
a(S'season'
p1792
S'Select the season represented by the image?'
p1793
tp1794
asS'2743298738.jpg'
p1795
(lp1796
(S'slope'
p1797
S'Choose the type of slope present in the image?'
p1798
tp1799
a(S'valley'
p1800
S'Which valley is shown in the image?'
p1801
tp1802
asS'446471477.jpg'
p1803
(lp1804
(S'instrumentality'
p1805
S'What type of instrumentality is present in the image?'
p1806
tp1807
a(S'causal agent'
p1808
S'Select the causal agent represented by the image?'
p1809
tp1810
asS'2667947118.jpg'
p1811
(lp1812
(S'binary compound'
p1813
S'Choose the type of binary compound present in the image?'
p1814
tp1815
asS'2773851719.jpg'
p1816
(lp1817
(S'conveyance'
p1818
S'What type of conveyance is present in the image?'
p1819
tp1820
a(S'formation'
p1821
S'Select the formation represented by the image?'
p1822
tp1823
asS'6878448810.jpg'
p1824
(lp1825
(S'dramatic composition'
p1826
S'Choose the type of dramatic composition present in the image?'
p1827
tp1828
a(S'creation'
p1829
S'Which creation is shown in the image?'
p1830
tp1831
asS'3707283973.jpg'
p1832
(lp1833
(S'outline'
p1834
S'Choose the type of outline present in the image?'
p1835
tp1836
a(S'pictorial representation'
p1837
S'Which pictorial representation is shown in the image?'
p1838
tp1839
asS'2887474280.jpg'
p1840
(lp1841
(S'horizontal surface'
p1842
S'What type of horizontal surface is present in the image?'
p1843
tp1844
a(S'horizontal surface'
p1845
S'Select the horizontal surface represented by the image?'
p1846
tp1847
asS'4846544688.jpg'
p1848
(lp1849
(S'consumer goods'
p1850
S'Choose the type of consumer goods present in the image?'
p1851
tp1852
a(S'skirt'
p1853
S'Which skirt is shown in the image?'
p1854
tp1855
asS'5122705505.jpg'
p1856
(lp1857
sS'4717966711.jpg'
p1858
(lp1859
(S'consumption'
p1860
S'What type of consumption is present in the image?'
p1861
tp1862
asS'3027458414.jpg'
p1863
(lp1864
(S'performer'
p1865
S'Choose the type of performer present in the image?'
p1866
tp1867
a(S'causal agent'
p1868
S'Which causal agent is shown in the image?'
p1869
tp1870
asS'3217231044.jpg'
p1871
(lp1872
(S'adult'
p1873
S'Choose the type of adult present in the image?'
p1874
tp1875
a(S'chemoreceptor'
p1876
S'Which chemoreceptor is shown in the image?'
p1877
tp1878
asS'3219475925.jpg'
p1879
(lp1880
(S'gathering'
p1881
S'What type of gathering is present in the image?'
p1882
tp1883
a(S'causal agent'
p1884
S'Select the causal agent represented by the image?'
p1885
tp1886
asS'4580613274.jpg'
p1887
(lp1888
(S'property'
p1889
S'What type of property is present in the image?'
p1890
tp1891
a(S'woody plant'
p1892
S'Select the woody plant represented by the image?'
p1893
tp1894
asS'3500218173.jpg'
p1895
(lp1896
(S'horizontal surface'
p1897
S'Choose the type of horizontal surface present in the image?'
p1898
tp1899
a(S'plastic art'
p1900
S'Which plastic art is shown in the image?'
p1901
tp1902
asS'522183263.jpg'
p1903
(lp1904
(S'gathering'
p1905
S'What type of gathering is present in the image?'
p1906
tp1907
asS'2320742338.jpg'
p1908
(lp1909
(S'quality'
p1910
S'Choose the type of quality present in the image?'
p1911
tp1912
a(S'vegetation'
p1913
S'Which vegetation is shown in the image?'
p1914
tp1915
asS'6314475788.jpg'
p1916
(lp1917
(S'instrument'
p1918
S'Choose the type of instrument present in the image?'
p1919
tp1920
a(S'plastic art'
p1921
S'Which plastic art is shown in the image?'
p1922
tp1923
asS'3654276875.jpg'
p1924
(lp1925
(S'group'
p1926
S'What type of group is present in the image?'
p1927
tp1928
a(S'leisure'
p1929
S'Select the leisure represented by the image?'
p1930
tp1931
asS'289599470.jpg'
p1932
(lp1933
(S'causal agent'
p1934
S'Choose the type of causal agent present in the image?'
p1935
tp1936
a(S'juvenile'
p1937
S'Which juvenile is shown in the image?'
p1938
tp1939
asS'3322389758.jpg'
p1940
(lp1941
(S'canine'
p1942
S'What type of canine is present in the image?'
p1943
tp1944
a(S'chordate'
p1945
S'Select the chordate represented by the image?'
p1946
tp1947
asS'2713897716.jpg'
p1948
(lp1949
(S'canine'
p1950
S'What type of canine is present in the image?'
p1951
tp1952
a(S'chordate'
p1953
S'Select the chordate represented by the image?'
p1954
tp1955
asS'4378823.jpg'
p1956
(lp1957
(S'angiosperm'
p1958
S'What type of angiosperm is present in the image?'
p1959
tp1960
a(S'festival'
p1961
S'Select the festival represented by the image?'
p1962
tp1963
asS'3069282021.jpg'
p1964
(lp1965
(S'diversion'
p1966
S'What type of diversion is present in the image?'
p1967
tp1968
a(S'sport'
p1969
S'Select the sport represented by the image?'
p1970
tp1971
asS'4478989677.jpg'
p1972
(lp1973
(S'body part'
p1974
S'What type of body part is present in the image?'
p1975
tp1976
asS'3239142107.jpg'
p1977
(lp1978
(S'causal agent'
p1979
S'Choose the type of causal agent present in the image?'
p1980
tp1981
a(S'city district'
p1982
S'Which city district is shown in the image?'
p1983
tp1984
asS'116382784.jpg'
p1985
(lp1986
(S'substance'
p1987
S'Choose the type of substance present in the image?'
p1988
tp1989
a(S'container'
p1990
S'Which container is shown in the image?'
p1991
tp1992
asS'122188825.jpg'
p1993
(lp1994
(S'conveyance'
p1995
S'What type of conveyance is present in the image?'
p1996
tp1997
asS'7352187056.jpg'
p1998
(lp1999
(S'water sport'
p2000
S'Choose the type of water sport present in the image?'
p2001
tp2002
a(S'diversion'
p2003
S'Which diversion is shown in the image?'
p2004
tp2005
asS'6910196393.jpg'
p2006
(lp2007
(S'diversion'
p2008
S'Choose the type of diversion present in the image?'
p2009
tp2010
a(S'contestant'
p2011
S'Which contestant is shown in the image?'
p2012
tp2013
asS'4857570002.jpg'
p2014
(lp2015
(S'municipality'
p2016
S'What type of municipality is present in the image?'
p2017
tp2018
a(S'municipality'
p2019
S'Select the municipality represented by the image?'
p2020
tp2021
asS'2724379828.jpg'
p2022
(lp2023
(S'dramatic composition'
p2024
S'Choose the type of dramatic composition present in the image?'
p2025
tp2026
a(S'juvenile'
p2027
S'Which juvenile is shown in the image?'
p2028
tp2029
asS'4593649681.jpg'
p2030
(lp2031
(S'adult'
p2032
S'Choose the type of adult present in the image?'
p2033
tp2034
a(S'causal agent'
p2035
S'Which causal agent is shown in the image?'
p2036
tp2037
asS'4941463392.jpg'
p2038
(lp2039
(S'causal agent'
p2040
S'What type of causal agent is present in the image?'
p2041
tp2042
a(S'group'
p2043
S'Select the group represented by the image?'
p2044
tp2045
asS'7261544530.jpg'
p2046
(lp2047
(S'causal agent'
p2048
S'Choose the type of causal agent present in the image?'
p2049
tp2050
a(S'occupational group'
p2051
S'Which occupational group is shown in the image?'
p2052
tp2053
asS'3278132385.jpg'
p2054
(lp2055
(S'quality'
p2056
S'What type of quality is present in the image?'
p2057
tp2058
a(S'causal agent'
p2059
S'Select the causal agent represented by the image?'
p2060
tp2061
asS'4113657978.jpg'
p2062
(lp2063
(S'diversion'
p2064
S'What type of diversion is present in the image?'
p2065
tp2066
a(S'causal agent'
p2067
S'Select the causal agent represented by the image?'
p2068
tp2069
asS'4633772793.jpg'
p2070
(lp2071
(S'gathering'
p2072
S'What type of gathering is present in the image?'
p2073
tp2074
a(S'causal agent'
p2075
S'Select the causal agent represented by the image?'
p2076
tp2077
asS'3772519455.jpg'
p2078
(lp2079
(S'water travel'
p2080
S'Choose the type of water travel present in the image?'
p2081
tp2082
a(S'body of water'
p2083
S'Which body of water is shown in the image?'
p2084
tp2085
asS'3021531305.jpg'
p2086
(lp2087
(S'cycling'
p2088
S'Choose the type of cycling present in the image?'
p2089
tp2090
a(S'conveyance'
p2091
S'Which conveyance is shown in the image?'
p2092
tp2093
asS'4933421853.jpg'
p2094
(lp2095
(S'group'
p2096
S'What type of group is present in the image?'
p2097
tp2098
a(S'municipality'
p2099
S'Select the municipality represented by the image?'
p2100
tp2101
asS'7916403012.jpg'
p2102
(lp2103
(S'diversion'
p2104
S'Choose the type of diversion present in the image?'
p2105
tp2106
a(S'barrier'
p2107
S'Which barrier is shown in the image?'
p2108
tp2109
asS'2171154778.jpg'
p2110
(lp2111
(S'causal agent'
p2112
S'What type of causal agent is present in the image?'
p2113
tp2114
a(S'limb'
p2115
S'Select the limb represented by the image?'
p2116
tp2117
asS'4749087824.jpg'
p2118
(lp2119
(S'way'
p2120
S'Choose the type of way present in the image?'
p2121
tp2122
a(S'collage'
p2123
S'Which collage is shown in the image?'
p2124
tp2125
asS'2374247382.jpg'
p2126
(lp2127
(S'consumer goods'
p2128
S'What type of consumer goods is present in the image?'
p2129
tp2130
a(S'juvenile'
p2131
S'Select the juvenile represented by the image?'
p2132
tp2133
asS'296851123.jpg'
p2134
(lp2135
(S'performer'
p2136
S'Choose the type of performer present in the image?'
p2137
tp2138
a(S'musician'
p2139
S'Which musician is shown in the image?'
p2140
tp2141
asS'474784914.jpg'
p2142
(lp2143
(S'conveyance'
p2144
S'What type of conveyance is present in the image?'
p2145
tp2146
a(S'craft'
p2147
S'Select the craft represented by the image?'
p2148
tp2149
asS'3094187053.jpg'
p2150
(lp2151
(S'percussion instrument'
p2152
S'Choose the type of percussion instrument present in the image?'
p2153
tp2154
a(S'percussionist'
p2155
S'Which percussionist is shown in the image?'
p2156
tp2157
asS'3178005751.jpg'
p2158
(lp2159
(S'consumer goods'
p2160
S'What type of consumer goods is present in the image?'
p2161
tp2162
a(S'chromatic color'
p2163
S'Select the chromatic color represented by the image?'
p2164
tp2165
asS'2622131465.jpg'
p2166
(lp2167
(S'arthropod genus'
p2168
S'Choose the type of arthropod genus present in the image?'
p2169
tp2170
a(S'conveyance'
p2171
S'Which conveyance is shown in the image?'
p2172
tp2173
asS'4539916208.jpg'
p2174
(lp2175
(S'gathering'
p2176
S'What type of gathering is present in the image?'
p2177
tp2178
a(S'group'
p2179
S'Select the group represented by the image?'
p2180
tp2181
asS'3613027188.jpg'
p2182
(lp2183
(S'diversion'
p2184
S'What type of diversion is present in the image?'
p2185
tp2186
asS'7343282792.jpg'
p2187
(lp2188
(S'show'
p2189
S'Choose the type of show present in the image?'
p2190
tp2191
a(S'athlete'
p2192
S'Which athlete is shown in the image?'
p2193
tp2194
asS'4855045669.jpg'
p2195
(lp2196
(S'performer'
p2197
S'Choose the type of performer present in the image?'
p2198
tp2199
a(S'causal agent'
p2200
S'Which causal agent is shown in the image?'
p2201
tp2202
asS'929679367.jpg'
p2203
(lp2204
(S'canine'
p2205
S'Choose the type of canine present in the image?'
p2206
tp2207
asS'3612192955.jpg'
p2208
(lp2209
(S'diversion'
p2210
S'What type of diversion is present in the image?'
p2211
tp2212
a(S'boat'
p2213
S'Select the boat represented by the image?'
p2214
tp2215
asS'5123017586.jpg'
p2216
(lp2217
(S'municipality'
p2218
S'What type of municipality is present in the image?'
p2219
tp2220
a(S'causal agent'
p2221
S'Select the causal agent represented by the image?'
p2222
tp2223
asS'6094112851.jpg'
p2224
(lp2225
(S'walk'
p2226
S'Choose the type of walk present in the image?'
p2227
tp2228
a(S'causal agent'
p2229
S'Which causal agent is shown in the image?'
p2230
tp2231
asS'2591157404.jpg'
p2232
(lp2233
(S'nutriment'
p2234
S'What type of nutriment is present in the image?'
p2235
tp2236
a(S'building'
p2237
S'Select the building represented by the image?'
p2238
tp2239
asS'3086387529.jpg'
p2240
(lp2241
(S'spot'
p2242
S'What type of spot is present in the image?'
p2243
tp2244
a(S'popular music'
p2245
S'Select the popular music represented by the image?'
p2246
tp2247
asS'1430154945.jpg'
p2248
(lp2249
(S'nutriment'
p2250
S'What type of nutriment is present in the image?'
p2251
tp2252
a(S'container'
p2253
S'Select the container represented by the image?'
p2254
tp2255
asS'6319001445.jpg'
p2256
(lp2257
(S'body of water'
p2258
S'Choose the type of body of water present in the image?'
p2259
tp2260
a(S'diversion'
p2261
S'Which diversion is shown in the image?'
p2262
tp2263
asS'2335931883.jpg'
p2264
(lp2265
(S'show'
p2266
S'Choose the type of show present in the image?'
p2267
tp2268
a(S'creation'
p2269
S'Which creation is shown in the image?'
p2270
tp2271
asS'3356792838.jpg'
p2272
(lp2273
(S'creation'
p2274
S'What type of creation is present in the image?'
p2275
tp2276
a(S'group'
p2277
S'Select the group represented by the image?'
p2278
tp2279
asS'3518755601.jpg'
p2280
(lp2281
(S'word picture'
p2282
S'Choose the type of word picture present in the image?'
p2283
tp2284
a(S'soil'
p2285
S'Which soil is shown in the image?'
p2286
tp2287
asS'2319197581.jpg'
p2288
(lp2289
(S'canine'
p2290
S'Choose the type of canine present in the image?'
p2291
tp2292
asS'1433149277.jpg'
p2293
(lp2294
(S'facility'
p2295
S'What type of facility is present in the image?'
p2296
tp2297
a(S'group'
p2298
S'Select the group represented by the image?'
p2299
tp2300
asS'199413572.jpg'
p2301
(lp2302
(S'group'
p2303
S'Choose the type of group present in the image?'
p2304
tp2305
asS'400097737.jpg'
p2306
(lp2307
(S'horizontal surface'
p2308
S'What type of horizontal surface is present in the image?'
p2309
tp2310
a(S'horizontal surface'
p2311
S'Select the horizontal surface represented by the image?'
p2312
tp2313
asS'2858408189.jpg'
p2314
(lp2315
(S'causal agent'
p2316
S'Choose the type of causal agent present in the image?'
p2317
tp2318
a(S'adult'
p2319
S'Which adult is shown in the image?'
p2320
tp2321
asS'6454057197.jpg'
p2322
(lp2323
(S'pictorial representation'
p2324
S'Choose the type of pictorial representation present in the image?'
p2325
tp2326
a(S'representation'
p2327
S'Which representation is shown in the image?'
p2328
tp2329
asS'2399674240.jpg'
p2330
(lp2331
(S'pictorial representation'
p2332
S'What type of pictorial representation is present in the image?'
p2333
tp2334
a(S'optical instrument'
p2335
S'Select the optical instrument represented by the image?'
p2336
tp2337
asS'2528547068.jpg'
p2338
(lp2339
(S'diversion'
p2340
S'Choose the type of diversion present in the image?'
p2341
tp2342
a(S'mobilization'
p2343
S'Which mobilization is shown in the image?'
p2344
tp2345
asS'4559349547.jpg'
p2346
(lp2347
(S'word picture'
p2348
S'What type of word picture is present in the image?'
p2349
tp2350
asS'4452982147.jpg'
p2351
(lp2352
(S'public transport'
p2353
S'Choose the type of public transport present in the image?'
p2354
tp2355
a(S'instrumentality'
p2356
S'Which instrumentality is shown in the image?'
p2357
tp2358
asS'5550039813.jpg'
p2359
(lp2360
(S'diversion'
p2361
S'What type of diversion is present in the image?'
p2362
tp2363
a(S'descent'
p2364
S'Select the descent represented by the image?'
p2365
tp2366
asS'183656175.jpg'
p2367
(lp2368
(S'chromatic color'
p2369
S'Choose the type of chromatic color present in the image?'
p2370
tp2371
a(S'chromatic color'
p2372
S'Which chromatic color is shown in the image?'
p2373
tp2374
asS'4525286529.jpg'
p2375
(lp2376
(S'group'
p2377
S'What type of group is present in the image?'
p2378
tp2379
a(S'traveler'
p2380
S'Select the traveler represented by the image?'
p2381
tp2382
asS'3093715621.jpg'
p2383
(lp2384
(S'group'
p2385
S'Choose the type of group present in the image?'
p2386
tp2387
a(S'causal agent'
p2388
S'Which causal agent is shown in the image?'
p2389
tp2390
asS'3971806559.jpg'
p2391
(lp2392
(S'conveyance'
p2393
S'What type of conveyance is present in the image?'
p2394
tp2395
a(S'motor vehicle'
p2396
S'Select the motor vehicle represented by the image?'
p2397
tp2398
asS'7474387734.jpg'
p2399
(lp2400
(S'group'
p2401
S'Choose the type of group present in the image?'
p2402
tp2403
a(S'causal agent'
p2404
S'Which causal agent is shown in the image?'
p2405
tp2406
asS'3524436870.jpg'
p2407
(lp2408
(S'canine'
p2409
S'What type of canine is present in the image?'
p2410
tp2411
a(S'chordate'
p2412
S'Select the chordate represented by the image?'
p2413
tp2414
asS'2241328814.jpg'
p2415
(lp2416
sS'2807209904.jpg'
p2417
(lp2418
(S'causal agent'
p2419
S'Choose the type of causal agent present in the image?'
p2420
tp2421
a(S'group'
p2422
S'Which group is shown in the image?'
p2423
tp2424
asS'2536881159.jpg'
p2425
(lp2426
(S'conveyance'
p2427
S'What type of conveyance is present in the image?'
p2428
tp2429
asS'241345596.jpg'
p2430
(lp2431
(S'diversion'
p2432
S'Choose the type of diversion present in the image?'
p2433
tp2434
a(g361
S'Which other is shown in the image?'
p2435
tp2436
asS'2364096157.jpg'
p2437
(lp2438
(S'canine'
p2439
S'What type of canine is present in the image?'
p2440
tp2441
asS'571002259.jpg'
p2442
(lp2443
(S'quality'
p2444
S'Choose the type of quality present in the image?'
p2445
tp2446
a(S'diversion'
p2447
S'Which diversion is shown in the image?'
p2448
tp2449
asS'6521767045.jpg'
p2450
(lp2451
(S'creation'
p2452
S'What type of creation is present in the image?'
p2453
tp2454
a(S'sculpture'
p2455
S'Select the sculpture represented by the image?'
p2456
tp2457
asS'2857372127.jpg'
p2458
(lp2459
(S'group'
p2460
S'What type of group is present in the image?'
p2461
tp2462
asS'4103920923.jpg'
p2463
(lp2464
(S'wit'
p2465
S'Choose the type of wit present in the image?'
p2466
tp2467
a(S'group'
p2468
S'Which group is shown in the image?'
p2469
tp2470
asS'2901375404.jpg'
p2471
(lp2472
(S'protective covering'
p2473
S'Choose the type of protective covering present in the image?'
p2474
tp2475
a(S'religion'
p2476
S'Which religion is shown in the image?'
p2477
tp2478
asS'4718776112.jpg'
p2479
(lp2480
(S'diversion'
p2481
S'What type of diversion is present in the image?'
p2482
tp2483
a(S'martial art'
p2484
S'Select the martial art represented by the image?'
p2485
tp2486
asS'749297208.jpg'
p2487
(lp2488
(S'deceive'
p2489
S'What type of deceive is present in the image?'
p2490
tp2491
asS'2680619645.jpg'
p2492
(lp2493
(S'dramatic composition'
p2494
S'Choose the type of dramatic composition present in the image?'
p2495
tp2496
a(S'water travel'
p2497
S'Which water travel is shown in the image?'
p2498
tp2499
asS'4685230116.jpg'
p2500
(lp2501
(S'causal agent'
p2502
S'What type of causal agent is present in the image?'
p2503
tp2504
a(S'group'
p2505
S'Select the group represented by the image?'
p2506
tp2507
asS'2687134043.jpg'
p2508
(lp2509
(S'causal agent'
p2510
S'Choose the type of causal agent present in the image?'
p2511
tp2512
a(S'group'
p2513
S'Which group is shown in the image?'
p2514
tp2515
asS'40261771.jpg'
p2516
(lp2517
(S'objection'
p2518
S'Choose the type of objection present in the image?'
p2519
tp2520
a(S'gathering'
p2521
S'Which gathering is shown in the image?'
p2522
tp2523
asS'3482237861.jpg'
p2524
(lp2525
(S'protective covering'
p2526
S'What type of protective covering is present in the image?'
p2527
tp2528
a(S'field'
p2529
S'Select the field represented by the image?'
p2530
tp2531
asS'4845542946.jpg'
p2532
(lp2533
(S'causal agent'
p2534
S'Choose the type of causal agent present in the image?'
p2535
tp2536
a(S'group'
p2537
S'Which group is shown in the image?'
p2538
tp2539
asS'2356153548.jpg'
p2540
(lp2541
(S'instrumentality'
p2542
S'What type of instrumentality is present in the image?'
p2543
tp2544
a(S'public transport'
p2545
S'Select the public transport represented by the image?'
p2546
tp2547
asS'2726301121.jpg'
p2548
(lp2549
(S'pictorial representation'
p2550
S'Choose the type of pictorial representation present in the image?'
p2551
tp2552
a(S'person'
p2553
S'Which person is shown in the image?'
p2554
tp2555
asS'3255737244.jpg'
p2556
(lp2557
(S'angiosperm'
p2558
S'What type of angiosperm is present in the image?'
p2559
tp2560
asS'2256000607.jpg'
p2561
(lp2562
(S'angiosperm'
p2563
S'What type of angiosperm is present in the image?'
p2564
tp2565
a(S'old man'
p2566
S'Select the old man represented by the image?'
p2567
tp2568
asS'4455082618.jpg'
p2569
(lp2570
(S'way'
p2571
S'Choose the type of way present in the image?'
p2572
tp2573
a(S'conveyance'
p2574
S'Which conveyance is shown in the image?'
p2575
tp2576
asS'4589656744.jpg'
p2577
(lp2578
(S'group'
p2579
S'What type of group is present in the image?'
p2580
tp2581
asS'2924312981.jpg'
p2582
(lp2583
(S'contestant'
p2584
S'What type of contestant is present in the image?'
p2585
tp2586
a(S'causal agent'
p2587
S'Select the causal agent represented by the image?'
p2588
tp2589
asS'7098586179.jpg'
p2590
(lp2591
(S'dramatic composition'
p2592
S'Choose the type of dramatic composition present in the image?'
p2593
tp2594
asS'1030041880.jpg'
p2595
(lp2596
(S'show'
p2597
S'What type of show is present in the image?'
p2598
tp2599
a(S'musical performance'
p2600
S'Select the musical performance represented by the image?'
p2601
tp2602
asS'5350952226.jpg'
p2603
(lp2604
(S'creator'
p2605
S'Choose the type of creator present in the image?'
p2606
tp2607
a(S'art'
p2608
S'Which art is shown in the image?'
p2609
tp2610
asS'7184998020.jpg'
p2611
(lp2612
(S'group'
p2613
S'What type of group is present in the image?'
p2614
tp2615
a(S'affair'
p2616
S'Select the affair represented by the image?'
p2617
tp2618
asS'3613264553.jpg'
p2619
(lp2620
(S'body of water'
p2621
S'Choose the type of body of water present in the image?'
p2622
tp2623
a(S'supply'
p2624
S'Which supply is shown in the image?'
p2625
tp2626
asS'5159056173.jpg'
p2627
(lp2628
(S'representation'
p2629
S'What type of representation is present in the image?'
p2630
tp2631
a(S'graphic art'
p2632
S'Select the graphic art represented by the image?'
p2633
tp2634
asS'331152609.jpg'
p2635
(lp2636
(S'geological phenomenon'
p2637
S'What type of geological phenomenon is present in the image?'
p2638
tp2639
a(S'adversity'
p2640
S'Select the adversity represented by the image?'
p2641
tp2642
asS'359291972.jpg'
p2643
(lp2644
(S'diversion'
p2645
S'Choose the type of diversion present in the image?'
p2646
tp2647
asS'524698457.jpg'
p2648
(lp2649
(S'canine'
p2650
S'What type of canine is present in the image?'
p2651
tp2652
asS'7012337521.jpg'
p2653
(lp2654
(S'causal agent'
p2655
S'What type of causal agent is present in the image?'
p2656
tp2657
a(S'force'
p2658
S'Select the force represented by the image?'
p2659
tp2660
asS'2470519984.jpg'
p2661
(lp2662
(S'building'
p2663
S'Choose the type of building present in the image?'
p2664
tp2665
a(S'container'
p2666
S'Which container is shown in the image?'
p2667
tp2668
asS'6302275277.jpg'
p2669
(lp2670
(S'barrier'
p2671
S'Choose the type of barrier present in the image?'
p2672
tp2673
a(S'diversion'
p2674
S'Which diversion is shown in the image?'
p2675
tp2676
asS'3616566999.jpg'
p2677
(lp2678
(S'consumer goods'
p2679
S'Choose the type of consumer goods present in the image?'
p2680
tp2681
a(S'chromatic color'
p2682
S'Which chromatic color is shown in the image?'
p2683
tp2684
asS'275290256.jpg'
p2685
(lp2686
(S'object'
p2687
S'Choose the type of object present in the image?'
p2688
tp2689
a(S'activity'
p2690
S'Which activity is shown in the image?'
p2691
tp2692
asS'241109594.jpg'
p2693
(lp2694
(S'canine'
p2695
S'Choose the type of canine present in the image?'
p2696
tp2697
a(S'chordate'
p2698
S'Which chordate is shown in the image?'
p2699
tp2700
asS'6716031215.jpg'
p2701
(lp2702
(S'diversion'
p2703
S'Choose the type of diversion present in the image?'
p2704
tp2705
a(S'court game'
p2706
S'Which court game is shown in the image?'
p2707
tp2708
asS'1469138762.jpg'
p2709
(lp2710
(S'causal agent'
p2711
S'What type of causal agent is present in the image?'
p2712
tp2713
a(S'locomotion'
p2714
S'Select the locomotion represented by the image?'
p2715
tp2716
asS'2295920018.jpg'
p2717
(lp2718
(S'contestant'
p2719
S'Choose the type of contestant present in the image?'
p2720
tp2721
a(S'diversion'
p2722
S'Which diversion is shown in the image?'
p2723
tp2724
asS'7468150262.jpg'
p2725
(lp2726
(S'diversion'
p2727
S'Choose the type of diversion present in the image?'
p2728
tp2729
a(S'track and field'
p2730
S'Which track and field is shown in the image?'
p2731
tp2732
asS'4495174902.jpg'
p2733
(lp2734
(S'shore'
p2735
S'What type of shore is present in the image?'
p2736
tp2737
a(S'activity'
p2738
S'Select the activity represented by the image?'
p2739
tp2740
asS'2257233228.jpg'
p2741
(lp2742
(S'leisure'
p2743
S'Choose the type of leisure present in the image?'
p2744
tp2745
a(S'causal agent'
p2746
S'Which causal agent is shown in the image?'
p2747
tp2748
asS'4731694958.jpg'
p2749
(lp2750
(S'walk'
p2751
S'What type of walk is present in the image?'
p2752
tp2753
a(S'way'
p2754
S'Select the way represented by the image?'
p2755
tp2756
asS'4592144222.jpg'
p2757
(lp2758
(S'position'
p2759
S'Choose the type of position present in the image?'
p2760
tp2761
a(S'public square'
p2762
S'Which public square is shown in the image?'
p2763
tp2764
asS'485921585.jpg'
p2765
(lp2766
(S'diversion'
p2767
S'Choose the type of diversion present in the image?'
p2768
tp2769
a(S'wheeled vehicle'
p2770
S'Which wheeled vehicle is shown in the image?'
p2771
tp2772
asS'6253003614.jpg'
p2773
(lp2774
(S'contestant'
p2775
S'Choose the type of contestant present in the image?'
p2776
tp2777
a(S'rescue equipment'
p2778
S'Which rescue equipment is shown in the image?'
p2779
tp2780
asS'4965081213.jpg'
p2781
(lp2782
(S'consumer goods'
p2783
S'What type of consumer goods is present in the image?'
p2784
tp2785
a(S'time period'
p2786
S'Select the time period represented by the image?'
p2787
tp2788
asS'7761586286.jpg'
p2789
(lp2790
(S'diversion'
p2791
S'What type of diversion is present in the image?'
p2792
tp2793
a(g361
S'Select the other represented by the image?'
p2794
tp2795
asS'2326666568.jpg'
p2796
(lp2797
(S'line'
p2798
S'What type of line is present in the image?'
p2799
tp2800
a(S'plain'
p2801
S'Select the plain represented by the image?'
p2802
tp2803
asS'553854589.jpg'
p2804
(lp2805
(S'way'
p2806
S'What type of way is present in the image?'
p2807
tp2808
a(S'street'
p2809
S'Select the street represented by the image?'
p2810
tp2811
asS'466761566.jpg'
p2812
(lp2813
(S'municipality'
p2814
S'Choose the type of municipality present in the image?'
p2815
tp2816
a(S'group'
p2817
S'Which group is shown in the image?'
p2818
tp2819
asS'4594171071.jpg'
p2820
(lp2821
(S'diversion'
p2822
S'Choose the type of diversion present in the image?'
p2823
tp2824
asS'7306334328.jpg'
p2825
(lp2826
(S'dramatic composition'
p2827
S'What type of dramatic composition is present in the image?'
p2828
tp2829
a(S'field'
p2830
S'Select the field represented by the image?'
p2831
tp2832
asS'611910909.jpg'
p2833
(lp2834
(S'angiosperm'
p2835
S'Choose the type of angiosperm present in the image?'
p2836
tp2837
a(S'woody plant'
p2838
S'Which woody plant is shown in the image?'
p2839
tp2840
asS'399631066.jpg'
p2841
(lp2842
(S'consumer goods'
p2843
S'What type of consumer goods is present in the image?'
p2844
tp2845
a(S'chromatic color'
p2846
S'Select the chromatic color represented by the image?'
p2847
tp2848
asS'4042638258.jpg'
p2849
(lp2850
(S'body of water'
p2851
S'Choose the type of body of water present in the image?'
p2852
tp2853
a(S'diversion'
p2854
S'Which diversion is shown in the image?'
p2855
tp2856
asS'4559328276.jpg'
p2857
(lp2858
(S'position'
p2859
S'What type of position is present in the image?'
p2860
tp2861
a(S'way'
p2862
S'Select the way represented by the image?'
p2863
tp2864
asS'496971341.jpg'
p2865
(lp2866
(S'canine'
p2867
S'Choose the type of canine present in the image?'
p2868
tp2869
a(S'dramatic composition'
p2870
S'Which dramatic composition is shown in the image?'
p2871
tp2872
asS'4983762807.jpg'
p2873
(lp2874
(S'consideration'
p2875
S'What type of consideration is present in the image?'
p2876
tp2877
a(S'body of water'
p2878
S'Select the body of water represented by the image?'
p2879
tp2880
asS'3357142179.jpg'
p2881
(lp2882
(S'object'
p2883
S'Choose the type of object present in the image?'
p2884
tp2885
a(S'woody plant'
p2886
S'Which woody plant is shown in the image?'
p2887
tp2888
asS'7606751856.jpg'
p2889
(lp2890
(S'meal'
p2891
S'What type of meal is present in the image?'
p2892
tp2893
a(S'nutriment'
p2894
S'Select the nutriment represented by the image?'
p2895
tp2896
asS'3335311209.jpg'
p2897
(lp2898
(S'causal agent'
p2899
S'What type of causal agent is present in the image?'
p2900
tp2901
a(S'group'
p2902
S'Select the group represented by the image?'
p2903
tp2904
asS'2103104748.jpg'
p2905
(lp2906
(S'causal agent'
p2907
S'Choose the type of causal agent present in the image?'
p2908
tp2909
asS'481216325.jpg'
p2910
(lp2911
(S'facility'
p2912
S'What type of facility is present in the image?'
p2913
tp2914
asS'4671795847.jpg'
p2915
(lp2916
(S'horizontal surface'
p2917
S'Choose the type of horizontal surface present in the image?'
p2918
tp2919
a(S'wood'
p2920
S'Which wood is shown in the image?'
p2921
tp2922
asS'2529226054.jpg'
p2923
(lp2924
(S'enterprise'
p2925
S'What type of enterprise is present in the image?'
p2926
tp2927
a(S'grocery store'
p2928
S'Select the grocery store represented by the image?'
p2929
tp2930
asS'3110757763.jpg'
p2931
(lp2932
(S'body of water'
p2933
S'Choose the type of body of water present in the image?'
p2934
tp2935
a(S'consideration'
p2936
S'Which consideration is shown in the image?'
p2937
tp2938
asS'4210282647.jpg'
p2939
(lp2940
(S'conveyer belt'
p2941
S'What type of conveyer belt is present in the image?'
p2942
tp2943
a(S'tract'
p2944
S'Select the tract represented by the image?'
p2945
tp2946
asS'3405942945.jpg'
p2947
(lp2948
(S'consumer goods'
p2949
S'Choose the type of consumer goods present in the image?'
p2950
tp2951
a(S'juvenile'
p2952
S'Which juvenile is shown in the image?'
p2953
tp2954
asS'4772885285.jpg'
p2955
(lp2956
(S'binary compound'
p2957
S'What type of binary compound is present in the image?'
p2958
tp2959
asS'3626964430.jpg'
p2960
(lp2961
(S'diversion'
p2962
S'What type of diversion is present in the image?'
p2963
tp2964
a(S'orthopterous insect'
p2965
S'Select the orthopterous insect represented by the image?'
p2966
tp2967
asS'4455946038.jpg'
p2968
(lp2969
(S'diversion'
p2970
S'What type of diversion is present in the image?'
p2971
tp2972
a(S'soil'
p2973
S'Select the soil represented by the image?'
p2974
tp2975
asS'2922721663.jpg'
p2976
(lp2977
(S'group'
p2978
S'Choose the type of group present in the image?'
p2979
tp2980
a(S'affair'
p2981
S'Which affair is shown in the image?'
p2982
tp2983
asS'4927180699.jpg'
p2984
(lp2985
(S'diversion'
p2986
S'What type of diversion is present in the image?'
p2987
tp2988
a(S'contestant'
p2989
S'Select the contestant represented by the image?'
p2990
tp2991
asS'2736432503.jpg'
p2992
(lp2993
(S'municipality'
p2994
S'Choose the type of municipality present in the image?'
p2995
tp2996
a(S'city district'
p2997
S'Which city district is shown in the image?'
p2998
tp2999
asS'3677693858.jpg'
p3000
(lp3001
(S'diversion'
p3002
S'What type of diversion is present in the image?'
p3003
tp3004
a(S'causal agent'
p3005
S'Select the causal agent represented by the image?'
p3006
tp3007
asS'3555573680.jpg'
p3008
(lp3009
(S'diversion'
p3010
S'What type of diversion is present in the image?'
p3011
tp3012
asS'185960419.jpg'
p3013
(lp3014
(S'gathering'
p3015
S'Choose the type of gathering present in the image?'
p3016
tp3017
a(S'group'
p3018
S'Which group is shown in the image?'
p3019
tp3020
asS'3791591952.jpg'
p3021
(lp3022
(S'show'
p3023
S'What type of show is present in the image?'
p3024
tp3025
a(S'art'
p3026
S'Select the art represented by the image?'
p3027
tp3028
asS'3538072765.jpg'
p3029
(lp3030
(S'soil'
p3031
S'Choose the type of soil present in the image?'
p3032
tp3033
asS'2299427360.jpg'
p3034
(lp3035
(S'canine'
p3036
S'What type of canine is present in the image?'
p3037
tp3038
a(S'chordate'
p3039
S'Select the chordate represented by the image?'
p3040
tp3041
asS'6053187227.jpg'
p3042
(lp3043
sS'2304374703.jpg'
p3044
(lp3045
(S'dramatic composition'
p3046
S'What type of dramatic composition is present in the image?'
p3047
tp3048
a(S'canine'
p3049
S'Select the canine represented by the image?'
p3050
tp3051
asS'4738025604.jpg'
p3052
(lp3053
(S'causal agent'
p3054
S'Choose the type of causal agent present in the image?'
p3055
tp3056
a(S'conveyance'
p3057
S'Which conveyance is shown in the image?'
p3058
tp3059
asS'4356644331.jpg'
p3060
(lp3061
(S'animal skin'
p3062
S'What type of animal skin is present in the image?'
p3063
tp3064
asS'7631372276.jpg'
p3065
(lp3066
(S'group'
p3067
S'What type of group is present in the image?'
p3068
tp3069
a(S'commercial enterprise'
p3070
S'Select the commercial enterprise represented by the image?'
p3071
tp3072
asS'14748953.jpg'
p3073
(lp3074
(S'causal agent'
p3075
S'Choose the type of causal agent present in the image?'
p3076
tp3077
asS'4255627436.jpg'
p3078
(lp3079
(S'paving'
p3080
S'What type of paving is present in the image?'
p3081
tp3082
asS'5721495953.jpg'
p3083
(lp3084
(S'attire'
p3085
S'Choose the type of attire present in the image?'
p3086
tp3087
asS'2678792892.jpg'
p3088
(lp3089
(S'body of water'
p3090
S'What type of body of water is present in the image?'
p3091
tp3092
a(S'juvenile'
p3093
S'Select the juvenile represented by the image?'
p3094
tp3095
asS'2120161244.jpg'
p3096
(lp3097
(S'consumer goods'
p3098
S'What type of consumer goods is present in the image?'
p3099
tp3100
a(S'causal agent'
p3101
S'Select the causal agent represented by the image?'
p3102
tp3103
asS'2116381816.jpg'
p3104
(lp3105
(S'group'
p3106
S'Choose the type of group present in the image?'
p3107
tp3108
a(S'movable barrier'
p3109
S'Which movable barrier is shown in the image?'
p3110
tp3111
asS'4923233692.jpg'
p3112
(lp3113
(S'causal agent'
p3114
S'What type of causal agent is present in the image?'
p3115
tp3116
a(S'season'
p3117
S'Select the season represented by the image?'
p3118
tp3119
asS'1339596997.jpg'
p3120
(lp3121
(S'consumer goods'
p3122
S'Choose the type of consumer goods present in the image?'
p3123
tp3124
a(S'adult'
p3125
S'Which adult is shown in the image?'
p3126
tp3127
asS'4851268802.jpg'
p3128
(lp3129
(S'group'
p3130
S'What type of group is present in the image?'
p3131
tp3132
a(S'angiosperm'
p3133
S'Select the angiosperm represented by the image?'
p3134
tp3135
asS'6782191871.jpg'
p3136
(lp3137
(S'diversion'
p3138
S'What type of diversion is present in the image?'
p3139
tp3140
a(S'sport'
p3141
S'Select the sport represented by the image?'
p3142
tp3143
asS'7959598848.jpg'
p3144
(lp3145
(S'diversion'
p3146
S'Choose the type of diversion present in the image?'
p3147
tp3148
a(S'cheer'
p3149
S'Which cheer is shown in the image?'
p3150
tp3151
asS'2775068620.jpg'
p3152
(lp3153
(S'municipality'
p3154
S'Choose the type of municipality present in the image?'
p3155
tp3156
a(S'traveler'
p3157
S'Which traveler is shown in the image?'
p3158
tp3159
asS'4011394505.jpg'
p3160
(lp3161
(S'diversion'
p3162
S'What type of diversion is present in the image?'
p3163
tp3164
a(S'contestant'
p3165
S'Select the contestant represented by the image?'
p3166
tp3167
asS'64327797.jpg'
p3168
(lp3169
(S'diversion'
p3170
S'Choose the type of diversion present in the image?'
p3171
tp3172
a(S'track and field'
p3173
S'Which track and field is shown in the image?'
p3174
tp3175
asS'6247842442.jpg'
p3176
(lp3177
(S'performer'
p3178
S'What type of performer is present in the image?'
p3179
tp3180
a(S'device'
p3181
S'Select the device represented by the image?'
p3182
tp3183
asS'3420323191.jpg'
p3184
(lp3185
(S'diversion'
p3186
S'Choose the type of diversion present in the image?'
p3187
tp3188
a(S'canoe'
p3189
S'Which canoe is shown in the image?'
p3190
tp3191
asS'574274795.jpg'
p3192
(lp3193
(S'aerosol'
p3194
S'What type of aerosol is present in the image?'
p3195
tp3196
a(S'life'
p3197
S'Select the life represented by the image?'
p3198
tp3199
asS'3399798295.jpg'
p3200
(lp3201
(S'adult'
p3202
S'What type of adult is present in the image?'
p3203
tp3204
a(S'person'
p3205
S'Select the person represented by the image?'
p3206
tp3207
asS'4289389552.jpg'
p3208
(lp3209
(S'causal agent'
p3210
S'Choose the type of causal agent present in the image?'
p3211
tp3212
a(S'group'
p3213
S'Which group is shown in the image?'
p3214
tp3215
asS'4924679654.jpg'
p3216
(lp3217
(S'cycling'
p3218
S'What type of cycling is present in the image?'
p3219
tp3220
a(S'conveyance'
p3221
S'Select the conveyance represented by the image?'
p3222
tp3223
asS'7446693604.jpg'
p3224
(lp3225
(S'conveyance'
p3226
S'Choose the type of conveyance present in the image?'
p3227
tp3228
a(S'small boat'
p3229
S'Which small boat is shown in the image?'
p3230
tp3231
asS'2438728474.jpg'
p3232
(lp3233
(S'plot'
p3234
S'What type of plot is present in the image?'
p3235
tp3236
a(S'angiosperm'
p3237
S'Select the angiosperm represented by the image?'
p3238
tp3239
asS'4932142811.jpg'
p3240
(lp3241
(S'way'
p3242
S'Choose the type of way present in the image?'
p3243
tp3244
a(S'section'
p3245
S'Which section is shown in the image?'
p3246
tp3247
asS'85600252.jpg'
p3248
(lp3249
(S'causal agent'
p3250
S'Choose the type of causal agent present in the image?'
p3251
tp3252
a(S'group'
p3253
S'Which group is shown in the image?'
p3254
tp3255
asS'664228094.jpg'
p3256
(lp3257
(S'dirtiness'
p3258
S'Choose the type of dirtiness present in the image?'
p3259
tp3260
a(S'output'
p3261
S'Which output is shown in the image?'
p3262
tp3263
asS'1912483048.jpg'
p3264
(lp3265
(S'performer'
p3266
S'What type of performer is present in the image?'
p3267
tp3268
a(S'conveyance'
p3269
S'Select the conveyance represented by the image?'
p3270
tp3271
asS'3130064588.jpg'
p3272
(lp3273
(S'leisure'
p3274
S'Choose the type of leisure present in the image?'
p3275
tp3276
a(S'body of water'
p3277
S'Which body of water is shown in the image?'
p3278
tp3279
asS'2644326817.jpg'
p3280
(lp3281
(S'canine'
p3282
S'What type of canine is present in the image?'
p3283
tp3284
a(S'plain'
p3285
S'Select the plain represented by the image?'
p3286
tp3287
asS'2104009548.jpg'
p3288
(lp3289
(S'creation'
p3290
S'What type of creation is present in the image?'
p3291
tp3292
a(S'visual communication'
p3293
S'Select the visual communication represented by the image?'
p3294
tp3295
asS'2749856945.jpg'
p3296
(lp3297
(S'nutriment'
p3298
S'Choose the type of nutriment present in the image?'
p3299
tp3300
a(S'meal'
p3301
S'Which meal is shown in the image?'
p3302
tp3303
asS'3728438187.jpg'
p3304
(lp3305
(S'framework'
p3306
S'What type of framework is present in the image?'
p3307
tp3308
a(S'curve'
p3309
S'Select the curve represented by the image?'
p3310
tp3311
asS'7081584189.jpg'
p3312
(lp3313
(S'precipitation'
p3314
S'Choose the type of precipitation present in the image?'
p3315
tp3316
a(S'creation'
p3317
S'Which creation is shown in the image?'
p3318
tp3319
asS'5739923608.jpg'
p3320
(lp3321
(S'group'
p3322
S'Choose the type of group present in the image?'
p3323
tp3324
a(S'traveler'
p3325
S'Which traveler is shown in the image?'
p3326
tp3327
asS'233361142.jpg'
p3328
(lp3329
(S'canine'
p3330
S'What type of canine is present in the image?'
p3331
tp3332
a(S'chordate'
p3333
S'Select the chordate represented by the image?'
p3334
tp3335
asS'3532587748.jpg'
p3336
(lp3337
sS'168536743.jpg'
p3338
(lp3339
(S'conveyance'
p3340
S'Choose the type of conveyance present in the image?'
p3341
tp3342
a(S'body of water'
p3343
S'Which body of water is shown in the image?'
p3344
tp3345
asS'5789670474.jpg'
p3346
(lp3347
(S'diversion'
p3348
S'What type of diversion is present in the image?'
p3349
tp3350
a(S'activity'
p3351
S'Select the activity represented by the image?'
p3352
tp3353
asS'1258371874.jpg'
p3354
(lp3355
(S'water travel'
p3356
S'What type of water travel is present in the image?'
p3357
tp3358
a(S'track and field'
p3359
S'Select the track and field represented by the image?'
p3360
tp3361
asS'254178173.jpg'
p3362
(lp3363
(S'municipality'
p3364
S'What type of municipality is present in the image?'
p3365
tp3366
a(S'position'
p3367
S'Select the position represented by the image?'
p3368
tp3369
asS'5479743540.jpg'
p3370
(lp3371
(S'diversion'
p3372
S'Choose the type of diversion present in the image?'
p3373
tp3374
a(S'activity'
p3375
S'Which activity is shown in the image?'
p3376
tp3377
asS'4327457460.jpg'
p3378
(lp3379
(S'body of water'
p3380
S'Choose the type of body of water present in the image?'
p3381
tp3382
asS'2908834379.jpg'
p3383
(lp3384
(S'activity'
p3385
S'Choose the type of activity present in the image?'
p3386
tp3387
a(S'collection'
p3388
S'Which collection is shown in the image?'
p3389
tp3390
asS'2250713748.jpg'
p3391
(lp3392
(S'time period'
p3393
S'What type of time period is present in the image?'
p3394
tp3395
asS'4898250461.jpg'
p3396
(lp3397
(S'consumer goods'
p3398
S'Choose the type of consumer goods present in the image?'
p3399
tp3400
a(S'adult'
p3401
S'Which adult is shown in the image?'
p3402
tp3403
asS'1316458112.jpg'
p3404
(lp3405
(S'causal agent'
p3406
S'Choose the type of causal agent present in the image?'
p3407
tp3408
a(S'group'
p3409
S'Which group is shown in the image?'
p3410
tp3411
asS'1104133405.jpg'
p3412
(lp3413
(S'diversion'
p3414
S'Choose the type of diversion present in the image?'
p3415
tp3416
a(S'group'
p3417
S'Which group is shown in the image?'
p3418
tp3419
asS'2792152754.jpg'
p3420
(lp3421
(S'creation'
p3422
S'What type of creation is present in the image?'
p3423
tp3424
asS'6788339456.jpg'
p3425
(lp3426
(S'show'
p3427
S'What type of show is present in the image?'
p3428
tp3429
a(S'creation'
p3430
S'Select the creation represented by the image?'
p3431
tp3432
asS'241345770.jpg'
p3433
(lp3434
(S'lineman'
p3435
S'Choose the type of lineman present in the image?'
p3436
tp3437
a(S'contestant'
p3438
S'Which contestant is shown in the image?'
p3439
tp3440
asS'3582914905.jpg'
p3441
(lp3442
(S'diversion'
p3443
S'Choose the type of diversion present in the image?'
p3444
tp3445
a(S'boat'
p3446
S'Which boat is shown in the image?'
p3447
tp3448
asS'3180806542.jpg'
p3449
(lp3450
(S'diversion'
p3451
S'What type of diversion is present in the image?'
p3452
tp3453
a(S'precipitation'
p3454
S'Select the precipitation represented by the image?'
p3455
tp3456
asS'4275465064.jpg'
p3457
(lp3458
(S'group'
p3459
S'Choose the type of group present in the image?'
p3460
tp3461
a(S'angiosperm'
p3462
S'Which angiosperm is shown in the image?'
p3463
tp3464
asS'4966265765.jpg'
p3465
(lp3466
(S'causal agent'
p3467
S'What type of causal agent is present in the image?'
p3468
tp3469
asS'3523559027.jpg'
p3470
(lp3471
(S'property'
p3472
S'What type of property is present in the image?'
p3473
tp3474
a(S'field'
p3475
S'Select the field represented by the image?'
p3476
tp3477
asS'33972426.jpg'
p3478
(lp3479
(S'woody plant'
p3480
S'What type of woody plant is present in the image?'
p3481
tp3482
a(S'reproductive structure'
p3483
S'Select the reproductive structure represented by the image?'
p3484
tp3485
asS'4801849846.jpg'
p3486
(lp3487
(S'section'
p3488
S'Choose the type of section present in the image?'
p3489
tp3490
a(S'way'
p3491
S'Which way is shown in the image?'
p3492
tp3493
asS'292531473.jpg'
p3494
(lp3495
(S'diversion'
p3496
S'Choose the type of diversion present in the image?'
p3497
tp3498
a(S'activity'
p3499
S'Which activity is shown in the image?'
p3500
tp3501
asS'4700843895.jpg'
p3502
(lp3503
(S'leisure'
p3504
S'Choose the type of leisure present in the image?'
p3505
tp3506
a(S'community'
p3507
S'Which community is shown in the image?'
p3508
tp3509
asS'4202255358.jpg'
p3510
(lp3511
(S'instrumentality'
p3512
S'What type of instrumentality is present in the image?'
p3513
tp3514
a(S'conveyance'
p3515
S'Select the conveyance represented by the image?'
p3516
tp3517
asS'6317293855.jpg'
p3518
(lp3519
(S'performer'
p3520
S'Choose the type of performer present in the image?'
p3521
tp3522
a(S'musician'
p3523
S'Which musician is shown in the image?'
p3524
tp3525
asS'7024548973.jpg'
p3526
(lp3527
(S'dramatic composition'
p3528
S'Choose the type of dramatic composition present in the image?'
p3529
tp3530
a(S'causal agent'
p3531
S'Which causal agent is shown in the image?'
p3532
tp3533
asS'4455622662.jpg'
p3534
(lp3535
(S'season'
p3536
S'What type of season is present in the image?'
p3537
tp3538
a(S'precipitation'
p3539
S'Select the precipitation represented by the image?'
p3540
tp3541
asS'61454211.jpg'
p3542
(lp3543
(S'upper surface'
p3544
S'What type of upper surface is present in the image?'
p3545
tp3546
asS'2379737358.jpg'
p3547
(lp3548
(S'dramatic composition'
p3549
S'Choose the type of dramatic composition present in the image?'
p3550
tp3551
a(S'track and field'
p3552
S'Which track and field is shown in the image?'
p3553
tp3554
asS'2689358407.jpg'
p3555
(lp3556
(S'diversion'
p3557
S'Choose the type of diversion present in the image?'
p3558
tp3559
asS'2409771090.jpg'
p3560
(lp3561
(S'show'
p3562
S'Choose the type of show present in the image?'
p3563
tp3564
a(S'creation'
p3565
S'Which creation is shown in the image?'
p3566
tp3567
asS'6847695941.jpg'
p3568
(lp3569
(S'causal agent'
p3570
S'What type of causal agent is present in the image?'
p3571
tp3572
a(S'group'
p3573
S'Select the group represented by the image?'
p3574
tp3575
asS'3330935489.jpg'
p3576
(lp3577
(S'cur'
p3578
S'Choose the type of cur present in the image?'
p3579
tp3580
a(S'mammal family'
p3581
S'Which mammal family is shown in the image?'
p3582
tp3583
asS'5074980095.jpg'
p3584
(lp3585
(S'conveyance'
p3586
S'What type of conveyance is present in the image?'
p3587
tp3588
a(S'wagon'
p3589
S'Select the wagon represented by the image?'
p3590
tp3591
asS'7338940816.jpg'
p3592
(lp3593
(S'precipitation'
p3594
S'What type of precipitation is present in the image?'
p3595
tp3596
a(S'atmospheric phenomenon'
p3597
S'Select the atmospheric phenomenon represented by the image?'
p3598
tp3599
asS'3275704430.jpg'
p3600
(lp3601
(S'representation'
p3602
S'Choose the type of representation present in the image?'
p3603
tp3604
a(S'causal agent'
p3605
S'Which causal agent is shown in the image?'
p3606
tp3607
asS'349394363.jpg'
p3608
(lp3609
(S'woody plant'
p3610
S'What type of woody plant is present in the image?'
p3611
tp3612
asS'2511019188.jpg'
p3613
(lp3614
(S'canine'
p3615
S'What type of canine is present in the image?'
p3616
tp3617
a(S'chordate'
p3618
S'Select the chordate represented by the image?'
p3619
tp3620
asS'2214780248.jpg'
p3621
(lp3622
(S'geological formation'
p3623
S'Choose the type of geological formation present in the image?'
p3624
tp3625
a(S'shore'
p3626
S'Which shore is shown in the image?'
p3627
tp3628
asS'2647394564.jpg'
p3629
(lp3630
(S'hour'
p3631
S'Choose the type of hour present in the image?'
p3632
tp3633
asS'4617982332.jpg'
p3634
(lp3635
(S'disfavor'
p3636
S'What type of disfavor is present in the image?'
p3637
tp3638
asS'4887777705.jpg'
p3639
(lp3640
(S'causal agent'
p3641
S'What type of causal agent is present in the image?'
p3642
tp3643
a(S'group'
p3644
S'Select the group represented by the image?'
p3645
tp3646
asS'3415178926.jpg'
p3647
(lp3648
(S'canine'
p3649
S'What type of canine is present in the image?'
p3650
tp3651
a(S'life'
p3652
S'Select the life represented by the image?'
p3653
tp3654
asS'3672105089.jpg'
p3655
(lp3656
(S'group'
p3657
S'What type of group is present in the image?'
p3658
tp3659
asS'2181117039.jpg'
p3660
(lp3661
(S'group'
p3662
S'Choose the type of group present in the image?'
p3663
tp3664
asS'430689218.jpg'
p3665
(lp3666
(S'adult'
p3667
S'What type of adult is present in the image?'
p3668
tp3669
a(S'child'
p3670
S'Select the child represented by the image?'
p3671
tp3672
asS'2925760802.jpg'
p3673
(lp3674
(S'photograph'
p3675
S'Choose the type of photograph present in the image?'
p3676
tp3677
a(S'consumer goods'
p3678
S'Which consumer goods is shown in the image?'
p3679
tp3680
asS'3168334220.jpg'
p3681
(lp3682
(S'collection'
p3683
S'What type of collection is present in the image?'
p3684
tp3685
a(S'angiosperm'
p3686
S'Select the angiosperm represented by the image?'
p3687
tp3688
asS'4295263796.jpg'
p3689
(lp3690
(S'precipitation'
p3691
S'Choose the type of precipitation present in the image?'
p3692
tp3693
a(S'binary compound'
p3694
S'Which binary compound is shown in the image?'
p3695
tp3696
asS'5559471351.jpg'
p3697
(lp3698
(S'consumer goods'
p3699
S'Choose the type of consumer goods present in the image?'
p3700
tp3701
a(S'body covering'
p3702
S'Which body covering is shown in the image?'
p3703
tp3704
asS'4671069535.jpg'
p3705
(lp3706
(S'vacation'
p3707
S'Choose the type of vacation present in the image?'
p3708
tp3709
asS'3037108254.jpg'
p3710
(lp3711
(S'adult'
p3712
S'What type of adult is present in the image?'
p3713
tp3714
a(S'marital status'
p3715
S'Select the marital status represented by the image?'
p3716
tp3717
asS'2335619125.jpg'
p3718
(lp3719
(S'canine'
p3720
S'Choose the type of canine present in the image?'
p3721
tp3722
a(S'dog'
p3723
S'Which dog is shown in the image?'
p3724
tp3725
asS'4899074189.jpg'
p3726
(lp3727
(S'conveyance'
p3728
S'What type of conveyance is present in the image?'
p3729
tp3730
a(S'motor vehicle'
p3731
S'Select the motor vehicle represented by the image?'
p3732
tp3733
asS'4721088452.jpg'
p3734
(lp3735
(S'sign'
p3736
S'Choose the type of sign present in the image?'
p3737
tp3738
a(S'structure'
p3739
S'Which structure is shown in the image?'
p3740
tp3741
asS'5526795355.jpg'
p3742
(lp3743
(S'causal agent'
p3744
S'Choose the type of causal agent present in the image?'
p3745
tp3746
a(S'performer'
p3747
S'Which performer is shown in the image?'
p3748
tp3749
asS'1394368714.jpg'
p3750
(lp3751
(S'dog'
p3752
S'What type of dog is present in the image?'
p3753
tp3754
a(S'canine'
p3755
S'Select the canine represented by the image?'
p3756
tp3757
asS'413045343.jpg'
p3758
(lp3759
(S'gathering'
p3760
S'Choose the type of gathering present in the image?'
p3761
tp3762
a(S'gathering'
p3763
S'Which gathering is shown in the image?'
p3764
tp3765
asS'1562478333.jpg'
p3766
(lp3767
(S'vessel'
p3768
S'Choose the type of vessel present in the image?'
p3769
tp3770
a(S'water travel'
p3771
S'Which water travel is shown in the image?'
p3772
tp3773
asS'517214008.jpg'
p3774
(lp3775
(S'cooking'
p3776
S'What type of cooking is present in the image?'
p3777
tp3778
asS'3242808166.jpg'
p3779
(lp3780
(S'time period'
p3781
S'Choose the type of time period present in the image?'
p3782
tp3783
a(S'precipitation'
p3784
S'Which precipitation is shown in the image?'
p3785
tp3786
asS'342872408.jpg'
p3787
(lp3788
(S'diversion'
p3789
S'What type of diversion is present in the image?'
p3790
tp3791
a(S'natural object'
p3792
S'Select the natural object represented by the image?'
p3793
tp3794
asS'4570406069.jpg'
p3795
(lp3796
(S'consumer goods'
p3797
S'Choose the type of consumer goods present in the image?'
p3798
tp3799
a(S'angiosperm'
p3800
S'Which angiosperm is shown in the image?'
p3801
tp3802
asS'3168796547.jpg'
p3803
(lp3804
(S'substance'
p3805
S'What type of substance is present in the image?'
p3806
tp3807
a(S'ruminant'
p3808
S'Select the ruminant represented by the image?'
p3809
tp3810
asS'2247101794.jpg'
p3811
(lp3812
(S'woody plant'
p3813
S'Choose the type of woody plant present in the image?'
p3814
tp3815
a(S'furnishing'
p3816
S'Which furnishing is shown in the image?'
p3817
tp3818
asS'3708172446.jpg'
p3819
(lp3820
(S'woody plant'
p3821
S'What type of woody plant is present in the image?'
p3822
tp3823
a(S'building'
p3824
S'Select the building represented by the image?'
p3825
tp3826
asS'4380540363.jpg'
p3827
(lp3828
(S'consumer goods'
p3829
S'Choose the type of consumer goods present in the image?'
p3830
tp3831
a(S'trouser'
p3832
S'Which trouser is shown in the image?'
p3833
tp3834
asS'4642869349.jpg'
p3835
(lp3836
(S'art'
p3837
S'What type of art is present in the image?'
p3838
tp3839
a(S'show'
p3840
S'Select the show represented by the image?'
p3841
tp3842
asS'2831394884.jpg'
p3843
(lp3844
(S'juvenile'
p3845
S'What type of juvenile is present in the image?'
p3846
tp3847
a(S'causal agent'
p3848
S'Select the causal agent represented by the image?'
p3849
tp3850
asS'3472066410.jpg'
p3851
(lp3852
(S'footwear'
p3853
S'Choose the type of footwear present in the image?'
p3854
tp3855
a(S'diversion'
p3856
S'Which diversion is shown in the image?'
p3857
tp3858
asS'4509496747.jpg'
p3859
(lp3860
(S'show'
p3861
S'Choose the type of show present in the image?'
p3862
tp3863
a(S'time period'
p3864
S'Which time period is shown in the image?'
p3865
tp3866
asS'2809338182.jpg'
p3867
(lp3868
(S'conveyance'
p3869
S'What type of conveyance is present in the image?'
p3870
tp3871
a(S'golf stroke'
p3872
S'Select the golf stroke represented by the image?'
p3873
tp3874
asS'4329176590.jpg'
p3875
(lp3876
(S'conference'
p3877
S'Choose the type of conference present in the image?'
p3878
tp3879
a(S'basic cognitive process'
p3880
S'Which basic cognitive process is shown in the image?'
p3881
tp3882
asS'281716983.jpg'
p3883
(lp3884
(S'consumer goods'
p3885
S'Choose the type of consumer goods present in the image?'
p3886
tp3887
a(S'chromatic color'
p3888
S'Which chromatic color is shown in the image?'
p3889
tp3890
asS'3499433493.jpg'
p3891
(lp3892
(S'conveyance'
p3893
S'What type of conveyance is present in the image?'
p3894
tp3895
a(S'sport'
p3896
S'Select the sport represented by the image?'
p3897
tp3898
asS'4764087782.jpg'
p3899
(lp3900
(S'traveler'
p3901
S'What type of traveler is present in the image?'
p3902
tp3903
a(S'way'
p3904
S'Select the way represented by the image?'
p3905
tp3906
asS'353313973.jpg'
p3907
(lp3908
(S'contestant'
p3909
S'What type of contestant is present in the image?'
p3910
tp3911
a(S'diversion'
p3912
S'Select the diversion represented by the image?'
p3913
tp3914
asS'4870555690.jpg'
p3915
(lp3916
(S'adult'
p3917
S'Choose the type of adult present in the image?'
p3918
tp3919
a(S'group'
p3920
S'Which group is shown in the image?'
p3921
tp3922
asS'4921075662.jpg'
p3923
(lp3924
(S'woody plant'
p3925
S'Choose the type of woody plant present in the image?'
p3926
tp3927
a(S'field'
p3928
S'Which field is shown in the image?'
p3929
tp3930
asS'6796767853.jpg'
p3931
(lp3932
(S'diversion'
p3933
S'What type of diversion is present in the image?'
p3934
tp3935
a(S'martial art'
p3936
S'Select the martial art represented by the image?'
p3937
tp3938
asS'4813304431.jpg'
p3939
(lp3940
(S'thoroughfare'
p3941
S'Choose the type of thoroughfare present in the image?'
p3942
tp3943
a(S'clue'
p3944
S'Which clue is shown in the image?'
p3945
tp3946
asS'6754889771.jpg'
p3947
(lp3948
(S'soldier'
p3949
S'What type of soldier is present in the image?'
p3950
tp3951
a(S'natural elevation'
p3952
S'Select the natural elevation represented by the image?'
p3953
tp3954
asS'3665421893.jpg'
p3955
(lp3956
(S'causal agent'
p3957
S'What type of causal agent is present in the image?'
p3958
tp3959
a(S'group'
p3960
S'Select the group represented by the image?'
p3961
tp3962
asS'7635753040.jpg'
p3963
(lp3964
(S'diversion'
p3965
S'Choose the type of diversion present in the image?'
p3966
tp3967
a(S'male horse'
p3968
S'Which male horse is shown in the image?'
p3969
tp3970
asS'1663751778.jpg'
p3971
(lp3972
(S'diversion'
p3973
S'What type of diversion is present in the image?'
p3974
tp3975
a(S'rise'
p3976
S'Select the rise represented by the image?'
p3977
tp3978
asS'3742002550.jpg'
p3979
(lp3980
(S'causal agent'
p3981
S'Choose the type of causal agent present in the image?'
p3982
tp3983
a(S'group'
p3984
S'Which group is shown in the image?'
p3985
tp3986
asS'241345942.jpg'
p3987
(lp3988
(S'lineman'
p3989
S'Choose the type of lineman present in the image?'
p3990
tp3991
a(S'contestant'
p3992
S'Which contestant is shown in the image?'
p3993
tp3994
asS'3317960829.jpg'
p3995
(lp3996
(S'consumer goods'
p3997
S'What type of consumer goods is present in the image?'
p3998
tp3999
a(S'attire'
p4000
S'Select the attire represented by the image?'
p4001
tp4002
asS'3342450499.jpg'
p4003
(lp4004
(S'conveyance'
p4005
S'Choose the type of conveyance present in the image?'
p4006
tp4007
a(S'motor vehicle'
p4008
S'Which motor vehicle is shown in the image?'
p4009
tp4010
asS'4603555535.jpg'
p4011
(lp4012
(S'pictorial representation'
p4013
S'What type of pictorial representation is present in the image?'
p4014
tp4015
a(S'creation'
p4016
S'Select the creation represented by the image?'
p4017
tp4018
asS'141755292.jpg'
p4019
(lp4020
(S'nutriment'
p4021
S'What type of nutriment is present in the image?'
p4022
tp4023
a(S'container'
p4024
S'Select the container represented by the image?'
p4025
tp4026
asS'3560503470.jpg'
p4027
(lp4028
(S'wheeled vehicle'
p4029
S'Choose the type of wheeled vehicle present in the image?'
p4030
tp4031
a(S'conveyance'
p4032
S'Which conveyance is shown in the image?'
p4033
tp4034
asS'7627629540.jpg'
p4035
(lp4036
(S'soil'
p4037
S'What type of soil is present in the image?'
p4038
tp4039
a(S'causal agent'
p4040
S'Select the causal agent represented by the image?'
p4041
tp4042
asS'2973638173.jpg'
p4043
(lp4044
(S'diversion'
p4045
S'Choose the type of diversion present in the image?'
p4046
tp4047
a(S'woody plant'
p4048
S'Which woody plant is shown in the image?'
p4049
tp4050
asS'118309463.jpg'
p4051
(lp4052
(S'headdress'
p4053
S'What type of headdress is present in the image?'
p4054
tp4055
a(S'consumer goods'
p4056
S'Select the consumer goods represented by the image?'
p4057
tp4058
asS'4511879942.jpg'
p4059
(lp4060
(S'group'
p4061
S'Choose the type of group present in the image?'
p4062
tp4063
a(S'city district'
p4064
S'Which city district is shown in the image?'
p4065
tp4066
asS'3142687558.jpg'
p4067
(lp4068
(S'consumer goods'
p4069
S'What type of consumer goods is present in the image?'
p4070
tp4071
a(S'show'
p4072
S'Select the show represented by the image?'
p4073
tp4074
asS'5723818088.jpg'
p4075
(lp4076
(S'consumer goods'
p4077
S'Choose the type of consumer goods present in the image?'
p4078
tp4079
a(S'causal agent'
p4080
S'Which causal agent is shown in the image?'
p4081
tp4082
asS'1693115528.jpg'
p4083
(lp4084
(S'transmission'
p4085
S'What type of transmission is present in the image?'
p4086
tp4087
asS'2242559074.jpg'
p4088
(lp4089
(S'conveyance'
p4090
S'Choose the type of conveyance present in the image?'
p4091
tp4092
asS'5075763701.jpg'
p4093
(lp4094
(S'wheeled vehicle'
p4095
S'What type of wheeled vehicle is present in the image?'
p4096
tp4097
a(S'diversion'
p4098
S'Select the diversion represented by the image?'
p4099
tp4100
asS'2723024306.jpg'
p4101
(lp4102
(S'soil'
p4103
S'What type of soil is present in the image?'
p4104
tp4105
a(S'body of water'
p4106
S'Select the body of water represented by the image?'
p4107
tp4108
asS'4858070078.jpg'
p4109
(lp4110
(S'front'
p4111
S'Choose the type of front present in the image?'
p4112
tp4113
a(S'promotion'
p4114
S'Which promotion is shown in the image?'
p4115
tp4116
asS'114939325.jpg'
p4117
(lp4118
(S'diversion'
p4119
S'Choose the type of diversion present in the image?'
p4120
tp4121
a(S'track and field'
p4122
S'Which track and field is shown in the image?'
p4123
tp4124
asS'75375389.jpg'
p4125
(lp4126
(S'municipality'
p4127
S'What type of municipality is present in the image?'
p4128
tp4129
a(S'juvenile'
p4130
S'Select the juvenile represented by the image?'
p4131
tp4132
asS'179656683.jpg'
p4133
(lp4134
(S'adult'
p4135
S'Choose the type of adult present in the image?'
p4136
tp4137
a(S'causal agent'
p4138
S'Which causal agent is shown in the image?'
p4139
tp4140
asS'4808416879.jpg'
p4141
(lp4142
(S'way'
p4143
S'What type of way is present in the image?'
p4144
tp4145
a(S'municipality'
p4146
S'Select the municipality represented by the image?'
p4147
tp4148
asS'2797774642.jpg'
p4149
(lp4150
(S'contestant'
p4151
S'Choose the type of contestant present in the image?'
p4152
tp4153
a(S'causal agent'
p4154
S'Which causal agent is shown in the image?'
p4155
tp4156
asS'4411115360.jpg'
p4157
(lp4158
(S'ceremony'
p4159
S'What type of ceremony is present in the image?'
p4160
tp4161
a(S'conference'
p4162
S'Select the conference represented by the image?'
p4163
tp4164
asS'3467941308.jpg'
p4165
(lp4166
(S'canine'
p4167
S'Choose the type of canine present in the image?'
p4168
tp4169
a(S'chordate'
p4170
S'Which chordate is shown in the image?'
p4171
tp4172
asS'6141981912.jpg'
p4173
(lp4174
(S'diversion'
p4175
S'What type of diversion is present in the image?'
p4176
tp4177
a(S'contestant'
p4178
S'Select the contestant represented by the image?'
p4179
tp4180
asS'1115565519.jpg'
p4181
(lp4182
(S'causal agent'
p4183
S'Choose the type of causal agent present in the image?'
p4184
tp4185
asS'136552115.jpg'
p4186
(lp4187
(S'natural elevation'
p4188
S'What type of natural elevation is present in the image?'
p4189
tp4190
a(S'wheeled vehicle'
p4191
S'Select the wheeled vehicle represented by the image?'
p4192
tp4193
asS'3755945880.jpg'
p4194
(lp4195
(S'building'
p4196
S'Choose the type of building present in the image?'
p4197
tp4198
a(S'outline'
p4199
S'Which outline is shown in the image?'
p4200
tp4201
asS'411863595.jpg'
p4202
(lp4203
(S'tract'
p4204
S'What type of tract is present in the image?'
p4205
tp4206
a(S'biome'
p4207
S'Select the biome represented by the image?'
p4208
tp4209
asS'2430223532.jpg'
p4210
(lp4211
(S'show'
p4212
S'Choose the type of show present in the image?'
p4213
tp4214
a(S'time period'
p4215
S'Which time period is shown in the image?'
p4216
tp4217
asS'7803420092.jpg'
p4218
(lp4219
(S'diversion'
p4220
S'What type of diversion is present in the image?'
p4221
tp4222
a(S'ball game'
p4223
S'Select the ball game represented by the image?'
p4224
tp4225
asS'986127455.jpg'
p4226
(lp4227
(S'art'
p4228
S'What type of art is present in the image?'
p4229
tp4230
asS'21167868.jpg'
p4231
(lp4232
(S'show'
p4233
S'Choose the type of show present in the image?'
p4234
tp4235
a(S'performance'
p4236
S'Which performance is shown in the image?'
p4237
tp4238
asS'3542145123.jpg'
p4239
(lp4240
(S'field'
p4241
S'Choose the type of field present in the image?'
p4242
tp4243
a(S'chromatic color'
p4244
S'Which chromatic color is shown in the image?'
p4245
tp4246
asS'1394756978.jpg'
p4247
(lp4248
(S'traveler'
p4249
S'What type of traveler is present in the image?'
p4250
tp4251
asS'3189448227.jpg'
p4252
(lp4253
(S'nutriment'
p4254
S'Choose the type of nutriment present in the image?'
p4255
tp4256
a(S'education'
p4257
S'Which education is shown in the image?'
p4258
tp4259
asS'2402762193.jpg'
p4260
(lp4261
(S'art'
p4262
S'What type of art is present in the image?'
p4263
tp4264
a(S'causal agent'
p4265
S'Select the causal agent represented by the image?'
p4266
tp4267
asS'4621831701.jpg'
p4268
(lp4269
(S'performer'
p4270
S'Choose the type of performer present in the image?'
p4271
tp4272
a(S'music'
p4273
S'Which music is shown in the image?'
p4274
tp4275
asS'4319178349.jpg'
p4276
(lp4277
(S'diversion'
p4278
S'What type of diversion is present in the image?'
p4279
tp4280
a(S'court game'
p4281
S'Select the court game represented by the image?'
p4282
tp4283
asS'3390808454.jpg'
p4284
(lp4285
(S'diversion'
p4286
S'Choose the type of diversion present in the image?'
p4287
tp4288
asS'1410039760.jpg'
p4289
(lp4290
(S'causal agent'
p4291
S'What type of causal agent is present in the image?'
p4292
tp4293
a(S'speech act'
p4294
S'Select the speech act represented by the image?'
p4295
tp4296
asS'4360907086.jpg'
p4297
(lp4298
(S'diversion'
p4299
S'What type of diversion is present in the image?'
p4300
tp4301
a(S'contestant'
p4302
S'Select the contestant represented by the image?'
p4303
tp4304
asS'3540416981.jpg'
p4305
(lp4306
(S'canine'
p4307
S'What type of canine is present in the image?'
p4308
tp4309
a(S'chordate'
p4310
S'Select the chordate represented by the image?'
p4311
tp4312
asS'3756150099.jpg'
p4313
(lp4314
(S'collage'
p4315
S'What type of collage is present in the image?'
p4316
tp4317
a(S'angiosperm'
p4318
S'Select the angiosperm represented by the image?'
p4319
tp4320
asS'4552731904.jpg'
p4321
(lp4322
(S'container'
p4323
S'Choose the type of container present in the image?'
p4324
tp4325
a(S'group'
p4326
S'Which group is shown in the image?'
p4327
tp4328
asS'3717467586.jpg'
p4329
(lp4330
(S'nutriment'
p4331
S'What type of nutriment is present in the image?'
p4332
tp4333
asS'2496523295.jpg'
p4334
(lp4335
(S'group'
p4336
S'Choose the type of group present in the image?'
p4337
tp4338
a(S'causal agent'
p4339
S'Which causal agent is shown in the image?'
p4340
tp4341
asS'5267607278.jpg'
p4342
(lp4343
(S'juvenile'
p4344
S'What type of juvenile is present in the image?'
p4345
tp4346
asS'2289283018.jpg'
p4347
(lp4348
(S'instrumentality'
p4349
S'Choose the type of instrumentality present in the image?'
p4350
tp4351
a(S'railway'
p4352
S'Which railway is shown in the image?'
p4353
tp4354
asS'269444846.jpg'
p4355
(lp4356
(S'diversion'
p4357
S'Choose the type of diversion present in the image?'
p4358
tp4359
a(S'geological formation'
p4360
S'Which geological formation is shown in the image?'
p4361
tp4362
asS'4930823945.jpg'
p4363
(lp4364
(S'conveyance'
p4365
S'What type of conveyance is present in the image?'
p4366
tp4367
a(S'cattle'
p4368
S'Select the cattle represented by the image?'
p4369
tp4370
asS'4946045875.jpg'
p4371
(lp4372
(S'juvenile'
p4373
S'Choose the type of juvenile present in the image?'
p4374
tp4375
a(S'dramatic composition'
p4376
S'Which dramatic composition is shown in the image?'
p4377
tp4378
asS'4982173955.jpg'
p4379
(lp4380
(S'leisure'
p4381
S'What type of leisure is present in the image?'
p4382
tp4383
a(S'causal agent'
p4384
S'Select the causal agent represented by the image?'
p4385
tp4386
asS'4405699723.jpg'
p4387
(lp4388
(S'conveyance'
p4389
S'What type of conveyance is present in the image?'
p4390
tp4391
a(S'solid'
p4392
S'Select the solid represented by the image?'
p4393
tp4394
asS'120545123.jpg'
p4395
(lp4396
(S'diversion'
p4397
S'Choose the type of diversion present in the image?'
p4398
tp4399
a(S'causal agent'
p4400
S'Which causal agent is shown in the image?'
p4401
tp4402
asS'4466251271.jpg'
p4403
(lp4404
(S'group'
p4405
S'Choose the type of group present in the image?'
p4406
tp4407
a(S'gathering'
p4408
S'Which gathering is shown in the image?'
p4409
tp4410
asS'2619454551.jpg'
p4411
(lp4412
(S'vertebrate'
p4413
S'Choose the type of vertebrate present in the image?'
p4414
tp4415
a(S'gallinaceous bird'
p4416
S'Which gallinaceous bird is shown in the image?'
p4417
tp4418
asS'3601533527.jpg'
p4419
(lp4420
(S'consumer goods'
p4421
S'What type of consumer goods is present in the image?'
p4422
tp4423
a(S'achromatic color'
p4424
S'Select the achromatic color represented by the image?'
p4425
tp4426
asS'3827298104.jpg'
p4427
(lp4428
(S'region'
p4429
S'What type of region is present in the image?'
p4430
tp4431
a(S'partition'
p4432
S'Select the partition represented by the image?'
p4433
tp4434
asS'2198511848.jpg'
p4435
(lp4436
(S'diversion'
p4437
S'What type of diversion is present in the image?'
p4438
tp4439
a(S'precipitation'
p4440
S'Select the precipitation represented by the image?'
p4441
tp4442
asS'111766423.jpg'
p4443
(lp4444
(S'mouth'
p4445
S'Choose the type of mouth present in the image?'
p4446
tp4447
a(S'vertebrate'
p4448
S'Which vertebrate is shown in the image?'
p4449
tp4450
asS'4879725156.jpg'
p4451
(lp4452
(S'consumer goods'
p4453
S'Choose the type of consumer goods present in the image?'
p4454
tp4455
a(S'attire'
p4456
S'Which attire is shown in the image?'
p4457
tp4458
asS'685711383.jpg'
p4459
(lp4460
(S'adult'
p4461
S'Choose the type of adult present in the image?'
p4462
tp4463
a(S'contestant'
p4464
S'Which contestant is shown in the image?'
p4465
tp4466
asS'8240968816.jpg'
p4467
(lp4468
(S'diversion'
p4469
S'Choose the type of diversion present in the image?'
p4470
tp4471
a(S'body of water'
p4472
S'Which body of water is shown in the image?'
p4473
tp4474
asS'3716283232.jpg'
p4475
(lp4476
(S'contestant'
p4477
S'What type of contestant is present in the image?'
p4478
tp4479
a(S'athlete'
p4480
S'Select the athlete represented by the image?'
p4481
tp4482
asS'413588617.jpg'
p4483
(lp4484
(S'season'
p4485
S'Choose the type of season present in the image?'
p4486
tp4487
a(S'diversion'
p4488
S'Which diversion is shown in the image?'
p4489
tp4490
asS'3367053761.jpg'
p4491
(lp4492
(S'room'
p4493
S'Choose the type of room present in the image?'
p4494
tp4495
a(S'procurator'
p4496
S'Which procurator is shown in the image?'
p4497
tp4498
asS'2105320784.jpg'
p4499
(lp4500
(S'instrumentality'
p4501
S'What type of instrumentality is present in the image?'
p4502
tp4503
a(S'conveyance'
p4504
S'Select the conveyance represented by the image?'
p4505
tp4506
asS'2937248015.jpg'
p4507
(lp4508
(S'conveyance'
p4509
S'Choose the type of conveyance present in the image?'
p4510
tp4511
a(S'building'
p4512
S'Which building is shown in the image?'
p4513
tp4514
asS'1246863003.jpg'
p4515
(lp4516
(S'container'
p4517
S'Choose the type of container present in the image?'
p4518
tp4519
a(S'nutriment'
p4520
S'Which nutriment is shown in the image?'
p4521
tp4522
asS'2523934341.jpg'
p4523
(lp4524
(S'way'
p4525
S'What type of way is present in the image?'
p4526
tp4527
a(S'municipality'
p4528
S'Select the municipality represented by the image?'
p4529
tp4530
asS'3514055630.jpg'
p4531
(lp4532
(S'education'
p4533
S'What type of education is present in the image?'
p4534
tp4535
a(S'collection'
p4536
S'Select the collection represented by the image?'
p4537
tp4538
asS'3518687038.jpg'
p4539
(lp4540
(S'diversion'
p4541
S'What type of diversion is present in the image?'
p4542
tp4543
a(S'orthopterous insect'
p4544
S'Select the orthopterous insect represented by the image?'
p4545
tp4546
asS'140407961.jpg'
p4547
(lp4548
(S'object'
p4549
S'Choose the type of object present in the image?'
p4550
tp4551
a(S'wheeled vehicle'
p4552
S'Which wheeled vehicle is shown in the image?'
p4553
tp4554
asS'4571649296.jpg'
p4555
(lp4556
(S'group'
p4557
S'What type of group is present in the image?'
p4558
tp4559
asS'4814948954.jpg'
p4560
(lp4561
(S'dancer'
p4562
S'Choose the type of dancer present in the image?'
p4563
tp4564
a(S'attire'
p4565
S'Which attire is shown in the image?'
p4566
tp4567
asS'5640452539.jpg'
p4568
(lp4569
(S'creation'
p4570
S'Choose the type of creation present in the image?'
p4571
tp4572
a(S'time period'
p4573
S'Which time period is shown in the image?'
p4574
tp4575
asS'2338968043.jpg'
p4576
(lp4577
(S'disfavor'
p4578
S'What type of disfavor is present in the image?'
p4579
tp4580
a(S'group'
p4581
S'Select the group represented by the image?'
p4582
tp4583
asS'2449289139.jpg'
p4584
(lp4585
(S'quality'
p4586
S'What type of quality is present in the image?'
p4587
tp4588
a(S'season'
p4589
S'Select the season represented by the image?'
p4590
tp4591
asS'4367617589.jpg'
p4592
(lp4593
(S'meeting'
p4594
S'Choose the type of meeting present in the image?'
p4595
tp4596
a(S'group'
p4597
S'Which group is shown in the image?'
p4598
tp4599
asS'7108301125.jpg'
p4600
(lp4601
(S'diversion'
p4602
S'What type of diversion is present in the image?'
p4603
tp4604
asS'1356627150.jpg'
p4605
(lp4606
(S'binary compound'
p4607
S'What type of binary compound is present in the image?'
p4608
tp4609
a(S'season'
p4610
S'Select the season represented by the image?'
p4611
tp4612
asS'3021024000.jpg'
p4613
(lp4614
(S'performer'
p4615
S'Choose the type of performer present in the image?'
p4616
tp4617
a(S'musical organization'
p4618
S'Which musical organization is shown in the image?'
p4619
tp4620
asS'2642474867.jpg'
p4621
(lp4622
(S'facial expression'
p4623
S'Choose the type of facial expression present in the image?'
p4624
tp4625
a(S'causal agent'
p4626
S'Which causal agent is shown in the image?'
p4627
tp4628
asS'4747939650.jpg'
p4629
(lp4630
(S'object'
p4631
S'What type of object is present in the image?'
p4632
tp4633
a(S'comfort'
p4634
S'Select the comfort represented by the image?'
p4635
tp4636
asS'7773991560.jpg'
p4637
(lp4638
(S'diversion'
p4639
S'What type of diversion is present in the image?'
p4640
tp4641
a(S'activity'
p4642
S'Select the activity represented by the image?'
p4643
tp4644
asS'4481546417.jpg'
p4645
(lp4646
(S'painting'
p4647
S'What type of painting is present in the image?'
p4648
tp4649
a(S'section'
p4650
S'Select the section represented by the image?'
p4651
tp4652
asS'1461329041.jpg'
p4653
(lp4654
(S'conveyance'
p4655
S'Choose the type of conveyance present in the image?'
p4656
tp4657
a(S'diversion'
p4658
S'Which diversion is shown in the image?'
p4659
tp4660
asS'3548358879.jpg'
p4661
(lp4662
(S'fire iron'
p4663
S'What type of fire iron is present in the image?'
p4664
tp4665
a(S'diversion'
p4666
S'Select the diversion represented by the image?'
p4667
tp4668
asS'1295476404.jpg'
p4669
(lp4670
(S'chordophone'
p4671
S'Choose the type of chordophone present in the image?'
p4672
tp4673
a(S'stringed instrument'
p4674
S'Which stringed instrument is shown in the image?'
p4675
tp4676
asS'4208402957.jpg'
p4677
(lp4678
(S'conveyance'
p4679
S'Choose the type of conveyance present in the image?'
p4680
tp4681
a(S'time period'
p4682
S'Which time period is shown in the image?'
p4683
tp4684
asS'1304961697.jpg'
p4685
(lp4686
(S'diversion'
p4687
S'What type of diversion is present in the image?'
p4688
tp4689
asS'3631810528.jpg'
p4690
(lp4691
(S'instrumentality'
p4692
S'Choose the type of instrumentality present in the image?'
p4693
tp4694
a(S'conveyance'
p4695
S'Which conveyance is shown in the image?'
p4696
tp4697
asS'3884461163.jpg'
p4698
(lp4699
(S'soil'
p4700
S'Choose the type of soil present in the image?'
p4701
tp4702
a(S'verbal creation'
p4703
S'Which verbal creation is shown in the image?'
p4704
tp4705
asS'3473345355.jpg'
p4706
(lp4707
(S'time period'
p4708
S'What type of time period is present in the image?'
p4709
tp4710
asS'3077760473.jpg'
p4711
(lp4712
(S'way'
p4713
S'Choose the type of way present in the image?'
p4714
tp4715
a(S'section'
p4716
S'Which section is shown in the image?'
p4717
tp4718
asS'3024022266.jpg'
p4719
(lp4720
(S'water sport'
p4721
S'What type of water sport is present in the image?'
p4722
tp4723
a(S'diversion'
p4724
S'Select the diversion represented by the image?'
p4725
tp4726
asS'6820458661.jpg'
p4727
(lp4728
(S'juvenile'
p4729
S'Choose the type of juvenile present in the image?'
p4730
tp4731
a(S'causal agent'
p4732
S'Which causal agent is shown in the image?'
p4733
tp4734
asS'7286653258.jpg'
p4735
(lp4736
(S'bowed stringed instrument'
p4737
S'What type of bowed stringed instrument is present in the image?'
p4738
tp4739
a(S'show'
p4740
S'Select the show represented by the image?'
p4741
tp4742
asS'2441817857.jpg'
p4743
(lp4744
(S'outbuilding'
p4745
S'Choose the type of outbuilding present in the image?'
p4746
tp4747
a(S'building'
p4748
S'Which building is shown in the image?'
p4749
tp4750
asS'3498192512.jpg'
p4751
(lp4752
(S'gathering'
p4753
S'Choose the type of gathering present in the image?'
p4754
tp4755
a(S'group'
p4756
S'Which group is shown in the image?'
p4757
tp4758
asS'6620094641.jpg'
p4759
(lp4760
(S'diversion'
p4761
S'What type of diversion is present in the image?'
p4762
tp4763
a(S'contestant'
p4764
S'Select the contestant represented by the image?'
p4765
tp4766
asS'5829317322.jpg'
p4767
(lp4768
(S'diversion'
p4769
S'Choose the type of diversion present in the image?'
p4770
tp4771
a(S'creation'
p4772
S'Which creation is shown in the image?'
p4773
tp4774
asS'3401902253.jpg'
p4775
(lp4776
(S'canine'
p4777
S'What type of canine is present in the image?'
p4778
tp4779
a(S'chordate'
p4780
S'Select the chordate represented by the image?'
p4781
tp4782
asS'2430018178.jpg'
p4783
(lp4784
(S'show'
p4785
S'Choose the type of show present in the image?'
p4786
tp4787
a(S'performance'
p4788
S'Which performance is shown in the image?'
p4789
tp4790
asS'51565199.jpg'
p4791
(lp4792
(S'water travel'
p4793
S'Choose the type of water travel present in the image?'
p4794
tp4795
a(S'conveyance'
p4796
S'Which conveyance is shown in the image?'
p4797
tp4798
asS'3651107058.jpg'
p4799
(lp4800
(S'diversion'
p4801
S'What type of diversion is present in the image?'
p4802
tp4803
asS'4870786783.jpg'
p4804
(lp4805
(S'municipality'
p4806
S'Choose the type of municipality present in the image?'
p4807
tp4808
a(S'residential district'
p4809
S'Which residential district is shown in the image?'
p4810
tp4811
asS'4475333077.jpg'
p4812
(lp4813
(S'way'
p4814
S'Choose the type of way present in the image?'
p4815
tp4816
a(S'collection'
p4817
S'Which collection is shown in the image?'
p4818
tp4819
asS'7715662052.jpg'
p4820
(lp4821
(S'diversion'
p4822
S'What type of diversion is present in the image?'
p4823
tp4824
a(S'contestant'
p4825
S'Select the contestant represented by the image?'
p4826
tp4827
asS'7157359077.jpg'
p4828
(lp4829
(S'diversion'
p4830
S'What type of diversion is present in the image?'
p4831
tp4832
a(S'pool'
p4833
S'Select the pool represented by the image?'
p4834
tp4835
asS'2540757246.jpg'
p4836
(lp4837
(S'boat'
p4838
S'Choose the type of boat present in the image?'
p4839
tp4840
a(S'conveyance'
p4841
S'Which conveyance is shown in the image?'
p4842
tp4843
asS'3863819063.jpg'
p4844
(lp4845
(S'conveyance'
p4846
S'What type of conveyance is present in the image?'
p4847
tp4848
a(S'vessel'
p4849
S'Select the vessel represented by the image?'
p4850
tp4851
asS'2438754748.jpg'
p4852
(lp4853
(S'adult'
p4854
S'Choose the type of adult present in the image?'
p4855
tp4856
a(S'adult'
p4857
S'Which adult is shown in the image?'
p4858
tp4859
asS'5301071699.jpg'
p4860
(lp4861
(S'nutriment'
p4862
S'Choose the type of nutriment present in the image?'
p4863
tp4864
a(S'container'
p4865
S'Which container is shown in the image?'
p4866
tp4867
asS'3698928883.jpg'
p4868
(lp4869
(S'instrumentality'
p4870
S'What type of instrumentality is present in the image?'
p4871
tp4872
a(S'outbuilding'
p4873
S'Select the outbuilding represented by the image?'
p4874
tp4875
asS'118939861.jpg'
p4876
(lp4877
sS'3157039116.jpg'
p4878
(lp4879
(S'land'
p4880
S'Choose the type of land present in the image?'
p4881
tp4882
a(S'natural elevation'
p4883
S'Which natural elevation is shown in the image?'
p4884
tp4885
asS'2204277704.jpg'
p4886
(lp4887
(S'motion'
p4888
S'What type of motion is present in the image?'
p4889
tp4890
a(S'furnishing'
p4891
S'Select the furnishing represented by the image?'
p4892
tp4893
asS'3202213467.jpg'
p4894
(lp4895
(S'nutriment'
p4896
S'What type of nutriment is present in the image?'
p4897
tp4898
a(S'container'
p4899
S'Select the container represented by the image?'
p4900
tp4901
asS'2118681002.jpg'
p4902
(lp4903
(S'track and field'
p4904
S'Choose the type of track and field present in the image?'
p4905
tp4906
a(S'fragment'
p4907
S'Which fragment is shown in the image?'
p4908
tp4909
asS'4611790729.jpg'
p4910
(lp4911
(S'way'
p4912
S'What type of way is present in the image?'
p4913
tp4914
a(S'way'
p4915
S'Select the way represented by the image?'
p4916
tp4917
asS'3182996527.jpg'
p4918
(lp4919
(S'wheeled vehicle'
p4920
S'What type of wheeled vehicle is present in the image?'
p4921
tp4922
a(S'decoration'
p4923
S'Select the decoration represented by the image?'
p4924
tp4925
asS'2528521798.jpg'
p4926
(lp4927
(S'conveyance'
p4928
S'What type of conveyance is present in the image?'
p4929
tp4930
a(S'motor vehicle'
p4931
S'Select the motor vehicle represented by the image?'
p4932
tp4933
asS'4633636089.jpg'
p4934
(lp4935
(S'wheeled vehicle'
p4936
S'Choose the type of wheeled vehicle present in the image?'
p4937
tp4938
asS'374103842.jpg'
p4939
(lp4940
(S'creation'
p4941
S'What type of creation is present in the image?'
p4942
tp4943
asS'7109928015.jpg'
p4944
(lp4945
(S'diversion'
p4946
S'What type of diversion is present in the image?'
p4947
tp4948
a(S'activity'
p4949
S'Select the activity represented by the image?'
p4950
tp4951
asS'351876121.jpg'
p4952
(lp4953
(S'canine'
p4954
S'Choose the type of canine present in the image?'
p4955
tp4956
a(S'chordate'
p4957
S'Which chordate is shown in the image?'
p4958
tp4959
asS'1679617928.jpg'
p4960
(lp4961
(S'conveyance'
p4962
S'What type of conveyance is present in the image?'
p4963
tp4964
a(S'formation'
p4965
S'Select the formation represented by the image?'
p4966
tp4967
asS'4941360966.jpg'
p4968
(lp4969
(S'position'
p4970
S'Choose the type of position present in the image?'
p4971
tp4972
a(S'public square'
p4973
S'Which public square is shown in the image?'
p4974
tp4975
asS'463476205.jpg'
p4976
(lp4977
(S'way'
p4978
S'Choose the type of way present in the image?'
p4979
tp4980
a(S'conveyance'
p4981
S'Which conveyance is shown in the image?'
p4982
tp4983
asS'2483666380.jpg'
p4984
(lp4985
(S'dramatic composition'
p4986
S'What type of dramatic composition is present in the image?'
p4987
tp4988
a(S'gathering'
p4989
S'Select the gathering represented by the image?'
p4990
tp4991
asS'6638041153.jpg'
p4992
(lp4993
(S'court game'
p4994
S'What type of court game is present in the image?'
p4995
tp4996
a(S'diversion'
p4997
S'Select the diversion represented by the image?'
p4998
tp4999
asS'3957074517.jpg'
p5000
(lp5001
(S'group'
p5002
S'Choose the type of group present in the image?'
p5003
tp5004
a(S'track and field'
p5005
S'Which track and field is shown in the image?'
p5006
tp5007
asS'6214063093.jpg'
p5008
(lp5009
(S'performer'
p5010
S'Choose the type of performer present in the image?'
p5011
tp5012
a(S'performance'
p5013
S'Which performance is shown in the image?'
p5014
tp5015
asS'2773474615.jpg'
p5016
(lp5017
(S'partition'
p5018
S'What type of partition is present in the image?'
p5019
tp5020
asS'1616220830.jpg'
p5021
(lp5022
(S'signboard'
p5023
S'What type of signboard is present in the image?'
p5024
tp5025
a(S'promotion'
p5026
S'Select the promotion represented by the image?'
p5027
tp5028
asS'431168725.jpg'
p5029
(lp5030
(S'room'
p5031
S'Choose the type of room present in the image?'
p5032
tp5033
a(S'collection'
p5034
S'Which collection is shown in the image?'
p5035
tp5036
asS'3512747808.jpg'
p5037
(lp5038
(S'nutriment'
p5039
S'What type of nutriment is present in the image?'
p5040
tp5041
asS'6042855086.jpg'
p5042
(lp5043
(S'diversion'
p5044
S'What type of diversion is present in the image?'
p5045
tp5046
a(S'conveyance'
p5047
S'Select the conveyance represented by the image?'
p5048
tp5049
asS'466176275.jpg'
p5050
(lp5051
(S'equine'
p5052
S'Choose the type of equine present in the image?'
p5053
tp5054
a(S'canine'
p5055
S'Which canine is shown in the image?'
p5056
tp5057
asS'4567455846.jpg'
p5058
(lp5059
(S'bowed stringed instrument'
p5060
S'What type of bowed stringed instrument is present in the image?'
p5061
tp5062
a(S'musician'
p5063
S'Select the musician represented by the image?'
p5064
tp5065
asS'472661386.jpg'
p5066
(lp5067
(S'juvenile'
p5068
S'What type of juvenile is present in the image?'
p5069
tp5070
a(S'education'
p5071
S'Select the education represented by the image?'
p5072
tp5073
asS'2944553914.jpg'
p5074
(lp5075
(S'preschool'
p5076
S'What type of preschool is present in the image?'
p5077
tp5078
asS'2033696343.jpg'
p5079
(lp5080
(S'container'
p5081
S'What type of container is present in the image?'
p5082
tp5083
a(S'enterprise'
p5084
S'Select the enterprise represented by the image?'
p5085
tp5086
asS'3311724634.jpg'
p5087
(lp5088
(S'causal agent'
p5089
S'Choose the type of causal agent present in the image?'
p5090
tp5091
a(S'creation'
p5092
S'Which creation is shown in the image?'
p5093
tp5094
asS'7184997356.jpg'
p5095
(lp5096
(S'causal agent'
p5097
S'Choose the type of causal agent present in the image?'
p5098
tp5099
a(S'group'
p5100
S'Which group is shown in the image?'
p5101
tp5102
asS'3294209955.jpg'
p5103
(lp5104
(S'canine'
p5105
S'What type of canine is present in the image?'
p5106
tp5107
asS'3023927196.jpg'
p5108
(lp5109
(g361
S'Choose the type of other present in the image?'
p5110
tp5111
a(S'body of water'
p5112
S'Which body of water is shown in the image?'
p5113
tp5114
asS'437057062.jpg'
p5115
(lp5116
(S'dramatic composition'
p5117
S'What type of dramatic composition is present in the image?'
p5118
tp5119
a(S'dirtiness'
p5120
S'Select the dirtiness represented by the image?'
p5121
tp5122
asS'3474985112.jpg'
p5123
(lp5124
(S'diversion'
p5125
S'Choose the type of diversion present in the image?'
p5126
tp5127
asS'4579972123.jpg'
p5128
(lp5129
(S'way'
p5130
S'What type of way is present in the image?'
p5131
tp5132
a(S'chromatic color'
p5133
S'Select the chromatic color represented by the image?'
p5134
tp5135
asS'4682929932.jpg'
p5136
(lp5137
(S'time period'
p5138
S'What type of time period is present in the image?'
p5139
tp5140
asS'127449574.jpg'
p5141
(lp5142
(S'barrier'
p5143
S'What type of barrier is present in the image?'
p5144
tp5145
asS'4827151208.jpg'
p5146
(lp5147
(S'commercial enterprise'
p5148
S'What type of commercial enterprise is present in the image?'
p5149
tp5150
a(S'building'
p5151
S'Select the building represented by the image?'
p5152
tp5153
asS'3603301825.jpg'
p5154
(lp5155
(S'diversion'
p5156
S'What type of diversion is present in the image?'
p5157
tp5158
a(S'contestant'
p5159
S'Select the contestant represented by the image?'
p5160
tp5161
asS'835415474.jpg'
p5162
(lp5163
(S'consumer goods'
p5164
S'Choose the type of consumer goods present in the image?'
p5165
tp5166
a(S'chromatic color'
p5167
S'Which chromatic color is shown in the image?'
p5168
tp5169
asS'2360310311.jpg'
p5170
(lp5171
(S'instrumentality'
p5172
S'Choose the type of instrumentality present in the image?'
p5173
tp5174
asS'3620764461.jpg'
p5175
(lp5176
(S'dramatic composition'
p5177
S'Choose the type of dramatic composition present in the image?'
p5178
tp5179
a(S'juvenile'
p5180
S'Which juvenile is shown in the image?'
p5181
tp5182
asS'4545180999.jpg'
p5183
(lp5184
(S'consumer goods'
p5185
S'What type of consumer goods is present in the image?'
p5186
tp5187
a(S'attire'
p5188
S'Select the attire represented by the image?'
p5189
tp5190
asS'2090387793.jpg'
p5191
(lp5192
(S'consumer goods'
p5193
S'What type of consumer goods is present in the image?'
p5194
tp5195
a(S'contestant'
p5196
S'Select the contestant represented by the image?'
p5197
tp5198
asS'4653258614.jpg'
p5199
(lp5200
(S'causal agent'
p5201
S'What type of causal agent is present in the image?'
p5202
tp5203
a(S'occupational group'
p5204
S'Select the occupational group represented by the image?'
p5205
tp5206
asS'2394275528.jpg'
p5207
(lp5208
(S'life'
p5209
S'What type of life is present in the image?'
p5210
tp5211
a(S'descend'
p5212
S'Select the descend represented by the image?'
p5213
tp5214
asS'3453544202.jpg'
p5215
(lp5216
(S'diversion'
p5217
S'What type of diversion is present in the image?'
p5218
tp5219
a(S'cycling'
p5220
S'Select the cycling represented by the image?'
p5221
tp5222
asS'6925158300.jpg'
p5223
(lp5224
(S'show'
p5225
S'What type of show is present in the image?'
p5226
tp5227
a(S'causal agent'
p5228
S'Select the causal agent represented by the image?'
p5229
tp5230
asS'3331009729.jpg'
p5231
(lp5232
(S'consumer goods'
p5233
S'Choose the type of consumer goods present in the image?'
p5234
tp5235
a(S'clothing'
p5236
S'Which clothing is shown in the image?'
p5237
tp5238
asS'3786279352.jpg'
p5239
(lp5240
(S'body covering'
p5241
S'What type of body covering is present in the image?'
p5242
tp5243
a(S'hair'
p5244
S'Select the hair represented by the image?'
p5245
tp5246
asS'458761952.jpg'
p5247
(lp5248
(S'consumer goods'
p5249
S'What type of consumer goods is present in the image?'
p5250
tp5251
a(S'chromatic color'
p5252
S'Select the chromatic color represented by the image?'
p5253
tp5254
asS'2164363131.jpg'
p5255
(lp5256
(S'canine'
p5257
S'Choose the type of canine present in the image?'
p5258
tp5259
a(S'vertebrate'
p5260
S'Which vertebrate is shown in the image?'
p5261
tp5262
asS'4734949227.jpg'
p5263
(lp5264
(S'collage'
p5265
S'What type of collage is present in the image?'
p5266
tp5267
asS'102575576.jpg'
p5268
(lp5269
(S'adult'
p5270
S'What type of adult is present in the image?'
p5271
tp5272
a(S'newlywed'
p5273
S'Select the newlywed represented by the image?'
p5274
tp5275
asS'4920617810.jpg'
p5276
(lp5277
(S'body covering'
p5278
S'Choose the type of body covering present in the image?'
p5279
tp5280
a(S'hair'
p5281
S'Which hair is shown in the image?'
p5282
tp5283
asS'294443417.jpg'
p5284
(lp5285
(S'precipitation'
p5286
S'Choose the type of precipitation present in the image?'
p5287
tp5288
a(S'conveyance'
p5289
S'Which conveyance is shown in the image?'
p5290
tp5291
asS'7669392800.jpg'
p5292
(lp5293
(S'diversion'
p5294
S'Choose the type of diversion present in the image?'
p5295
tp5296
asS'3635915412.jpg'
p5297
(lp5298
(S'diversion'
p5299
S'Choose the type of diversion present in the image?'
p5300
tp5301
a(S'gramineous plant'
p5302
S'Which gramineous plant is shown in the image?'
p5303
tp5304
asS'2887939135.jpg'
p5305
(lp5306
(S'group'
p5307
S'Choose the type of group present in the image?'
p5308
tp5309
a(S'building'
p5310
S'Which building is shown in the image?'
p5311
tp5312
asS'291565639.jpg'
p5313
(lp5314
(S'nutriment'
p5315
S'What type of nutriment is present in the image?'
p5316
tp5317
a(S'dramatic composition'
p5318
S'Select the dramatic composition represented by the image?'
p5319
tp5320
asS'3544416931.jpg'
p5321
(lp5322
(S'consumer goods'
p5323
S'Choose the type of consumer goods present in the image?'
p5324
tp5325
a(S'property'
p5326
S'Which property is shown in the image?'
p5327
tp5328
asS'3747197096.jpg'
p5329
(lp5330
(S'group'
p5331
S'What type of group is present in the image?'
p5332
tp5333
a(S'gathering'
p5334
S'Select the gathering represented by the image?'
p5335
tp5336
asS'1496289999.jpg'
p5337
(lp5338
(S'rock'
p5339
S'Choose the type of rock present in the image?'
p5340
tp5341
a(S'climb'
p5342
S'Which climb is shown in the image?'
p5343
tp5344
asS'6970752746.jpg'
p5345
(lp5346
(S'diversion'
p5347
S'Choose the type of diversion present in the image?'
p5348
tp5349
a(S'dramatic composition'
p5350
S'Which dramatic composition is shown in the image?'
p5351
tp5352
asS'5046329939.jpg'
p5353
(lp5354
(S'leisure'
p5355
S'What type of leisure is present in the image?'
p5356
tp5357
a(S'group'
p5358
S'Select the group represented by the image?'
p5359
tp5360
asS'4302245124.jpg'
p5361
(lp5362
(S'diversion'
p5363
S'Choose the type of diversion present in the image?'
p5364
tp5365
a(S'hypothesis'
p5366
S'Which hypothesis is shown in the image?'
p5367
tp5368
asS'3856921828.jpg'
p5369
(lp5370
(S'nutriment'
p5371
S'What type of nutriment is present in the image?'
p5372
tp5373
a(S'building'
p5374
S'Select the building represented by the image?'
p5375
tp5376
asS'179172576.jpg'
p5377
(lp5378
(S'force'
p5379
S'Choose the type of force present in the image?'
p5380
tp5381
a(S'consumer goods'
p5382
S'Which consumer goods is shown in the image?'
p5383
tp5384
asS'2515372403.jpg'
p5385
(lp5386
(S'diversion'
p5387
S'What type of diversion is present in the image?'
p5388
tp5389
a(S'vessel'
p5390
S'Select the vessel represented by the image?'
p5391
tp5392
asS'7814014742.jpg'
p5393
(lp5394
(S'diversion'
p5395
S'What type of diversion is present in the image?'
p5396
tp5397
asS'3582066525.jpg'
p5398
(lp5399
(S'body of water'
p5400
S'Choose the type of body of water present in the image?'
p5401
tp5402
a(S'diversion'
p5403
S'Which diversion is shown in the image?'
p5404
tp5405
asS'3532782283.jpg'
p5406
(lp5407
(S'soft-finned fish'
p5408
S'What type of soft-finned fish is present in the image?'
p5409
tp5410
asS'3040051410.jpg'
p5411
(lp5412
(S'causal agent'
p5413
S'Choose the type of causal agent present in the image?'
p5414
tp5415
a(S'group'
p5416
S'Which group is shown in the image?'
p5417
tp5418
asS'180312736.jpg'
p5419
(lp5420
(S'juvenile'
p5421
S'Choose the type of juvenile present in the image?'
p5422
tp5423
a(S'dramatic composition'
p5424
S'Which dramatic composition is shown in the image?'
p5425
tp5426
asS'4948403203.jpg'
p5427
(lp5428
(S'geological formation'
p5429
S'What type of geological formation is present in the image?'
p5430
tp5431
a(S'leisure'
p5432
S'Select the leisure represented by the image?'
p5433
tp5434
asS'1393707375.jpg'
p5435
(lp5436
(S'brome'
p5437
S'Choose the type of brome present in the image?'
p5438
tp5439
a(S'activity'
p5440
S'Which activity is shown in the image?'
p5441
tp5442
asS'301655083.jpg'
p5443
(lp5444
(S'causal agent'
p5445
S'Choose the type of causal agent present in the image?'
p5446
tp5447
a(S'boat'
p5448
S'Which boat is shown in the image?'
p5449
tp5450
asS'3689407371.jpg'
p5451
(lp5452
sS'5373606679.jpg'
p5453
(lp5454
(S'creation'
p5455
S'Choose the type of creation present in the image?'
p5456
tp5457
a(S'performer'
p5458
S'Which performer is shown in the image?'
p5459
tp5460
asS'2941677396.jpg'
p5461
(lp5462
(S'contestant'
p5463
S'Choose the type of contestant present in the image?'
p5464
tp5465
a(S'diversion'
p5466
S'Which diversion is shown in the image?'
p5467
tp5468
asS'4855663504.jpg'
p5469
(lp5470
(S'pictorial representation'
p5471
S'What type of pictorial representation is present in the image?'
p5472
tp5473
a(S'creation'
p5474
S'Select the creation represented by the image?'
p5475
tp5476
asS'390987167.jpg'
p5477
(lp5478
(S'precipitation'
p5479
S'What type of precipitation is present in the image?'
p5480
tp5481
asS'1901514112.jpg'
p5482
(lp5483
(S'instrumentality'
p5484
S'What type of instrumentality is present in the image?'
p5485
tp5486
a(S'public transport'
p5487
S'Select the public transport represented by the image?'
p5488
tp5489
asS'4892890793.jpg'
p5490
(lp5491
(S'meal'
p5492
S'What type of meal is present in the image?'
p5493
tp5494
asS'270816949.jpg'
p5495
(lp5496
(S'geological formation'
p5497
S'What type of geological formation is present in the image?'
p5498
tp5499
a(S'plain'
p5500
S'Select the plain represented by the image?'
p5501
tp5502
asS'1167662968.jpg'
p5503
(lp5504
(S'adult'
p5505
S'Choose the type of adult present in the image?'
p5506
tp5507
asS'2690960083.jpg'
p5508
(lp5509
(S'hypothesis'
p5510
S'What type of hypothesis is present in the image?'
p5511
tp5512
a(S'adult'
p5513
S'Select the adult represented by the image?'
p5514
tp5515
asS'2720215226.jpg'
p5516
(lp5517
(S'mammal family'
p5518
S'What type of mammal family is present in the image?'
p5519
tp5520
a(S'hunting dog'
p5521
S'Select the hunting dog represented by the image?'
p5522
tp5523
asS'3495546122.jpg'
p5524
(lp5525
(S'municipality'
p5526
S'Choose the type of municipality present in the image?'
p5527
tp5528
a(S'section'
p5529
S'Which section is shown in the image?'
p5530
tp5531
asS'3320032226.jpg'
p5532
(lp5533
(S'precipitation'
p5534
S'Choose the type of precipitation present in the image?'
p5535
tp5536
a(S'season'
p5537
S'Which season is shown in the image?'
p5538
tp5539
asS'133267753.jpg'
p5540
(lp5541
(S'group'
p5542
S'What type of group is present in the image?'
p5543
tp5544
asS'3023339840.jpg'
p5545
(lp5546
(S'group'
p5547
S'What type of group is present in the image?'
p5548
tp5549
asS'420900246.jpg'
p5550
(lp5551
(S'leisure'
p5552
S'Choose the type of leisure present in the image?'
p5553
tp5554
a(S'body of water'
p5555
S'Which body of water is shown in the image?'
p5556
tp5557
asS'2751721665.jpg'
p5558
(lp5559
(S'yard'
p5560
S'What type of yard is present in the image?'
p5561
tp5562
asS'6386880789.jpg'
p5563
(lp5564
(S'athlete'
p5565
S'Choose the type of athlete present in the image?'
p5566
tp5567
a(S'woman'
p5568
S'Which woman is shown in the image?'
p5569
tp5570
asS'3005979237.jpg'
p5571
(lp5572
(S'show'
p5573
S'Choose the type of show present in the image?'
p5574
tp5575
a(S'time period'
p5576
S'Which time period is shown in the image?'
p5577
tp5578
asS'242397237.jpg'
p5579
(lp5580
(S'channel'
p5581
S'What type of channel is present in the image?'
p5582
tp5583
a(S'conveyance'
p5584
S'Select the conveyance represented by the image?'
p5585
tp5586
asS'476009642.jpg'
p5587
(lp5588
(S'diversion'
p5589
S'Choose the type of diversion present in the image?'
p5590
tp5591
asS'4595062025.jpg'
p5592
(lp5593
(S'conveyance'
p5594
S'What type of conveyance is present in the image?'
p5595
tp5596
a(S'formation'
p5597
S'Select the formation represented by the image?'
p5598
tp5599
asS'6914913606.jpg'
p5600
(lp5601
(S'gathering'
p5602
S'What type of gathering is present in the image?'
p5603
tp5604
a(S'municipality'
p5605
S'Select the municipality represented by the image?'
p5606
tp5607
asS'3370308329.jpg'
p5608
(lp5609
(S'precipitation'
p5610
S'Choose the type of precipitation present in the image?'
p5611
tp5612
a(S'season'
p5613
S'Which season is shown in the image?'
p5614
tp5615
asS'2684323357.jpg'
p5616
(lp5617
(S'consumer goods'
p5618
S'What type of consumer goods is present in the image?'
p5619
tp5620
a(S'dancer'
p5621
S'Select the dancer represented by the image?'
p5622
tp5623
asS'2593392439.jpg'
p5624
(lp5625
(S'performer'
p5626
S'Choose the type of performer present in the image?'
p5627
tp5628
asS'3363776919.jpg'
p5629
(lp5630
(S'diversion'
p5631
S'Choose the type of diversion present in the image?'
p5632
tp5633
a(S'activity'
p5634
S'Which activity is shown in the image?'
p5635
tp5636
asS'3572346664.jpg'
p5637
(lp5638
(S'group'
p5639
S'Choose the type of group present in the image?'
p5640
tp5641
a(S'woman'
p5642
S'Which woman is shown in the image?'
p5643
tp5644
asS'214165084.jpg'
p5645
(lp5646
(S'angiosperm'
p5647
S'What type of angiosperm is present in the image?'
p5648
tp5649
asS'1160841776.jpg'
p5650
(lp5651
(S'geological formation'
p5652
S'Choose the type of geological formation present in the image?'
p5653
tp5654
a(S'body of water'
p5655
S'Which body of water is shown in the image?'
p5656
tp5657
asS'3922934080.jpg'
p5658
(lp5659
(S'juvenile'
p5660
S'Choose the type of juvenile present in the image?'
p5661
tp5662
a(S'dramatic composition'
p5663
S'Which dramatic composition is shown in the image?'
p5664
tp5665
asS'4412028431.jpg'
p5666
(lp5667
(S'creation'
p5668
S'Choose the type of creation present in the image?'
p5669
tp5670
a(S'commercial enterprise'
p5671
S'Which commercial enterprise is shown in the image?'
p5672
tp5673
asS'2623939135.jpg'
p5674
(lp5675
(S'spot'
p5676
S'Choose the type of spot present in the image?'
p5677
tp5678
a(S'woman'
p5679
S'Which woman is shown in the image?'
p5680
tp5681
asS'214774826.jpg'
p5682
(lp5683
(S'city district'
p5684
S'Choose the type of city district present in the image?'
p5685
tp5686
a(S'public square'
p5687
S'Which public square is shown in the image?'
p5688
tp5689
asS'6503926903.jpg'
p5690
(lp5691
(S'equine'
p5692
S'Choose the type of equine present in the image?'
p5693
tp5694
a(S'soil'
p5695
S'Which soil is shown in the image?'
p5696
tp5697
asS'1271960365.jpg'
p5698
(lp5699
(S'canine'
p5700
S'Choose the type of canine present in the image?'
p5701
tp5702
a(S'vertebrate'
p5703
S'Which vertebrate is shown in the image?'
p5704
tp5705
asS'7147639585.jpg'
p5706
(lp5707
(S'show'
p5708
S'What type of show is present in the image?'
p5709
tp5710
a(S'time period'
p5711
S'Select the time period represented by the image?'
p5712
tp5713
asS'469259974.jpg'
p5714
(lp5715
(S'causal agent'
p5716
S'Choose the type of causal agent present in the image?'
p5717
tp5718
a(S'creation'
p5719
S'Which creation is shown in the image?'
p5720
tp5721
asS'2797511323.jpg'
p5722
(lp5723
(S'canine'
p5724
S'What type of canine is present in the image?'
p5725
tp5726
a(S'chordate'
p5727
S'Select the chordate represented by the image?'
p5728
tp5729
asS'4842411522.jpg'
p5730
(lp5731
(S'causal agent'
p5732
S'What type of causal agent is present in the image?'
p5733
tp5734
a(S'group'
p5735
S'Select the group represented by the image?'
p5736
tp5737
asS'2541701582.jpg'
p5738
(lp5739
(S'walk'
p5740
S'Choose the type of walk present in the image?'
p5741
tp5742
asS'3106257008.jpg'
p5743
(lp5744
(S'causal agent'
p5745
S'What type of causal agent is present in the image?'
p5746
tp5747
asS'375118300.jpg'
p5748
(lp5749
(S'municipality'
p5750
S'What type of municipality is present in the image?'
p5751
tp5752
a(S'protective covering'
p5753
S'Select the protective covering represented by the image?'
p5754
tp5755
asS'6475050767.jpg'
p5756
(lp5757
(S'court game'
p5758
S'Choose the type of court game present in the image?'
p5759
tp5760
a(S'diversion'
p5761
S'Which diversion is shown in the image?'
p5762
tp5763
asS'1138784872.jpg'
p5764
(lp5765
(S'group'
p5766
S'Choose the type of group present in the image?'
p5767
tp5768
a(S'collection'
p5769
S'Which collection is shown in the image?'
p5770
tp5771
asS'3503483247.jpg'
p5772
(lp5773
(S'wheeled vehicle'
p5774
S'What type of wheeled vehicle is present in the image?'
p5775
tp5776
a(S'diversion'
p5777
S'Select the diversion represented by the image?'
p5778
tp5779
asS'4867994698.jpg'
p5780
(lp5781
(S'education'
p5782
S'Choose the type of education present in the image?'
p5783
tp5784
asS'6224066807.jpg'
p5785
(lp5786
(S'diversion'
p5787
S'What type of diversion is present in the image?'
p5788
tp5789
a(S'contestant'
p5790
S'Select the contestant represented by the image?'
p5791
tp5792
asS'35652137.jpg'
p5793
(lp5794
(S'festival'
p5795
S'What type of festival is present in the image?'
p5796
tp5797
a(S'time period'
p5798
S'Select the time period represented by the image?'
p5799
tp5800
asS'4628337496.jpg'
p5801
(lp5802
(S'locomotion'
p5803
S'Choose the type of locomotion present in the image?'
p5804
tp5805
asS'3632225464.jpg'
p5806
(lp5807
(S'atmosphere'
p5808
S'What type of atmosphere is present in the image?'
p5809
tp5810
a(S'diversion'
p5811
S'Select the diversion represented by the image?'
p5812
tp5813
asS'2845082521.jpg'
p5814
(lp5815
(S'plain'
p5816
S'Choose the type of plain present in the image?'
p5817
tp5818
a(S'collection'
p5819
S'Which collection is shown in the image?'
p5820
tp5821
asS'3519711330.jpg'
p5822
(lp5823
(S'wheeled vehicle'
p5824
S'What type of wheeled vehicle is present in the image?'
p5825
tp5826
a(S'conveyance'
p5827
S'Select the conveyance represented by the image?'
p5828
tp5829
asS'3225880532.jpg'
p5830
(lp5831
(g361
S'Choose the type of other present in the image?'
p5832
tp5833
a(S'contestant'
p5834
S'Which contestant is shown in the image?'
p5835
tp5836
asS'2469878877.jpg'
p5837
(lp5838
(S'city district'
p5839
S'Choose the type of city district present in the image?'
p5840
tp5841
a(S'buying'
p5842
S'Which buying is shown in the image?'
p5843
tp5844
asS'460781612.jpg'
p5845
(lp5846
(S'mouth'
p5847
S'Choose the type of mouth present in the image?'
p5848
tp5849
a(S'canine'
p5850
S'Which canine is shown in the image?'
p5851
tp5852
asS'335588286.jpg'
p5853
(lp5854
(S'canine'
p5855
S'Choose the type of canine present in the image?'
p5856
tp5857
a(S'vertebrate'
p5858
S'Which vertebrate is shown in the image?'
p5859
tp5860
asS'305749904.jpg'
p5861
(lp5862
(S'consumer goods'
p5863
S'What type of consumer goods is present in the image?'
p5864
tp5865
a(g361
S'Select the other represented by the image?'
p5866
tp5867
asS'3474133699.jpg'
p5868
(lp5869
(S'diversion'
p5870
S'What type of diversion is present in the image?'
p5871
tp5872
a(S'court game'
p5873
S'Select the court game represented by the image?'
p5874
tp5875
asS'2592485728.jpg'
p5876
(lp5877
(S'swimming stroke'
p5878
S'What type of swimming stroke is present in the image?'
p5879
tp5880
a(S'diversion'
p5881
S'Select the diversion represented by the image?'
p5882
tp5883
asS'3111402233.jpg'
p5884
(lp5885
(S'canine'
p5886
S'Choose the type of canine present in the image?'
p5887
tp5888
a(S'chordate'
p5889
S'Which chordate is shown in the image?'
p5890
tp5891
asS'54501196.jpg'
p5892
(lp5893
(S'climb'
p5894
S'What type of climb is present in the image?'
p5895
tp5896
a(S'natural elevation'
p5897
S'Select the natural elevation represented by the image?'
p5898
tp5899
asS'4691732195.jpg'
p5900
(lp5901
(S'group'
p5902
S'Choose the type of group present in the image?'
p5903
tp5904
a(S'gathering'
p5905
S'Which gathering is shown in the image?'
p5906
tp5907
asS'212396217.jpg'
p5908
(lp5909
(S'causal agent'
p5910
S'Choose the type of causal agent present in the image?'
p5911
tp5912
a(S'formation'
p5913
S'Which formation is shown in the image?'
p5914
tp5915
asS'4524222086.jpg'
p5916
(lp5917
(S'causal agent'
p5918
S'What type of causal agent is present in the image?'
p5919
tp5920
asS'246508774.jpg'
p5921
(lp5922
(S'time period'
p5923
S'Choose the type of time period present in the image?'
p5924
tp5925
a(S'gathering'
p5926
S'Which gathering is shown in the image?'
p5927
tp5928
asS'2782483858.jpg'
p5929
(lp5930
(S'causal agent'
p5931
S'What type of causal agent is present in the image?'
p5932
tp5933
a(S'group'
p5934
S'Select the group represented by the image?'
p5935
tp5936
asS'4481066172.jpg'
p5937
(lp5938
(S'instrumentality'
p5939
S'Choose the type of instrumentality present in the image?'
p5940
tp5941
a(S'way'
p5942
S'Which way is shown in the image?'
p5943
tp5944
asS'2915698477.jpg'
p5945
(lp5946
(S'yard'
p5947
S'Choose the type of yard present in the image?'
p5948
tp5949
a(S'building'
p5950
S'Which building is shown in the image?'
p5951
tp5952
asS'4826114794.jpg'
p5953
(lp5954
(S'leisure'
p5955
S'Choose the type of leisure present in the image?'
p5956
tp5957
a(S'line'
p5958
S'Which line is shown in the image?'
p5959
tp5960
asS'4942720878.jpg'
p5961
(lp5962
(S'conveyance'
p5963
S'Choose the type of conveyance present in the image?'
p5964
tp5965
a(S'body of water'
p5966
S'Which body of water is shown in the image?'
p5967
tp5968
asS'3049617203.jpg'
p5969
(lp5970
(S'gramineous plant'
p5971
S'Choose the type of gramineous plant present in the image?'
p5972
tp5973
a(S'field'
p5974
S'Which field is shown in the image?'
p5975
tp5976
asS'1478576516.jpg'
p5977
(lp5978
(S'building'
p5979
S'What type of building is present in the image?'
p5980
tp5981
a(S'consideration'
p5982
S'Select the consideration represented by the image?'
p5983
tp5984
asS'6824212178.jpg'
p5985
(lp5986
(S'dancer'
p5987
S'Choose the type of dancer present in the image?'
p5988
tp5989
a(S'group'
p5990
S'Which group is shown in the image?'
p5991
tp5992
asS'3235857773.jpg'
p5993
(lp5994
(S'conveyance'
p5995
S'What type of conveyance is present in the image?'
p5996
tp5997
a(S'group'
p5998
S'Select the group represented by the image?'
p5999
tp6000
asS'2998945968.jpg'
p6001
(lp6002
(S'diversion'
p6003
S'Choose the type of diversion present in the image?'
p6004
tp6005
asS'10602072.jpg'
p6006
(lp6007
(S'quality'
p6008
S'Choose the type of quality present in the image?'
p6009
tp6010
a(S'activity'
p6011
S'Which activity is shown in the image?'
p6012
tp6013
asS'246231741.jpg'
p6014
(lp6015
(S'canine'
p6016
S'What type of canine is present in the image?'
p6017
tp6018
asS'4328470369.jpg'
p6019
(lp6020
(S'diversion'
p6021
S'Choose the type of diversion present in the image?'
p6022
tp6023
a(S'court game'
p6024
S'Which court game is shown in the image?'
p6025
tp6026
asS'6945359615.jpg'
p6027
(lp6028
(S'life science'
p6029
S'Choose the type of life science present in the image?'
p6030
tp6031
a(S'conveyance'
p6032
S'Which conveyance is shown in the image?'
p6033
tp6034
asS'4307968.jpg'
p6035
(lp6036
(S'gathering'
p6037
S'What type of gathering is present in the image?'
p6038
tp6039
a(S'causal agent'
p6040
S'Select the causal agent represented by the image?'
p6041
tp6042
asS'2632133026.jpg'
p6043
(lp6044
(S'woody plant'
p6045
S'What type of woody plant is present in the image?'
p6046
tp6047
a(S'shelter'
p6048
S'Select the shelter represented by the image?'
p6049
tp6050
asS'32490830.jpg'
p6051
(lp6052
sS'488594045.jpg'
p6053
(lp6054
(S'lineman'
p6055
S'What type of lineman is present in the image?'
p6056
tp6057
a(S'diversion'
p6058
S'Select the diversion represented by the image?'
p6059
tp6060
asS'2760167.jpg'
p6061
(lp6062
(S'adult'
p6063
S'Choose the type of adult present in the image?'
p6064
tp6065
a(S'performer'
p6066
S'Which performer is shown in the image?'
p6067
tp6068
asS'3644941648.jpg'
p6069
(lp6070
(S'tower'
p6071
S'What type of tower is present in the image?'
p6072
tp6073
a(S'building'
p6074
S'Select the building represented by the image?'
p6075
tp6076
asS'3247168324.jpg'
p6077
(lp6078
(S'conveyance'
p6079
S'Choose the type of conveyance present in the image?'
p6080
tp6081
asS'4337016892.jpg'
p6082
(lp6083
(S'dramatic composition'
p6084
S'What type of dramatic composition is present in the image?'
p6085
tp6086
a(S'group'
p6087
S'Select the group represented by the image?'
p6088
tp6089
asS'3909544831.jpg'
p6090
(lp6091
sS'4267222130.jpg'
p6092
(lp6093
(S'sport'
p6094
S'What type of sport is present in the image?'
p6095
tp6096
a(S'conveyance'
p6097
S'Select the conveyance represented by the image?'
p6098
tp6099
asS'2429579784.jpg'
p6100
(lp6101
(S'instrumentality'
p6102
S'What type of instrumentality is present in the image?'
p6103
tp6104
a(S'conveyance'
p6105
S'Select the conveyance represented by the image?'
p6106
tp6107
asS'6320068122.jpg'
p6108
(lp6109
(S'traveler'
p6110
S'Choose the type of traveler present in the image?'
p6111
tp6112
asS'2299720433.jpg'
p6113
(lp6114
sS'4513402918.jpg'
p6115
(lp6116
(S'auditory communication'
p6117
S'Choose the type of auditory communication present in the image?'
p6118
tp6119
a(S'time period'
p6120
S'Which time period is shown in the image?'
p6121
tp6122
asS'5253872191.jpg'
p6123
(lp6124
(S'causal agent'
p6125
S'What type of causal agent is present in the image?'
p6126
tp6127
a(S'occupational group'
p6128
S'Select the occupational group represented by the image?'
p6129
tp6130
asS'2830309113.jpg'
p6131
(lp6132
(S'consumer goods'
p6133
S'What type of consumer goods is present in the image?'
p6134
tp6135
a(S'dramatic composition'
p6136
S'Select the dramatic composition represented by the image?'
p6137
tp6138
asS'4668657397.jpg'
p6139
(lp6140
(S'figure'
p6141
S'Choose the type of figure present in the image?'
p6142
tp6143
a(S'promotion'
p6144
S'Which promotion is shown in the image?'
p6145
tp6146
asS'7357649904.jpg'
p6147
(lp6148
(S'creation'
p6149
S'What type of creation is present in the image?'
p6150
tp6151
asS'2682536830.jpg'
p6152
(lp6153
(S'performer'
p6154
S'Choose the type of performer present in the image?'
p6155
tp6156
a(S'show'
p6157
S'Which show is shown in the image?'
p6158
tp6159
asS'3214885227.jpg'
p6160
(lp6161
(S'channel'
p6162
S'Choose the type of channel present in the image?'
p6163
tp6164
a(S'stream'
p6165
S'Which stream is shown in the image?'
p6166
tp6167
asS'4501260537.jpg'
p6168
(lp6169
(S'consumer goods'
p6170
S'Choose the type of consumer goods present in the image?'
p6171
tp6172
a(S'attire'
p6173
S'Which attire is shown in the image?'
p6174
tp6175
asS'6180681091.jpg'
p6176
(lp6177
(S'swimmer'
p6178
S'What type of swimmer is present in the image?'
p6179
tp6180
a(S'water sport'
p6181
S'Select the water sport represented by the image?'
p6182
tp6183
asS'40202068.jpg'
p6184
(lp6185
(S'nutriment'
p6186
S'What type of nutriment is present in the image?'
p6187
tp6188
a(S'speech'
p6189
S'Select the speech represented by the image?'
p6190
tp6191
asS'2366292699.jpg'
p6192
(lp6193
(S'performer'
p6194
S'What type of performer is present in the image?'
p6195
tp6196
a(S'show'
p6197
S'Select the show represented by the image?'
p6198
tp6199
asS'4791975111.jpg'
p6200
(lp6201
(S'way'
p6202
S'Choose the type of way present in the image?'
p6203
tp6204
a(S'traveler'
p6205
S'Which traveler is shown in the image?'
p6206
tp6207
asS'259611216.jpg'
p6208
(lp6209
(S'dramatic composition'
p6210
S'What type of dramatic composition is present in the image?'
p6211
tp6212
a(g361
S'Select the other represented by the image?'
p6213
tp6214
asS'4507548183.jpg'
p6215
(lp6216
(S'conveyance'
p6217
S'What type of conveyance is present in the image?'
p6218
tp6219
a(S'plastic art'
p6220
S'Select the plastic art represented by the image?'
p6221
tp6222
asS'2065875490.jpg'
p6223
(lp6224
(S'object'
p6225
S'Choose the type of object present in the image?'
p6226
tp6227
a(S'angiosperm'
p6228
S'Which angiosperm is shown in the image?'
p6229
tp6230
asS'6586954247.jpg'
p6231
(lp6232
(S'causal agent'
p6233
S'Choose the type of causal agent present in the image?'
p6234
tp6235
a(S'group'
p6236
S'Which group is shown in the image?'
p6237
tp6238
asS'2354516058.jpg'
p6239
(lp6240
(S'container'
p6241
S'Choose the type of container present in the image?'
p6242
tp6243
a(S'substance'
p6244
S'Which substance is shown in the image?'
p6245
tp6246
asS'5572351880.jpg'
p6247
(lp6248
(S'diversion'
p6249
S'Choose the type of diversion present in the image?'
p6250
tp6251
a(S'causal agent'
p6252
S'Which causal agent is shown in the image?'
p6253
tp6254
asS'4696935973.jpg'
p6255
(lp6256
(S'diversion'
p6257
S'Choose the type of diversion present in the image?'
p6258
tp6259
a(S'contestant'
p6260
S'Which contestant is shown in the image?'
p6261
tp6262
asS'4445607388.jpg'
p6263
(lp6264
(S'instrumentality'
p6265
S'What type of instrumentality is present in the image?'
p6266
tp6267
a(S'conveyance'
p6268
S'Select the conveyance represented by the image?'
p6269
tp6270
asS'4502461485.jpg'
p6271
(lp6272
sS'3903095674.jpg'
p6273
(lp6274
(S'angiosperm'
p6275
S'Choose the type of angiosperm present in the image?'
p6276
tp6277
asS'44399434.jpg'
p6278
(lp6279
(S'tract'
p6280
S'What type of tract is present in the image?'
p6281
tp6282
a(S'collection'
p6283
S'Select the collection represented by the image?'
p6284
tp6285
asS'4546499100.jpg'
p6286
(lp6287
(S'container'
p6288
S'Choose the type of container present in the image?'
p6289
tp6290
asS'4088621789.jpg'
p6291
(lp6292
(S'causal agent'
p6293
S'Choose the type of causal agent present in the image?'
p6294
tp6295
a(S'military service'
p6296
S'Which military service is shown in the image?'
p6297
tp6298
asS'2810333931.jpg'
p6299
(lp6300
(S'gathering'
p6301
S'What type of gathering is present in the image?'
p6302
tp6303
a(S'forest'
p6304
S'Select the forest represented by the image?'
p6305
tp6306
asS'4675918984.jpg'
p6307
(lp6308
(S'diversion'
p6309
S'Choose the type of diversion present in the image?'
p6310
tp6311
a(S'court game'
p6312
S'Which court game is shown in the image?'
p6313
tp6314
asS'4822105350.jpg'
p6315
(lp6316
(S'instrumentality'
p6317
S'What type of instrumentality is present in the image?'
p6318
tp6319
a(S'traveler'
p6320
S'Select the traveler represented by the image?'
p6321
tp6322
asS'6261030.jpg'
p6323
(lp6324
(S'body of water'
p6325
S'Choose the type of body of water present in the image?'
p6326
tp6327
a(S'geological formation'
p6328
S'Which geological formation is shown in the image?'
p6329
tp6330
asS'2448210587.jpg'
p6331
(lp6332
(S'canine'
p6333
S'Choose the type of canine present in the image?'
p6334
tp6335
a(S'mammal family'
p6336
S'Which mammal family is shown in the image?'
p6337
tp6338
asS'5730564191.jpg'
p6339
(lp6340
(S'skilled worker'
p6341
S'What type of skilled worker is present in the image?'
p6342
tp6343
a(S'kabob'
p6344
S'Select the kabob represented by the image?'
p6345
tp6346
asS'2549228224.jpg'
p6347
(lp6348
(S'festival'
p6349
S'Choose the type of festival present in the image?'
p6350
tp6351
a(S'group'
p6352
S'Which group is shown in the image?'
p6353
tp6354
asS'86800579.jpg'
p6355
(lp6356
(S'activity'
p6357
S'What type of activity is present in the image?'
p6358
tp6359
a(S'shop'
p6360
S'Select the shop represented by the image?'
p6361
tp6362
asS'4723023590.jpg'
p6363
(lp6364
(S'nutriment'
p6365
S'What type of nutriment is present in the image?'
p6366
tp6367
a(S'container'
p6368
S'Select the container represented by the image?'
p6369
tp6370
asS'268223986.jpg'
p6371
(lp6372
(S'group'
p6373
S'What type of group is present in the image?'
p6374
tp6375
a(S'conveyance'
p6376
S'Select the conveyance represented by the image?'
p6377
tp6378
asS'488866979.jpg'
p6379
(lp6380
(S'adult'
p6381
S'What type of adult is present in the image?'
p6382
tp6383
a(S'hour'
p6384
S'Select the hour represented by the image?'
p6385
tp6386
asS'980090465.jpg'
p6387
(lp6388
(S'building'
p6389
S'What type of building is present in the image?'
p6390
tp6391
a(S'nutriment'
p6392
S'Select the nutriment represented by the image?'
p6393
tp6394
asS'2275029674.jpg'
p6395
(lp6396
(S'canine'
p6397
S'Choose the type of canine present in the image?'
p6398
tp6399
a(S'european'
p6400
S'Which european is shown in the image?'
p6401
tp6402
asS'4439517165.jpg'
p6403
(lp6404
(S'angiosperm'
p6405
S'Choose the type of angiosperm present in the image?'
p6406
tp6407
a(S'woody plant'
p6408
S'Which woody plant is shown in the image?'
p6409
tp6410
asS'518144037.jpg'
p6411
(lp6412
(S'body covering'
p6413
S'Choose the type of body covering present in the image?'
p6414
tp6415
a(S'hair'
p6416
S'Which hair is shown in the image?'
p6417
tp6418
asS'2329299623.jpg'
p6419
(lp6420
(S'device'
p6421
S'What type of device is present in the image?'
p6422
tp6423
asS'3621623690.jpg'
p6424
(lp6425
(S'diversion'
p6426
S'Choose the type of diversion present in the image?'
p6427
tp6428
asS'3663793993.jpg'
p6429
(lp6430
(S'field'
p6431
S'Choose the type of field present in the image?'
p6432
tp6433
a(S'gramineous plant'
p6434
S'Which gramineous plant is shown in the image?'
p6435
tp6436
asS'2055646179.jpg'
p6437
(lp6438
(S'object'
p6439
S'What type of object is present in the image?'
p6440
tp6441
a(S'juvenile'
p6442
S'Select the juvenile represented by the image?'
p6443
tp6444
asS'2527829321.jpg'
p6445
(lp6446
(S'diversion'
p6447
S'Choose the type of diversion present in the image?'
p6448
tp6449
a(S'sport'
p6450
S'Which sport is shown in the image?'
p6451
tp6452
asS'3996401.jpg'
p6453
(lp6454
sS'3692072577.jpg'
p6455
(lp6456
(S'causal agent'
p6457
S'What type of causal agent is present in the image?'
p6458
tp6459
a(S'group'
p6460
S'Select the group represented by the image?'
p6461
tp6462
asS'4829029000.jpg'
p6463
(lp6464
(S'causal agent'
p6465
S'What type of causal agent is present in the image?'
p6466
tp6467
a(S'group'
p6468
S'Select the group represented by the image?'
p6469
tp6470
asS'2448741990.jpg'
p6471
(lp6472
(S'diversion'
p6473
S'Choose the type of diversion present in the image?'
p6474
tp6475
a(S'sport'
p6476
S'Which sport is shown in the image?'
p6477
tp6478
asS'2541939817.jpg'
p6479
(lp6480
(S'municipality'
p6481
S'Choose the type of municipality present in the image?'
p6482
tp6483
a(S'group'
p6484
S'Which group is shown in the image?'
p6485
tp6486
asS'4809260553.jpg'
p6487
(lp6488
(S'musician'
p6489
S'What type of musician is present in the image?'
p6490
tp6491
a(S'performer'
p6492
S'Select the performer represented by the image?'
p6493
tp6494
asS'4511060196.jpg'
p6495
(lp6496
(S'woody plant'
p6497
S'What type of woody plant is present in the image?'
p6498
tp6499
a(S'leisure'
p6500
S'Select the leisure represented by the image?'
p6501
tp6502
asS'6864936264.jpg'
p6503
(lp6504
(S'property'
p6505
S'Choose the type of property present in the image?'
p6506
tp6507
a(S'house'
p6508
S'Which house is shown in the image?'
p6509
tp6510
asS'4511585083.jpg'
p6511
(lp6512
(S'canine'
p6513
S'Choose the type of canine present in the image?'
p6514
tp6515
a(S'shepherd dog'
p6516
S'Which shepherd dog is shown in the image?'
p6517
tp6518
asS'3480051754.jpg'
p6519
(lp6520
(S'group'
p6521
S'What type of group is present in the image?'
p6522
tp6523
a(S'municipality'
p6524
S'Select the municipality represented by the image?'
p6525
tp6526
asS'185411054.jpg'
p6527
(lp6528
(S'soil'
p6529
S'What type of soil is present in the image?'
p6530
tp6531
a(S'mammal family'
p6532
S'Select the mammal family represented by the image?'
p6533
tp6534
asS'3143978284.jpg'
p6535
(lp6536
(S'adult'
p6537
S'Choose the type of adult present in the image?'
p6538
tp6539
a(S'causal agent'
p6540
S'Which causal agent is shown in the image?'
p6541
tp6542
asS'4786470364.jpg'
p6543
(lp6544
(S'object'
p6545
S'Choose the type of object present in the image?'
p6546
tp6547
a(S'body of water'
p6548
S'Which body of water is shown in the image?'
p6549
tp6550
asS'4608202893.jpg'
p6551
(lp6552
(S'group'
p6553
S'Choose the type of group present in the image?'
p6554
tp6555
a(S'sculpture'
p6556
S'Which sculpture is shown in the image?'
p6557
tp6558
asS'7775061978.jpg'
p6559
(lp6560
(S'equine'
p6561
S'Choose the type of equine present in the image?'
p6562
tp6563
a(S'horse'
p6564
S'Which horse is shown in the image?'
p6565
tp6566
asS'3691394196.jpg'
p6567
(lp6568
(S'causal agent'
p6569
S'What type of causal agent is present in the image?'
p6570
tp6571
a(S'group'
p6572
S'Select the group represented by the image?'
p6573
tp6574
asS'3254662117.jpg'
p6575
(lp6576
(S'consumer goods'
p6577
S'Choose the type of consumer goods present in the image?'
p6578
tp6579
a(S'season'
p6580
S'Which season is shown in the image?'
p6581
tp6582
asS'5442112383.jpg'
p6583
(lp6584
(S'causal agent'
p6585
S'What type of causal agent is present in the image?'
p6586
tp6587
a(S'group'
p6588
S'Select the group represented by the image?'
p6589
tp6590
asS'4864924199.jpg'
p6591
(lp6592
(S'wheeled vehicle'
p6593
S'What type of wheeled vehicle is present in the image?'
p6594
tp6595
a(S'conveyance'
p6596
S'Select the conveyance represented by the image?'
p6597
tp6598
asS'3486768631.jpg'
p6599
(lp6600
(S'group'
p6601
S'Choose the type of group present in the image?'
p6602
tp6603
a(S'angiosperm'
p6604
S'Which angiosperm is shown in the image?'
p6605
tp6606
asS'2074686457.jpg'
p6607
(lp6608
(S'killer'
p6609
S'What type of killer is present in the image?'
p6610
tp6611
asS'2540884723.jpg'
p6612
(lp6613
(S'causal agent'
p6614
S'What type of causal agent is present in the image?'
p6615
tp6616
a(S'group'
p6617
S'Select the group represented by the image?'
p6618
tp6619
asS'1482654385.jpg'
p6620
(lp6621
(S'geological phenomenon'
p6622
S'What type of geological phenomenon is present in the image?'
p6623
tp6624
a(S'adversity'
p6625
S'Select the adversity represented by the image?'
p6626
tp6627
asS'2763601657.jpg'
p6628
(lp6629
(S'leisure'
p6630
S'Choose the type of leisure present in the image?'
p6631
tp6632
a(S'locomotion'
p6633
S'Which locomotion is shown in the image?'
p6634
tp6635
asS'260370720.jpg'
p6636
(lp6637
(S'angiosperm'
p6638
S'What type of angiosperm is present in the image?'
p6639
tp6640
a(S'substance'
p6641
S'Select the substance represented by the image?'
p6642
tp6643
asS'2273650537.jpg'
p6644
(lp6645
(S'instrumentality'
p6646
S'What type of instrumentality is present in the image?'
p6647
tp6648
a(S'collection'
p6649
S'Select the collection represented by the image?'
p6650
tp6651
asS'4527012288.jpg'
p6652
(lp6653
(S'group'
p6654
S'What type of group is present in the image?'
p6655
tp6656
a(S'gathering'
p6657
S'Select the gathering represented by the image?'
p6658
tp6659
asS'511186815.jpg'
p6660
(lp6661
(S'container'
p6662
S'Choose the type of container present in the image?'
p6663
tp6664
asS'4846892973.jpg'
p6665
(lp6666
(S'leisure'
p6667
S'What type of leisure is present in the image?'
p6668
tp6669
a(S'body of water'
p6670
S'Select the body of water represented by the image?'
p6671
tp6672
asS'4609789441.jpg'
p6673
(lp6674
(S'diversion'
p6675
S'Choose the type of diversion present in the image?'
p6676
tp6677
a(S'activity'
p6678
S'Which activity is shown in the image?'
p6679
tp6680
asS'2247889670.jpg'
p6681
(lp6682
(S'body of water'
p6683
S'What type of body of water is present in the image?'
p6684
tp6685
asS'2113996953.jpg'
p6686
(lp6687
(S'vessel'
p6688
S'Choose the type of vessel present in the image?'
p6689
tp6690
a(S'water travel'
p6691
S'Which water travel is shown in the image?'
p6692
tp6693
asS'14107151.jpg'
p6694
(lp6695
(S'instrumentality'
p6696
S'What type of instrumentality is present in the image?'
p6697
tp6698
a(S'causal agent'
p6699
S'Select the causal agent represented by the image?'
p6700
tp6701
asS'209274114.jpg'
p6702
(lp6703
(S'concave shape'
p6704
S'What type of concave shape is present in the image?'
p6705
tp6706
a(S'tract'
p6707
S'Select the tract represented by the image?'
p6708
tp6709
asS'2891715589.jpg'
p6710
(lp6711
(S'municipality'
p6712
S'Choose the type of municipality present in the image?'
p6713
tp6714
a(S'gathering'
p6715
S'Which gathering is shown in the image?'
p6716
tp6717
asS'311104290.jpg'
p6718
(lp6719
(S'causal agent'
p6720
S'What type of causal agent is present in the image?'
p6721
tp6722
a(S'group'
p6723
S'Select the group represented by the image?'
p6724
tp6725
asS'7324774408.jpg'
p6726
(lp6727
(S'linear unit'
p6728
S'Choose the type of linear unit present in the image?'
p6729
tp6730
a(S'paving'
p6731
S'Which paving is shown in the image?'
p6732
tp6733
asS'5496383084.jpg'
p6734
(lp6735
(S'show'
p6736
S'Choose the type of show present in the image?'
p6737
tp6738
a(S'creation'
p6739
S'Which creation is shown in the image?'
p6740
tp6741
asS'3135317718.jpg'
p6742
(lp6743
(S'juvenile'
p6744
S'What type of juvenile is present in the image?'
p6745
tp6746
a(S'angiosperm'
p6747
S'Select the angiosperm represented by the image?'
p6748
tp6749
asS'1577667570.jpg'
p6750
(lp6751
(S'room'
p6752
S'Choose the type of room present in the image?'
p6753
tp6754
a(S'movable barrier'
p6755
S'Which movable barrier is shown in the image?'
p6756
tp6757
asS'4717657834.jpg'
p6758
(lp6759
(S'objection'
p6760
S'What type of objection is present in the image?'
p6761
tp6762
a(S'causal agent'
p6763
S'Select the causal agent represented by the image?'
p6764
tp6765
asS'86112875.jpg'
p6766
(lp6767
(S'sculpture'
p6768
S'Choose the type of sculpture present in the image?'
p6769
tp6770
a(S'workplace'
p6771
S'Which workplace is shown in the image?'
p6772
tp6773
asS'1295669416.jpg'
p6774
(lp6775
(S'consumer goods'
p6776
S'Choose the type of consumer goods present in the image?'
p6777
tp6778
a(S'angiosperm'
p6779
S'Which angiosperm is shown in the image?'
p6780
tp6781
asS'2687891662.jpg'
p6782
(lp6783
(S'tract'
p6784
S'What type of tract is present in the image?'
p6785
tp6786
a(S'footrace'
p6787
S'Select the footrace represented by the image?'
p6788
tp6789
asS'549639456.jpg'
p6790
(lp6791
(S'deceive'
p6792
S'Choose the type of deceive present in the image?'
p6793
tp6794
a(S'diversion'
p6795
S'Which diversion is shown in the image?'
p6796
tp6797
asS'3701226275.jpg'
p6798
(lp6799
(S'speech act'
p6800
S'What type of speech act is present in the image?'
p6801
tp6802
asS'5319238490.jpg'
p6803
(lp6804
(S'season'
p6805
S'Choose the type of season present in the image?'
p6806
tp6807
a(S'animal skin'
p6808
S'Which animal skin is shown in the image?'
p6809
tp6810
asS'230269912.jpg'
p6811
(lp6812
(S'vertebrate'
p6813
S'What type of vertebrate is present in the image?'
p6814
tp6815
a(S'cattle'
p6816
S'Select the cattle represented by the image?'
p6817
tp6818
asS'3389037189.jpg'
p6819
(lp6820
sS'4625392581.jpg'
p6821
(lp6822
(S'contestant'
p6823
S'What type of contestant is present in the image?'
p6824
tp6825
a(S'diversion'
p6826
S'Select the diversion represented by the image?'
p6827
tp6828
asS'2540689088.jpg'
p6829
(lp6830
(S'area'
p6831
S'Choose the type of area present in the image?'
p6832
tp6833
a(S'nutriment'
p6834
S'Which nutriment is shown in the image?'
p6835
tp6836
asS'2333712689.jpg'
p6837
(lp6838
(S'creation'
p6839
S'What type of creation is present in the image?'
p6840
tp6841
a(S'performance'
p6842
S'Select the performance represented by the image?'
p6843
tp6844
asS'4855045103.jpg'
p6845
(lp6846
(S'clothing'
p6847
S'What type of clothing is present in the image?'
p6848
tp6849
a(S'causal agent'
p6850
S'Select the causal agent represented by the image?'
p6851
tp6852
asS'4913629043.jpg'
p6853
(lp6854
(S'object'
p6855
S'Choose the type of object present in the image?'
p6856
tp6857
a(S'plastic art'
p6858
S'Which plastic art is shown in the image?'
p6859
tp6860
asS'3777739107.jpg'
p6861
(lp6862
(S'quality'
p6863
S'Choose the type of quality present in the image?'
p6864
tp6865
a(S'basin'
p6866
S'Which basin is shown in the image?'
p6867
tp6868
asS'4876517154.jpg'
p6869
(lp6870
(S'consumer goods'
p6871
S'What type of consumer goods is present in the image?'
p6872
tp6873
a(S'causal agent'
p6874
S'Select the causal agent represented by the image?'
p6875
tp6876
asS'3046431231.jpg'
p6877
(lp6878
(S'consumer goods'
p6879
S'Choose the type of consumer goods present in the image?'
p6880
tp6881
a(S'attire'
p6882
S'Which attire is shown in the image?'
p6883
tp6884
asS'293879742.jpg'
p6885
(lp6886
(S'canine'
p6887
S'What type of canine is present in the image?'
p6888
tp6889
a(S'equine'
p6890
S'Select the equine represented by the image?'
p6891
tp6892
asS'5938204995.jpg'
p6893
(lp6894
(S'creator'
p6895
S'What type of creator is present in the image?'
p6896
tp6897
a(S'show'
p6898
S'Select the show represented by the image?'
p6899
tp6900
asS'3532412342.jpg'
p6901
(lp6902
(S'hoop'
p6903
S'Choose the type of hoop present in the image?'
p6904
tp6905
a(S'conveyance'
p6906
S'Which conveyance is shown in the image?'
p6907
tp6908
asS'3091673351.jpg'
p6909
(lp6910
(S'nutriment'
p6911
S'What type of nutriment is present in the image?'
p6912
tp6913
asS'7979219683.jpg'
p6914
(lp6915
(S'diversion'
p6916
S'What type of diversion is present in the image?'
p6917
tp6918
a(S'water sport'
p6919
S'Select the water sport represented by the image?'
p6920
tp6921
asS'2263132077.jpg'
p6922
(lp6923
(S'activity'
p6924
S'Choose the type of activity present in the image?'
p6925
tp6926
a(S'leisure'
p6927
S'Which leisure is shown in the image?'
p6928
tp6929
asS'4532354825.jpg'
p6930
(lp6931
(S'conveyance'
p6932
S'What type of conveyance is present in the image?'
p6933
tp6934
a(S'motor vehicle'
p6935
S'Select the motor vehicle represented by the image?'
p6936
tp6937
asS'4326517877.jpg'
p6938
(lp6939
(S'painting'
p6940
S'What type of painting is present in the image?'
p6941
tp6942
a(S'creation'
p6943
S'Select the creation represented by the image?'
p6944
tp6945
asS'1312020846.jpg'
p6946
(lp6947
(S'canine'
p6948
S'What type of canine is present in the image?'
p6949
tp6950
a(S'chordate'
p6951
S'Select the chordate represented by the image?'
p6952
tp6953
asS'3217620013.jpg'
p6954
(lp6955
(S'contestant'
p6956
S'Choose the type of contestant present in the image?'
p6957
tp6958
a(S'court game'
p6959
S'Which court game is shown in the image?'
p6960
tp6961
asS'3598128992.jpg'
p6962
(lp6963
(S'group'
p6964
S'What type of group is present in the image?'
p6965
tp6966
a(S'conveyance'
p6967
S'Select the conveyance represented by the image?'
p6968
tp6969
asS'135235570.jpg'
p6970
(lp6971
(S'diversion'
p6972
S'Choose the type of diversion present in the image?'
p6973
tp6974
a(S'contestant'
p6975
S'Which contestant is shown in the image?'
p6976
tp6977
asS'3421789737.jpg'
p6978
(lp6979
(S'conveyance'
p6980
S'Choose the type of conveyance present in the image?'
p6981
tp6982
a(S'track and field'
p6983
S'Which track and field is shown in the image?'
p6984
tp6985
asS'1399295078.jpg'
p6986
(lp6987
(S'causal agent'
p6988
S'What type of causal agent is present in the image?'
p6989
tp6990
a(S'speech'
p6991
S'Select the speech represented by the image?'
p6992
tp6993
asS'2321094365.jpg'
p6994
(lp6995
(S'instrumentality'
p6996
S'What type of instrumentality is present in the image?'
p6997
tp6998
a(S'conveyance'
p6999
S'Select the conveyance represented by the image?'
p7000
tp7001
asS'3136404885.jpg'
p7002
(lp7003
(S'wit'
p7004
S'Choose the type of wit present in the image?'
p7005
tp7006
a(S'creation'
p7007
S'Which creation is shown in the image?'
p7008
tp7009
asS'878758390.jpg'
p7010
(lp7011
(S'canine'
p7012
S'What type of canine is present in the image?'
p7013
tp7014
a(S'chordate'
p7015
S'Select the chordate represented by the image?'
p7016
tp7017
asS'3198237818.jpg'
p7018
(lp7019
(S'consumer goods'
p7020
S'Choose the type of consumer goods present in the image?'
p7021
tp7022
a(S'leisure'
p7023
S'Which leisure is shown in the image?'
p7024
tp7025
asS'2936590102.jpg'
p7026
(lp7027
(S'diversion'
p7028
S'What type of diversion is present in the image?'
p7029
tp7030
asS'2230206919.jpg'
p7031
(lp7032
(S'attire'
p7033
S'Choose the type of attire present in the image?'
p7034
tp7035
asS'3483071906.jpg'
p7036
(lp7037
(S'juvenile'
p7038
S'What type of juvenile is present in the image?'
p7039
tp7040
a(S'gathering'
p7041
S'Select the gathering represented by the image?'
p7042
tp7043
asS'3657016761.jpg'
p7044
(lp7045
(S'diversion'
p7046
S'Choose the type of diversion present in the image?'
p7047
tp7048
a(S'dramatic composition'
p7049
S'Which dramatic composition is shown in the image?'
p7050
tp7051
asS'4696008519.jpg'
p7052
(lp7053
(S'diversion'
p7054
S'What type of diversion is present in the image?'
p7055
tp7056
a(S'contestant'
p7057
S'Select the contestant represented by the image?'
p7058
tp7059
asS'2939371251.jpg'
p7060
(lp7061
(S'diversion'
p7062
S'What type of diversion is present in the image?'
p7063
tp7064
a(S'lineman'
p7065
S'Select the lineman represented by the image?'
p7066
tp7067
asS'4078134904.jpg'
p7068
(lp7069
(S'causal agent'
p7070
S'What type of causal agent is present in the image?'
p7071
tp7072
a(S'group'
p7073
S'Select the group represented by the image?'
p7074
tp7075
asS'3229898555.jpg'
p7076
(lp7077
(S'feline'
p7078
S'Choose the type of feline present in the image?'
p7079
tp7080
a(S'dramatic composition'
p7081
S'Which dramatic composition is shown in the image?'
p7082
tp7083
asS'2247645547.jpg'
p7084
(lp7085
(S'performer'
p7086
S'What type of performer is present in the image?'
p7087
tp7088
a(S'nutriment'
p7089
S'Select the nutriment represented by the image?'
p7090
tp7091
asS'1472550839.jpg'
p7092
(lp7093
(S'commercial enterprise'
p7094
S'Choose the type of commercial enterprise present in the image?'
p7095
tp7096
a(S'illumination'
p7097
S'Which illumination is shown in the image?'
p7098
tp7099
asS'3338082262.jpg'
p7100
(lp7101
(S'conflagration'
p7102
S'Choose the type of conflagration present in the image?'
p7103
tp7104
a(S'happening'
p7105
S'Which happening is shown in the image?'
p7106
tp7107
asS'488518506.jpg'
p7108
(lp7109
(S'life science'
p7110
S'What type of life science is present in the image?'
p7111
tp7112
a(S'body of water'
p7113
S'Select the body of water represented by the image?'
p7114
tp7115
asS'3472703856.jpg'
p7116
(lp7117
(S'causal agent'
p7118
S'Choose the type of causal agent present in the image?'
p7119
tp7120
a(S'limb'
p7121
S'Which limb is shown in the image?'
p7122
tp7123
asS'3094752171.jpg'
p7124
(lp7125
(S'signboard'
p7126
S'Choose the type of signboard present in the image?'
p7127
tp7128
a(S'promotion'
p7129
S'Which promotion is shown in the image?'
p7130
tp7131
asS'2120512339.jpg'
p7132
(lp7133
(S'diversion'
p7134
S'Choose the type of diversion present in the image?'
p7135
tp7136
a(S'track and field'
p7137
S'Which track and field is shown in the image?'
p7138
tp7139
asS'4947861901.jpg'
p7140
(lp7141
(S'section'
p7142
S'What type of section is present in the image?'
p7143
tp7144
a(S'woody plant'
p7145
S'Select the woody plant represented by the image?'
p7146
tp7147
asS'4839553740.jpg'
p7148
(lp7149
(S'vertebrate'
p7150
S'What type of vertebrate is present in the image?'
p7151
tp7152
a(S'mouth'
p7153
S'Select the mouth represented by the image?'
p7154
tp7155
as.