(lp0
S'What type of nutriment is present in the image ?'
p1
aS'Choose the type of container present in the image ?'
p2
aS'What type of meal is not shown in the image ?'
p3
aS'What type of group is present in the image ?'
p4
aS'Choose the type of burial chamber present in the image ?'
p5
aS'What type of sculpture is not shown in the image ?'
p6
aS'What type of performer is present in the image ?'
p7
aS'Choose the type of representation present in the image ?'
p8
aS'What type of pictorial representation is not shown in the image ?'
p9
aS'What type of water travel is present in the image ?'
p10
aS'Choose the type of paraprofessional present in the image ?'
p11
aS'What type of municipality is present in the image ?'
p12
aS'Choose the type of activity present in the image ?'
p13
aS'What type of section is not shown in the image ?'
p14
aS'What type of horizontal surface is present in the image ?'
p15
aS'Choose the type of building material present in the image ?'
p16
aS'What type of contestant is present in the image ?'
p17
aS'Choose the type of diversion present in the image ?'
p18
aS'What type of blow is not shown in the image ?'
p19
aS'What type of instrumentality is present in the image ?'
p20
aS'Choose the type of commercial enterprise present in the image ?'
p21
aS'What type of causal agent is present in the image ?'
p22
aS'Choose the type of group present in the image ?'
p23
aS'What type of gathering is not shown in the image ?'
p24
aS'What type of juvenile is present in the image ?'
p25
aS'Choose the type of education present in the image ?'
p26
aS'What type of artifact is present in the image ?'
p27
aS'Choose the type of tower present in the image ?'
p28
aS'What type of place of worship is not shown in the image ?'
p29
aS'What type of locomotion is present in the image ?'
p30
aS'Choose the type of disfavor present in the image ?'
p31
aS'What type of causal agent is not shown in the image ?'
p32
ag20
aS'Choose the type of conveyance present in the image ?'
p33
aS'What type of conveyance is not shown in the image ?'
p34
aS'What type of diversion is present in the image ?'
p35
aS'Choose the type of precipitation present in the image ?'
p36
aS'What type of runner is not shown in the image ?'
p37
ag4
ag4
aS'What type of artwork is present in the image ?'
p38
aS'Choose the type of collection present in the image ?'
p39
aS'What type of force is present in the image ?'
p40
ag23
aS'What type of military service is not shown in the image ?'
p41
ag22
aS'What type of point of view is present in the image ?'
p42
aS'What type of paving is present in the image ?'
p43
aS'Choose the type of way present in the image ?'
p44
aS'What type of horizontal surface is not shown in the image ?'
p45
ag35
aS'Choose the type of contestant present in the image ?'
p46
aS'What type of body of water is present in the image ?'
p47
aS'Choose the type of body of water present in the image ?'
p48
aS'What type of outdoor sport is not shown in the image ?'
p49
ag22
aS'Choose the type of bowed stringed instrument present in the image ?'
p50
ag4
aS'Choose the type of unit present in the image ?'
p51
aS'What type of conveyance is present in the image ?'
p52
aS'Choose the type of warship present in the image ?'
p53
aS'What type of martial art is present in the image ?'
p54
ag18
aS'What type of creation is not shown in the image ?'
p55
ag35
aS'Choose the type of other present in the image ?'
p56
aS'What type of natural elevation is present in the image ?'
p57
ag48
aS'What type of geological formation is not shown in the image ?'
p58
aS'What type of gathering is present in the image ?'
p59
aS'Choose the type of dirtiness present in the image ?'
p60
aS'What type of basic cognitive process is not shown in the image ?'
p61
ag52
ag17
ag46
ag7
ag23
aS'What type of auditory communication is not shown in the image ?'
p62
ag52
aS'Choose the type of device present in the image ?'
p63
ag4
aS'Choose the type of causal agent present in the image ?'
p64
ag24
ag59
ag23
aS'What type of traveler is not shown in the image ?'
p65
aS'What type of motion is present in the image ?'
p66
aS'Choose the type of furnishing present in the image ?'
p67
aS'What type of juvenile is not shown in the image ?'
p68
ag35
aS'Choose the type of track and field present in the image ?'
p69
aS'What type of area is present in the image ?'
p70
ag18
aS'What type of track and field is present in the image ?'
p71
aS'Choose the type of fragment present in the image ?'
p72
ag71
ag33
ag22
ag23
ag65
aS'What type of court game is present in the image ?'
p73
ag18
aS'What type of body covering is present in the image ?'
p74
aS'Choose the type of hair present in the image ?'
p75
aS'What type of piciform bird is not shown in the image ?'
p76
ag22
ag23
ag68
aS'What type of activity is present in the image ?'
p77
aS'Choose the type of dramatic composition present in the image ?'
p78
ag68
ag7
aS'Choose the type of musician present in the image ?'
p79
aS'What type of musician is not shown in the image ?'
p80
aS'What type of external body part is present in the image ?'
p81
aS'What type of representation is present in the image ?'
p82
ag64
aS'What type of word picture is not shown in the image ?'
p83
aS'What type of way is present in the image ?'
p84
aS'Choose the type of thoroughfare present in the image ?'
p85
aS'What type of collection is not shown in the image ?'
p86
ag35
aS'Choose the type of vessel present in the image ?'
p87
ag35
aS'Choose the type of wheeled vehicle present in the image ?'
p88
aS'What type of track and field is not shown in the image ?'
p89
ag84
aS'Choose the type of bridge present in the image ?'
p90
aS'What type of supply is not shown in the image ?'
p91
aS'What type of room is present in the image ?'
p92
ag22
aS'Choose the type of hypothesis present in the image ?'
p93
ag89
ag22
aS'Choose the type of limb present in the image ?'
p94
aS'What type of diversion is not shown in the image ?'
p95
ag22
ag23
aS'What type of sport is present in the image ?'
p96
ag23
ag95
ag57
aS'Choose the type of natural elevation present in the image ?'
p97
aS'What type of disfavor is not shown in the image ?'
p98
aS'What type of traveler is present in the image ?'
p99
aS'What type of leisure is present in the image ?'
p100
aS'Choose the type of meal present in the image ?'
p101
ag35
ag12
aS'Choose the type of municipality present in the image ?'
p102
aS'What type of government building is not shown in the image ?'
p103
ag84
aS'Choose the type of horizontal surface present in the image ?'
p104
aS'What type of field is not shown in the image ?'
p105
ag52
aS'Choose the type of motor vehicle present in the image ?'
p106
ag35
aS'Choose the type of skating present in the image ?'
p107
ag89
aS'What type of creation is present in the image ?'
p108
aS'Choose the type of graphic art present in the image ?'
p109
aS'What type of channel is present in the image ?'
p110
ag48
aS'What type of property is not shown in the image ?'
p111
ag77
ag100
ag35
ag46
ag71
aS'Choose the type of garment present in the image ?'
p112
aS'What type of barrier is present in the image ?'
p113
ag18
aS'What type of mechanism is not shown in the image ?'
p114
aS'What type of commercial enterprise is present in the image ?'
p115
ag20
ag33
ag34
aS'What type of lineman is present in the image ?'
p116
ag18
aS'What type of contestant is not shown in the image ?'
p117
aS'What type of objection is present in the image ?'
p118
ag23
ag24
aS'What type of motor is present in the image ?'
p119
ag63
ag35
aS'What type of canine is present in the image ?'
p120
aS'Choose the type of facial hair present in the image ?'
p121
aS'What type of chordate is not shown in the image ?'
p122
ag17
ag39
aS'What type of public transport is present in the image ?'
p123
aS'Choose the type of instrumentality present in the image ?'
p124
ag34
ag35
aS'Choose the type of football play present in the image ?'
p125
aS'What type of activity is not shown in the image ?'
p126
ag20
aS'Choose the type of public transport present in the image ?'
p127
ag34
ag17
aS'What type of climb is present in the image ?'
p128
ag97
aS'What type of natural elevation is not shown in the image ?'
p129
aS'What type of quality is present in the image ?'
p130
aS'Choose the type of field present in the image ?'
p131
aS'What type of woody plant is not shown in the image ?'
p132
ag22
aS'Choose the type of performer present in the image ?'
p133
aS'What type of food is present in the image ?'
p134
aS'Choose the type of angiosperm present in the image ?'
p135
ag126
aS'What type of angiosperm is present in the image ?'
p136
aS'Choose the type of season present in the image ?'
p137
ag89
aS'What type of plastic art is present in the image ?'
p138
aS'What type of dramatic composition is present in the image ?'
p139
ag131
aS'What type of furnishing is not shown in the image ?'
p140
ag22
ag23
ag35
aS'Choose the type of lineman present in the image ?'
p141
ag35
ag13
aS'What type of skating is not shown in the image ?'
p142
ag120
aS'Choose the type of chordate present in the image ?'
p143
aS'What type of vertebrate is not shown in the image ?'
p144
ag59
ag78
ag32
ag139
aS'Choose the type of juvenile present in the image ?'
p145
aS'What type of child is not shown in the image ?'
p146
ag138
ag35
aS'Choose the type of play present in the image ?'
p147
ag47
aS'Choose the type of leisure present in the image ?'
p148
aS'What type of soil is not shown in the image ?'
p149
ag74
aS'Choose the type of adult present in the image ?'
p150
aS'What type of hair is not shown in the image ?'
p151
ag4
aS'Choose the type of gathering present in the image ?'
p152
ag68
ag43
ag33
aS'What type of cycling is not shown in the image ?'
p153
aS'What type of precipitation is present in the image ?'
p154
ag23
aS'What type of atmospheric phenomenon is not shown in the image ?'
p155
ag25
aS'Choose the type of facial expression present in the image ?'
p156
ag144
aS'What type of slope is present in the image ?'
p157
aS'Choose the type of valley present in the image ?'
p158
ag98
ag22
aS'What type of outline is present in the image ?'
p159
aS'Choose the type of pictorial representation present in the image ?'
p160
aS'What type of municipality is not shown in the image ?'
p161
ag15
ag104
aS'What type of adult is present in the image ?'
p162
aS'Choose the type of chemoreceptor present in the image ?'
p163
ag32
ag120
aS'Choose the type of dog present in the image ?'
p164
ag15
aS'Choose the type of plastic art present in the image ?'
p165
ag59
ag130
aS'Choose the type of vegetation present in the image ?'
p166
aS'What type of chromatic color is not shown in the image ?'
p167
ag4
ag148
ag22
ag145
ag120
ag143
ag144
ag20
ag35
aS'Choose the type of sport present in the image ?'
p168
ag22
aS'Choose the type of city district present in the image ?'
p169
ag52
ag35
ag46
ag32
ag12
ag102
aS'What type of way is not shown in the image ?'
p170
ag139
ag145
ag89
ag35
ag64
aS'What type of plain is not shown in the image ?'
p171
ag10
ag48
aS'What type of body of water is not shown in the image ?'
p172
aS'What type of consumer goods is present in the image ?'
p173
ag145
aS'What type of dramatic composition is not shown in the image ?'
p174
aS'What type of percussion instrument is present in the image ?'
p175
aS'Choose the type of percussionist present in the image ?'
p176
aS'What type of percussion instrument is not shown in the image ?'
p177
ag173
aS'Choose the type of chromatic color present in the image ?'
p178
aS'What type of clothing is not shown in the image ?'
p179
aS'What type of facial expression is present in the image ?'
p180
ag64
aS'What type of headdress is not shown in the image ?'
p181
ag35
aS'What type of show is present in the image ?'
p182
aS'Choose the type of athlete present in the image ?'
p183
aS'What type of time period is not shown in the image ?'
p184
ag22
aS'Choose the type of occupational group present in the image ?'
p185
aS'What type of force is not shown in the image ?'
p186
ag120
ag35
aS'Choose the type of boat present in the image ?'
p187
ag126
aS'What type of walk is present in the image ?'
p188
ag64
aS'What type of performer is not shown in the image ?'
p189
ag1
aS'Choose the type of building present in the image ?'
p190
ag182
aS'Choose the type of creation present in the image ?'
p191
aS'What type of art is not shown in the image ?'
p192
aS'What type of estate is present in the image ?'
p193
aS'Choose the type of area present in the image ?'
p194
ag120
aS'What type of facility is present in the image ?'
p195
ag23
ag24
ag4
ag15
ag104
aS'What type of plant material is not shown in the image ?'
p196
ag22
ag150
aS'What type of group is not shown in the image ?'
p197
aS'What type of word picture is present in the image ?'
p198
ag123
ag124
ag34
ag35
aS'Choose the type of descent present in the image ?'
p199
aS'What type of slide is not shown in the image ?'
p200
aS'What type of chromatic color is present in the image ?'
p201
ag178
ag89
ag4
aS'Choose the type of traveler present in the image ?'
p202
aS'What type of locomotion is not shown in the image ?'
p203
ag4
ag64
ag120
ag143
ag144
ag22
ag23
ag95
ag52
ag35
ag56
ag120
ag130
ag18
ag108
aS'Choose the type of sculpture present in the image ?'
p204
aS'What type of ceramic ware is not shown in the image ?'
p205
aS'What type of protective covering is present in the image ?'
p206
aS'Choose the type of religion present in the image ?'
p207
aS'What type of tower is not shown in the image ?'
p208
aS'What type of deceive is present in the image ?'
p209
ag139
aS'Choose the type of water travel present in the image ?'
p210
ag149
ag22
ag23
ag22
ag23
aS'What type of binary compound is not shown in the image ?'
p211
ag206
ag131
aS'What type of railroad track is not shown in the image ?'
p212
aS'What type of pictorial representation is present in the image ?'
p213
aS'Choose the type of person present in the image ?'
p214
aS'What type of hypothesis is not shown in the image ?'
p215
ag136
ag136
aS'Choose the type of old man present in the image ?'
p216
ag17
ag64
aS'What type of occupational group is not shown in the image ?'
p217
ag139
ag182
aS'Choose the type of musical performance present in the image ?'
p218
ag111
aS'What type of creator is present in the image ?'
p219
aS'Choose the type of art present in the image ?'
p220
ag55
ag4
aS'Choose the type of affair present in the image ?'
p221
ag47
aS'Choose the type of supply present in the image ?'
p222
ag58
ag82
ag109
ag55
ag120
ag130
ag64
ag105
ag35
aS'Choose the type of court game present in the image ?'
p223
aS'What type of shore is present in the image ?'
p224
ag13
ag171
ag100
ag64
ag58
ag188
ag44
aS'What type of outline is not shown in the image ?'
p225
aS'What type of position is present in the image ?'
p226
aS'Choose the type of public square present in the image ?'
p227
aS'What type of commercial enterprise is not shown in the image ?'
p228
aS'What type of line is present in the image ?'
p229
aS'Choose the type of plain present in the image ?'
p230
aS'What type of other is not shown in the image ?'
p231
ag35
ag139
ag131
aS'What type of gramineous plant is not shown in the image ?'
p232
ag136
aS'Choose the type of woody plant present in the image ?'
p233
aS'What type of division is not shown in the image ?'
p234
ag173
ag178
aS'What type of angiosperm is not shown in the image ?'
p235
ag47
ag18
ag34
ag226
ag44
ag235
ag120
ag78
ag122
aS'What type of consideration is present in the image ?'
p236
ag48
aS'What type of season is not shown in the image ?'
p237
ag47
aS'Choose the type of consideration present in the image ?'
p238
aS'What type of path is not shown in the image ?'
p239
aS'What type of binary compound is present in the image ?'
p240
aS'What type of soil is present in the image ?'
p241
ag120
ag143
ag144
ag139
aS'Choose the type of canine present in the image ?'
p242
ag144
ag22
ag33
aS'What type of motor vehicle is not shown in the image ?'
p243
ag4
ag21
aS'What type of boat is not shown in the image ?'
p244
aS'What type of attire is present in the image ?'
p245
ag173
ag64
aS'What type of woman is not shown in the image ?'
p246
ag4
aS'Choose the type of movable barrier present in the image ?'
p247
ag140
ag4
ag152
ag173
ag150
aS'What type of adult is not shown in the image ?'
p248
ag35
ag168
ag12
ag202
ag35
ag46
aS'What type of cattle is not shown in the image ?'
p249
ag35
ag69
aS'What type of sport is not shown in the image ?'
p250
ag7
ag63
aS'What type of performance is not shown in the image ?'
p251
ag35
aS'Choose the type of canoe present in the image ?'
p252
aS'What type of vessel is not shown in the image ?'
p253
aS'What type of plot is present in the image ?'
p254
ag135
ag105
ag22
ag23
ag7
ag33
ag80
ag100
ag48
ag253
ag120
ag230
ag144
ag1
ag101
ag235
aS'What type of framework is present in the image ?'
p255
aS'Choose the type of curve present in the image ?'
p256
aS'What type of building is not shown in the image ?'
p257
ag4
ag202
ag10
ag69
ag34
ag47
aS'What type of time period is present in the image ?'
p258
ag173
ag150
ag32
ag108
aS'What type of geological formation is present in the image ?'
p259
aS'Choose the type of shore present in the image ?'
p260
ag58
ag116
ag46
aS'What type of woody plant is present in the image ?'
p261
aS'Choose the type of reproductive structure present in the image ?'
p262
aS'What type of building complex is not shown in the image ?'
p263
ag35
ag13
ag20
ag33
ag34
ag139
ag64
aS'What type of solid is not shown in the image ?'
p264
aS'What type of upper surface is present in the image ?'
p265
ag35
ag22
ag23
aS'What type of promotion is not shown in the image ?'
p266
aS'What type of cur is present in the image ?'
p267
aS'Choose the type of mammal family present in the image ?'
p268
aS'What type of hunting dog is not shown in the image ?'
p269
ag52
aS'Choose the type of wagon present in the image ?'
p270
ag82
ag64
ag197
ag120
ag143
ag144
ag35
ag46
ag117
aS'What type of disfavor is present in the image ?'
p271
ag22
ag187
ag217
ag4
ag4
ag162
aS'Choose the type of child present in the image ?'
p272
ag248
aS'What type of photograph is present in the image ?'
p273
aS'Choose the type of consumer goods present in the image ?'
p274
ag117
aS'What type of collection is present in the image ?'
p275
ag135
ag132
ag154
aS'Choose the type of binary compound present in the image ?'
p276
aS'What type of paving is not shown in the image ?'
p277
ag52
ag106
ag153
aS'What type of vessel is present in the image ?'
p278
ag210
ag239
aS'What type of cooking is present in the image ?'
p279
ag258
ag36
ag237
ag35
aS'Choose the type of natural object present in the image ?'
p280
aS'What type of climb is not shown in the image ?'
p281
ag173
ag135
aS'What type of art is present in the image ?'
p282
aS'Choose the type of show present in the image ?'
p283
ag55
ag182
aS'Choose the type of time period present in the image ?'
p284
ag52
aS'Choose the type of golf stroke present in the image ?'
p285
aS'What type of conference is present in the image ?'
p286
aS'Choose the type of basic cognitive process present in the image ?'
p287
aS'What type of education is not shown in the image ?'
p288
ag52
ag168
aS'What type of motor is not shown in the image ?'
p289
ag162
ag23
aS'What type of athlete is not shown in the image ?'
p290
ag35
aS'Choose the type of rise present in the image ?'
p291
ag126
ag22
ag23
aS'What type of animal skin is not shown in the image ?'
p292
ag173
aS'Choose the type of attire present in the image ?'
p293
ag52
ag106
aS'What type of military vehicle is not shown in the image ?'
p294
ag213
ag191
ag83
aS'What type of wheeled vehicle is present in the image ?'
p295
ag33
ag250
ag241
ag64
aS'What type of external body part is not shown in the image ?'
p296
ag4
ag169
ag215
aS'What type of transmission is present in the image ?'
p297
ag43
ag12
ag145
ag197
ag17
ag64
aS'What type of contact sport is not shown in the image ?'
p298
aS'What type of ceremony is present in the image ?'
p299
aS'Choose the type of conference present in the image ?'
p300
aS'What type of meeting is not shown in the image ?'
p301
ag120
ag143
ag144
ag35
ag46
aS'What type of lineman is not shown in the image ?'
p302
aS'What type of building is present in the image ?'
p303
aS'Choose the type of outline present in the image ?'
p304
aS'What type of office is not shown in the image ?'
p305
aS'What type of tract is present in the image ?'
p306
aS'Choose the type of biome present in the image ?'
p307
aS'What type of grassland is not shown in the image ?'
p308
ag182
ag284
ag55
ag35
aS'Choose the type of ball game present in the image ?'
p309
ag182
aS'Choose the type of performance present in the image ?'
p310
ag189
ag22
aS'Choose the type of speech act present in the image ?'
p311
aS'What type of speech is not shown in the image ?'
p312
aS'What type of collage is present in the image ?'
p313
ag135
ag68
ag35
aS'Choose the type of geological formation present in the image ?'
p314
ag172
ag100
ag64
ag197
ag35
ag64
aS'What type of walk is not shown in the image ?'
p315
ag173
aS'Choose the type of achromatic color present in the image ?'
p316
ag179
ag162
ag46
ag32
ag17
ag183
ag45
ag92
aS'Choose the type of procurator present in the image ?'
p317
ag20
ag33
ag266
ag52
ag190
ag184
aS'What type of musician is present in the image ?'
p318
ag133
ag80
aS'What type of education is present in the image ?'
p319
ag39
ag84
aS'Choose the type of section present in the image ?'
p320
ag161
ag4
aS'What type of dancer is present in the image ?'
p321
ag293
ag271
ag23
ag203
aS'What type of meeting is present in the image ?'
p322
ag23
ag24
ag35
ag13
ag52
ag18
aS'What type of wheeled vehicle is not shown in the image ?'
p323
aS'What type of fire iron is present in the image ?'
p324
ag18
aS'What type of chordophone is present in the image ?'
p325
aS'Choose the type of stringed instrument present in the image ?'
p326
ag140
ag35
ag20
ag33
aS'What type of residence is not shown in the image ?'
p327
aS'What type of water sport is present in the image ?'
p328
ag18
ag25
ag64
ag146
aS'What type of bowed stringed instrument is present in the image ?'
p329
ag283
ag62
aS'What type of outbuilding is present in the image ?'
p330
ag190
ag140
ag35
ag191
ag120
ag143
ag10
ag33
ag35
ag12
aS'Choose the type of residential district present in the image ?'
p331
ag14
ag35
aS'Choose the type of pool present in the image ?'
p332
aS'What type of excavation is not shown in the image ?'
p333
aS'What type of boat is present in the image ?'
p334
ag33
ag52
ag87
ag1
ag2
ag3
ag20
aS'Choose the type of outbuilding present in the image ?'
p335
ag139
ag18
ag89
ag35
ag13
aS'What type of exhibition is not shown in the image ?'
p336
ag35
ag13
ag336
ag120
ag143
ag144
ag52
aS'Choose the type of formation present in the image ?'
p337
aS'What type of barrier is not shown in the image ?'
p338
ag84
ag33
ag244
ag139
ag152
aS'What type of prickly pear is not shown in the image ?'
p339
ag4
ag69
ag22
ag23
ag189
ag92
ag39
ag1
aS'What type of equine is present in the image ?'
p340
ag242
aS'What type of male horse is not shown in the image ?'
p341
ag329
ag79
aS'What type of stringed instrument is not shown in the image ?'
p342
ag226
ag23
ag170
aS'What type of container is present in the image ?'
p343
aS'Choose the type of enterprise present in the image ?'
p344
ag257
ag22
ag191
ag197
ag120
ag35
ag84
ag178
ag161
ag139
ag191
ag68
ag35
ag46
ag173
ag178
ag248
ag136
aS'Choose the type of festival present in the image ?'
p345
ag68
ag139
ag145
ag173
ag46
ag32
ag173
aS'Choose the type of clothing present in the image ?'
p346
ag215
ag173
ag178
aS'What type of shrub is not shown in the image ?'
p347
ag120
aS'Choose the type of vertebrate present in the image ?'
p348
aS'What type of mammal family is not shown in the image ?'
p349
ag313
ag35
ag4
ag190
ag68
ag22
ag137
ag65
ag35
ag78
aS'What type of unit is not shown in the image ?'
p350
ag100
ag23
ag68
ag40
ag274
aS'What type of enlisted person is not shown in the image ?'
p351
ag35
ag87
aS'What type of small boat is not shown in the image ?'
p352
ag47
ag18
ag58
aS'What type of soft-finned fish is present in the image ?'
p353
ag22
ag23
aS'What type of product is not shown in the image ?'
p354
ag120
aS'Choose the type of life present in the image ?'
p355
ag122
ag108
ag133
ag80
ag213
ag191
ag80
aS'What type of meal is present in the image ?'
p356
ag259
ag230
ag129
ag12
ag320
ag170
aS'What type of yard is present in the image ?'
p357
ag328
ag18
aS'What type of board is not shown in the image ?'
p358
ag52
ag337
aS'What type of airplane is not shown in the image ?'
p359
ag154
ag137
ag155
ag84
ag44
ag161
ag259
ag48
ag91
ag22
ag340
aS'Choose the type of soil present in the image ?'
p360
ag182
ag284
ag55
ag22
ag191
ag62
ag22
ag23
ag68
ag188
ag12
aS'Choose the type of protective covering present in the image ?'
p361
ag73
ag18
aS'What type of encouragement is not shown in the image ?'
p362
ag4
ag39
ag319
ag35
ag46
ag30
aS'What type of atmosphere is present in the image ?'
p363
ag18
ag89
ag120
ag143
ag144
ag128
ag97
ag292
ag22
ag337
ag22
ag258
ag152
aS'What type of dance is not shown in the image ?'
p364
ag22
ag23
aS'What type of nutriment is not shown in the image ?'
p365
ag20
ag44
ag65
aS'What type of festival is present in the image ?'
p366
ag284
aS'What type of tract is not shown in the image ?'
p367
aS'What type of gramineous plant is present in the image ?'
p368
ag131
ag303
ag238
aS'What type of structure is not shown in the image ?'
p369
ag130
ag13
ag95
ag120
aS'What type of life science is present in the image ?'
p370
ag33
aS'What type of device is not shown in the image ?'
p371
ag261
aS'Choose the type of shelter present in the image ?'
p372
ag257
ag162
ag133
ag32
aS'What type of tower is present in the image ?'
p373
ag190
ag212
ag52
ag139
ag23
ag34
ag99
ag22
aS'Choose the type of actinic radiation present in the image ?'
p374
aS'What type of illumination is not shown in the image ?'
p375
aS'What type of auditory communication is present in the image ?'
p376
ag284
ag22
ag185
ag186
ag173
ag78
ag68
ag139
ag56
ag68
aS'What type of object is present in the image ?'
p377
ag135
aS'What type of facility is not shown in the image ?'
p378
ag343
aS'Choose the type of substance present in the image ?'
p379
ag365
ag35
ag46
ag136
ag306
ag39
ag22
aS'Choose the type of military service present in the image ?'
p380
ag197
ag59
aS'Choose the type of forest present in the image ?'
p381
ag197
ag35
ag223
ag89
aS'What type of property is present in the image ?'
p382
ag233
aS'What type of biome is not shown in the image ?'
p383
ag120
ag268
aS'What type of skilled worker is present in the image ?'
p384
aS'Choose the type of kabob present in the image ?'
p385
aS'What type of container is not shown in the image ?'
p386
ag366
ag23
ag177
ag77
aS'Choose the type of shop present in the image ?'
p387
aS'What type of substance is not shown in the image ?'
p388
ag1
ag2
ag3
ag303
aS'Choose the type of nutriment present in the image ?'
p389
ag257
aS'What type of device is present in the image ?'
p390
aS'What type of field is present in the image ?'
p391
aS'Choose the type of gramineous plant present in the image ?'
p392
ag34
ag377
ag145
ag105
ag35
ag168
ag34
ag22
ag382
aS'Choose the type of house present in the image ?'
p393
ag231
ag241
ag268
ag377
ag48
ag277
ag173
ag293
ag340
aS'Choose the type of horse present in the image ?'
p394
ag341
ag22
ag23
ag161
ag173
ag137
aS'What type of attire is not shown in the image ?'
p395
ag295
ag33
ag250
ag4
ag135
aS'What type of killer is present in the image ?'
p396
ag100
aS'Choose the type of line present in the image ?'
p397
aS'What type of coral reef is not shown in the image ?'
p398
aS'What type of geological phenomenon is present in the image ?'
p399
aS'Choose the type of adversity present in the image ?'
p400
ag155
ag100
aS'Choose the type of locomotion present in the image ?'
p401
ag32
ag20
ag39
ag343
ag100
ag48
ag34
ag35
ag13
ag323
ag20
ag64
ag34
ag12
ag152
ag257
ag22
ag23
ag140
aS'What type of linear unit is present in the image ?'
p402
aS'Choose the type of paving present in the image ?'
p403
ag239
ag240
ag137
aS'What type of turtle is not shown in the image ?'
p404
ag92
ag247
ag118
ag64
ag197
aS'What type of sculpture is present in the image ?'
p405
aS'Choose the type of workplace present in the image ?'
p406
ag306
aS'Choose the type of footrace present in the image ?'
p407
ag70
ag389
ag108
ag310
ag377
ag165
ag173
ag64
ag181
ag173
ag293
aS'What type of dancer is not shown in the image ?'
p408
ag219
ag283
ag192
aS'What type of hoop is present in the image ?'
p409
ag33
ag243
ag321
ag23
aS'What type of happening is not shown in the image ?'
p410
ag116
ag18
ag20
ag33
ag358
aS'What type of wit is present in the image ?'
p411
ag191
aS'What type of decoration is not shown in the image ?'
p412
ag35
ag173
ag148
ag117
ag25
ag135
ag146
ag35
ag141
ag245
aS'What type of section is present in the image ?'
p413
ag233
aS'What type of position is not shown in the image ?'
p414
ag35
ag46
ag35
aS'Choose the type of water sport present in the image ?'
p415
ag52
ag39
ag266
ag357
aS'Choose the type of linear unit present in the image ?'
p416
ag105
ag35
ag168
ag22
ag23
ag108
aS'Choose the type of decoration present in the image ?'
p417
ag96
ag33
ag159
ag168
aS'What type of visual percept is not shown in the image ?'
p418
ag4
ag373
aS'Choose the type of physical phenomenon present in the image ?'
p419
ag89
ag162
aS'Choose the type of ceremony present in the image ?'
p420
aS'What type of newlywed is not shown in the image ?'
p421
ag59
ag64
ag197
ag70
aS'Choose the type of room present in the image ?'
p422
ag126
ag25
ag272
aS'What type of consumption is not shown in the image ?'
p423
ag162
ag283
ag32
ag20
ag380
ag34
aS'What type of vertebrate is present in the image ?'
p424
ag242
ag349
ag4
ag204
ag173
ag46
aS'What type of body part is not shown in the image ?'
p425
aS'What type of limb is present in the image ?'
p426
aS'Choose the type of extremity present in the image ?'
p427
ag68
ag154
ag52
ag88
aS'What type of newlywed is present in the image ?'
p428
ag150
aS'What type of ceremony is not shown in the image ?'
p429
aS'What type of life is present in the image ?'
p430
aS'Choose the type of land present in the image ?'
p431
ag308
ag343
ag135
ag211
ag52
aS'What type of front is present in the image ?'
p432
aS'Choose the type of dwelling present in the image ?'
p433
ag25
ag145
ag61
ag430
ag233
aS'What type of noisemaker is not shown in the image ?'
p434
ag96
ag33
ag1
aS'Choose the type of dinner present in the image ?'
p435
ag273
ag148
ag32
ag173
ag178
aS"What type of woman's clothing is not shown in the image ?"
p436
ag20
ag245
ag35
ag168
ag34
ag173
aS'Choose the type of body covering present in the image ?'
p437
ag167
ag226
ag28
ag375
ag35
ag13
aS'What type of football play is not shown in the image ?'
p438
aS'What type of soldier is present in the image ?'
p439
ag97
aS'What type of formation is not shown in the image ?'
p440
aS'What type of pointer is present in the image ?'
p441
ag242
aS'What type of combatant is not shown in the image ?'
p442
ag430
ag31
ag144
ag303
ag389
aS'What type of room is not shown in the image ?'
p443
ag35
aS'Choose the type of waterway present in the image ?'
p444
aS'What type of undertaking is not shown in the image ?'
p445
ag35
ag13
ag336
ag130
ag137
ag235
ag343
ag23
ag388
ag162
ag64
ag197
ag35
ag48
ag149
ag35
ag35
ag46
ag162
aS'Choose the type of marital status present in the image ?'
p446
ag32
ag35
ag147
aS'What type of precipitation is not shown in the image ?'
p447
aS'What type of keyboard instrument is present in the image ?'
p448
ag133
ag22
ag150
ag217
aS'What type of partition is present in the image ?'
p449
ag139
aS'What type of preschool is present in the image ?'
p450
aS'What type of occupational group is present in the image ?'
p451
ag64
ag197
ag258
ag343
aS'What type of enterprise is present in the image ?'
p452
ag389
ag443
ag35
ag392
ag105
ag108
ag63
ag261
aS'Choose the type of bird family present in the image ?'
p453
ag234
aS'What type of mammal family is present in the image ?'
p454
aS'Choose the type of hunting dog present in the image ?'
p455
ag35
ag309
ag4
ag303
ag2
ag257
ag430
aS'Choose the type of descend present in the image ?'
p456
ag235
ag52
aS'Choose the type of craft present in the image ?'
p457
ag1
ag2
ag3
ag391
ag403
ag239
ag4
ag13
ag4
ag152
ag24
ag110
aS'Choose the type of stream present in the image ?'
p458
aS'What type of branch is not shown in the image ?'
p459
ag52
ag127
ag173
ag293
ag203
ag17
ag18
aS'What type of bowling is not shown in the image ?'
p460
ag35
ag46
ag22
ag23
ag356
ag59
ag64
ag197
ag1
ag2
ag3
ag84
ag202
ag34
aS'What type of beverage is present in the image ?'
p461
aS'Choose the type of spot present in the image ?'
p462
ag275
ag331
ag71
aS'Choose the type of yard present in the image ?'
p463
aS'What type of expansion is not shown in the image ?'
p464
ag20
ag21
aS'What type of dog is present in the image ?'
p465
ag242
aS'What type of working dog is not shown in the image ?'
p466
ag100
ag190
ag257
ag173
ag293
ag71
ag195
ag245
ag162
aS'Choose the type of auditory communication present in the image ?'
p467
ag189
ag96
ag51
ag4
ag152
ag68
ag258
ag35
ag223
ag461
ag64
aS'What type of alcohol is not shown in the image ?'
p468
ag100
ag48
ag58
ag4
ag463
ag22
ag23
ag70
ag422
ag327
aS'What type of decoration is present in the image ?'
p469
ag191
aS'What type of painting is not shown in the image ?'
p470
ag120
aS'Choose the type of european present in the image ?'
p471
ag4
ag7
ag64
ag80
ag100
ag314
ag95
ag340
aS'Choose the type of male horse present in the image ?'
p472
ag391
ag33
aS'What type of yard is not shown in the image ?'
p473
ag47
ag18
ag250
ag35
ag415
aS'What type of spectacles is not shown in the image ?'
p474
ag4
ag51
ag24
ag12
ag320
ag170
ag35
ag56
ag35
ag210
ag89
ag59
ag23
aS'What type of show is not shown in the image ?'
p475
aS'What type of masonry is present in the image ?'
p476
ag28
aS'What type of partition is not shown in the image ?'
p477
aS'What type of footwear is present in the image ?'
p478
ag18
aS'What type of limb is not shown in the image ?'
p479
ag120
ag33
ag4
ag152
ag35
ag223
ag19
ag295
ag33
ag250
ag20
ag64
ag217
ag240
ag52
ag337
ag173
aS'Choose the type of skirt present in the image ?'
p480
ag442
aS'What type of consumption is present in the image ?'
p481
ag52
aS'Choose the type of small boat present in the image ?'
p482
aS'What type of animal order is not shown in the image ?'
p483
ag20
ag202
aS'What type of enterprise is not shown in the image ?'
p484
aS'What type of instrument is present in the image ?'
p485
ag165
ag120
ag143
ag144
ag22
ag23
aS'What type of completion is not shown in the image ?'
p486
aS'What type of body part is present in the image ?'
p487
aS'What type of substance is present in the image ?'
p488
ag2
ag126
ag17
ag18
ag89
ag25
ag78
aS'What type of leisure is not shown in the image ?'
p489
ag35
ag162
ag64
ag421
ag22
ag23
ag24
ag22
ag185
aS'What type of guitar is not shown in the image ?'
p490
ag59
ag64
ag197
aS'What type of cycling is present in the image ?'
p491
ag33
ag250
ag4
ag102
aS'What type of city district is not shown in the image ?'
p492
ag35
aS'Choose the type of barrier present in the image ?'
p493
aS'What type of sheet metal is not shown in the image ?'
p494
ag84
aS'Choose the type of collage present in the image ?'
p495
aS'What type of thoroughfare is not shown in the image ?'
p496
ag115
ag190
aS'What type of curve is not shown in the image ?'
p497
ag7
ag79
ag80
ag52
ag457
aS'What type of rock is present in the image ?'
p498
aS'Choose the type of climb present in the image ?'
p499
aS'What type of valley is not shown in the image ?'
p500
ag12
ag64
ag197
ag59
ag18
ag197
aS'What type of spot is present in the image ?'
p501
aS'Choose the type of popular music present in the image ?'
p502
ag62
ag198
ag360
ag213
aS'Choose the type of optical instrument present in the image ?'
p503
ag32
ag35
aS'Choose the type of mobilization present in the image ?'
p504
ag34
aS'What type of signboard is present in the image ?'
p505
aS'Choose the type of promotion present in the image ?'
p506
ag4
ag64
ag170
ag52
ag106
aS'What type of car is not shown in the image ?'
p507
aS'What type of season is present in the image ?'
p508
ag18
ag89
ag4
ag74
ag75
ag395
ag35
ag223
ag118
ag152
ag197
ag22
ag23
ag20
ag127
ag34
ag35
ag295
aS'Choose the type of deceive present in the image ?'
p509
ag22
aS'Choose the type of percussion instrument present in the image ?'
p510
ag197
ag399
ag400
aS'What type of residential district is not shown in the image ?'
p511
ag25
ag22
aS'Choose the type of force present in the image ?'
p512
ag303
ag2
ag484
ag120
ag143
ag144
ag377
ag13
ag95
ag22
ag401
ag383
ag35
ag69
ag445
ag35
aS'Choose the type of sound property present in the image ?'
p513
ag17
aS'Choose the type of rescue equipment present in the image ?'
p514
ag95
ag173
ag284
ag395
ag35
ag88
ag84
aS'Choose the type of street present in the image ?'
p515
aS'What type of linear unit is not shown in the image ?'
p516
ag12
ag23
ag492
ag356
ag389
aS'What type of helping is not shown in the image ?'
p517
ag120
ag143
ag195
ag15
aS'Choose the type of wood present in the image ?'
p518
ag140
ag452
aS'Choose the type of grocery store present in the image ?'
p519
ag173
ag145
ag179
ag35
ag360
ag440
ag4
ag221
ag410
ag35
ag46
ag290
ag12
ag169
ag34
ag35
ag64
ag89
ag441
ag242
ag144
ag182
ag220
ag55
ag22
ag23
aS'What type of animal skin is present in the image ?'
p520
ag22
ag35
ag69
ag234
ag59
ag152
ag197
ag99
ag44
aS'What type of clue is not shown in the image ?'
p521
ag116
ag46
ag117
ag4
ag135
ag24
ag35
aS'Choose the type of cheer present in the image ?'
p522
aS'What type of aerosol is present in the image ?'
p523
ag355
aS'What type of fog is not shown in the image ?'
p524
ag22
ag23
ag491
ag33
ag323
ag173
ag293
aS'What type of garment is not shown in the image ?'
p525
aS'What type of clothing is present in the image ?'
p526
ag64
ag342
ag377
ag88
ag239
ag47
ag145
ag211
aS'What type of dirtiness is present in the image ?'
p527
aS'Choose the type of output present in the image ?'
p528
ag149
ag108
aS'Choose the type of visual communication present in the image ?'
p529
ag412
ag154
ag191
aS'What type of water travel is not shown in the image ?'
p530
ag120
ag143
ag52
ag48
ag530
ag12
aS'Choose the type of position present in the image ?'
p531
ag161
ag35
ag13
ag323
ag77
ag39
aS'What type of linguistic process is not shown in the image ?'
p532
ag162
ag64
ag197
ag182
ag64
ag189
ag182
ag191
ag184
ag1
aS'Choose the type of speech present in the image ?'
p533
ag197
ag35
ag187
ag126
ag35
ag36
ag4
ag135
ag24
ag413
ag44
ag257
ag4
ag33
ag153
ag100
aS'Choose the type of community present in the image ?'
p534
ag89
ag508
ag36
aS'What type of public transport is not shown in the image ?'
p535
ag139
ag69
ag146
ag154
aS'Choose the type of atmospheric phenomenon present in the image ?'
p536
aS'What type of conflagration is present in the image ?'
p537
aS'Choose the type of happening present in the image ?'
p538
ag32
ag261
aS'What type of hour is present in the image ?'
p539
ag35
aS'What type of vacation is present in the image ?'
p540
ag35
ag291
ag445
ag173
aS'Choose the type of visual property present in the image ?'
p541
aS'What type of person is not shown in the image ?'
p542
ag22
ag23
ag68
ag22
ag133
aS'What type of musical performance is not shown in the image ?'
p543
ag120
ag143
ag144
aS'What type of mouth is present in the image ?'
p544
ag143
ag144
ag488
aS'Choose the type of ruminant present in the image ?'
p545
ag249
ag261
ag67
ag235
ag261
ag190
ag235
ag173
aS'Choose the type of trouser present in the image ?'
p546
ag32
ag25
ag64
ag248
ag17
ag18
aS'What type of pool is not shown in the image ?'
p547
ag120
ag137
ag122
ag22
ag23
ag65
ag261
ag131
ag35
aS'Choose the type of martial art present in the image ?'
p548
aS'What type of martial art is not shown in the image ?'
p549
aS'What type of thoroughfare is present in the image ?'
p550
aS'Choose the type of clue present in the image ?'
p551
ag86
ag99
ag35
ag472
ag35
ag46
ag411
ag23
aS'What type of drawing is not shown in the image ?'
p552
ag1
ag2
ag388
ag35
ag233
ag89
aS'What type of headdress is present in the image ?'
p553
ag274
ag117
ag17
ag18
ag126
ag173
ag283
ag55
ag52
ag241
ag48
ag432
ag506
ag162
aS'Choose the type of hour present in the image ?'
p554
ag32
ag22
ag57
ag88
ag295
ag282
ag391
ag178
ag132
ag22
ag23
ag24
ag1
ag26
ag282
ag64
ag55
ag7
aS'Choose the type of music present in the image ?'
p555
ag80
ag35
ag223
ag35
ag1
ag4
ag64
ag20
aS'Choose the type of railway present in the image ?'
p556
ag52
aS'Choose the type of cattle present in the image ?'
p557
aS'What type of farm is not shown in the image ?'
p558
ag59
ag23
ag24
ag52
aS'Choose the type of solid present in the image ?'
p559
aS'What type of framework is not shown in the image ?'
p560
ag424
aS'Choose the type of gallinaceous bird present in the image ?'
p561
aS'What type of chicken is not shown in the image ?'
p562
ag35
ag36
ag250
ag544
ag348
ag122
ag162
aS'Choose the type of newlywed present in the image ?'
p563
ag248
ag343
ag389
ag257
ag84
ag102
ag170
ag120
ag348
ag341
ag35
aS'Choose the type of orthopterous insect present in the image ?'
p564
ag108
ag284
ag367
ag130
ag137
ag383
aS'What type of city district is present in the image ?'
p565
ag227
ag35
ag7
aS'Choose the type of musical organization present in the image ?'
p566
ag251
ag377
aS'Choose the type of comfort present in the image ?'
p567
ag35
ag223
aS'What type of painting is present in the image ?'
p568
ag320
ag323
ag52
ag284
aS'What type of swimmer is present in the image ?'
p569
ag415
ag95
ag241
aS'Choose the type of verbal creation present in the image ?'
p570
ag172
ag258
ag377
ag233
ag263
ag382
ag131
aS'What type of workplace is not shown in the image ?'
p571
ag295
ag22
ag23
ag182
ag310
ag189
ag35
ag46
ag117
ag84
ag39
aS'What type of instrumentality is not shown in the image ?'
p572
ag35
ag252
ag244
ag162
ag150
ag32
ag35
ag13
ag142
aS'What type of land is present in the image ?'
p573
ag97
ag129
ag1
ag2
ag388
ag35
ag392
ag298
ag52
ag106
ag250
ag295
ag108
ag226
ag227
ag228
ag113
ag73
ag18
aS'What type of court game is not shown in the image ?'
p574
ag7
ag310
ag475
ag35
ag33
ag57
ag499
ag129
aS'What type of chordate is present in the image ?'
p575
ag348
aS'What type of living thing is not shown in the image ?'
p576
ag1
ag344
ag139
ag60
ag68
ag35
ag23
ag173
ag293
ag7
ag64
ag80
ag35
aS'Choose the type of cycling present in the image ?'
p577
ag250
ag74
ag75
ag68
ag74
ag75
ag296
aS'What type of conveyer belt is present in the image ?'
p578
aS'Choose the type of tract present in the image ?'
p579
aS'What type of old man is not shown in the image ?'
p580
ag22
ag94
ag95
ag1
ag78
ag197
aS'What type of arthropod genus is present in the image ?'
p581
ag33
aS'What type of motorboat is not shown in the image ?'
p582
ag162
ag214
aS'What type of spot is not shown in the image ?'
p583
ag35
ag93
ag1
ag190
ag173
ag191
ag583
ag259
ag148
aS'What type of sandbank is not shown in the image ?'
p584
aS'What type of brome is present in the image ?'
p585
ag13
aS'What type of artifact is not shown in the image ?'
p586
ag17
ag18
ag32
ag20
ag127
ag34
ag173
ag64
ag217
ag295
ag18
aS'What type of waterway is not shown in the image ?'
p587
ag162
aS'What type of hypothesis is present in the image ?'
p588
ag150
aS'What type of collage is not shown in the image ?'
p589
ag154
ag137
ag383
ag4
ag100
ag48
ag225
aS'What type of region is present in the image ?'
p590
aS'Choose the type of partition present in the image ?'
p591
ag470
ag182
ag284
ag62
ag110
ag33
ag244
ag35
ag173
aS'Choose the type of dancer present in the image ?'
p592
ag4
aS'Choose the type of woman present in the image ?'
p593
ag136
ag25
ag78
ag32
ag501
ag593
aS'What type of popular music is not shown in the image ?'
p594
ag25
ag78
ag146
ag120
ag143
ag144
aS'What type of athlete is present in the image ?'
p595
ag593
ag395
ag59
ag102
ag161
ag173
ag178
ag342
ag565
aS'Choose the type of buying present in the image ?'
p596
ag295
ag18
ag126
ag59
ag23
ag52
ag23
aS'What type of conflagration is not shown in the image ?'
p597
ag84
ag320
ag496
ag295
ag33
aS'What type of grounder is not shown in the image ?'
p598
aS'What type of other is present in the image ?'
p599
ag46
ag544
ag242
ag144
ag120
ag348
ag173
ag56
ag179
ag35
ag223
aS'What type of swimming stroke is present in the image ?'
p600
ag18
aS'What type of water sport is not shown in the image ?'
p601
ag505
ag506
ag170
ag4
ag152
ag35
ag168
ag22
ag23
ag217
ag357
ag190
aS'What type of commodity is not shown in the image ?'
p602
ag108
ag23
aS'What type of plastic art is not shown in the image ?'
p603
ag52
ag48
ag244
ag84
ag102
ag161
ag120
ag143
ag144
ag22
ag23
ag217
ag35
ag22
ag533
ag173
aS'Choose the type of property present in the image ?'
p604
aS'What type of bar is not shown in the image ?'
p605
ag4
ag33
ag258
ag35
ag46
ag19
ag599
ag48
ag4
ag35
ag20
ag33
ag440
ag35
ag283
aS'What type of basin is not shown in the image ?'
p606
ag527
ag135
ag571
aS'What type of figure is present in the image ?'
p607
ag506
ag108
ag7
ag283
ag55
ag35
ag548
aS'What type of production is present in the image ?'
p608
ag7
ag283
ag32
aS'What type of dead person is present in the image ?'
p609
ag52
ag165
ag22
ag23
ag203
ag4
ag35
ag64
ag479
ag20
ag33
ag266
ag154
ag33
ag95
ag35
ag88
ag343
ag22
ag94
ag68
ag47
ag314
ag489
ag35
ag564
ag120
ag143
ag144
ag213
ag8
ag55
ag295
ag417
ag470
ag136
ag233
ag263
ag35
ag548
ag84
ag33
ag447
ag52
ag106
ag507
aS'What type of plain is present in the image ?'
p610
ag39
ag22
ag23
ag12
ag23
ag211
ag261
ag148
ag263
ag120
aS'Choose the type of shepherd dog present in the image ?'
p611
ag122
ag4
ag102
ag24
ag182
ag191
ag192
ag59
ag23
ag32
ag7
ag79
ag22
ag23
ag68
aS'What type of sign is present in the image ?'
p612
aS'Choose the type of structure present in the image ?'
p613
ag136
ag379
ag162
ag64
ag55
ag4
ag152
ag55
ag20
ag23
ag34
ag47
ag278
ag210
ag244
aS'What type of concave shape is present in the image ?'
p614
ag579
ag182
ag191
ag192
ag35
ag141
ag173
ag135
ag395
ag35
ag46
ag209
ag18
ag225
aS'What type of speech act is present in the image ?'
p615
ag508
aS'Choose the type of animal skin present in the image ?'
p616
ag95
ag424
ag557
ag349
ag17
ag18
ag80
ag130
aS'Choose the type of basin present in the image ?'
p617
aS'What type of natural depression is not shown in the image ?'
p618
ag120
aS'Choose the type of equine present in the image ?'
p619
aS'What type of horse is not shown in the image ?'
p620
ag7
ag1
ag77
ag148
ag95
ag568
ag191
ag228
ag17
ag223
ag95
ag59
ag64
ag197
ag52
ag69
ag35
ag35
ag69
ag25
ag152
ag197
ag35
ag78
ag126
ag22
ag23
ag189
aS'What type of feline is present in the image ?'
p621
ag78
ag7
ag389
ag115
aS'Choose the type of illumination present in the image ?'
p622
ag184
ag370
ag48
ag587
ag108
ag21
aS'What type of presentation is not shown in the image ?'
p623
ag424
aS'Choose the type of mouth present in the image ?'
p624
ag122
a.