(lp0
S'What type of nutriment is present in the image ?'
p1
aS'Select the container represented by the image ?'
p2
aS'Choose the type of group present in the image ?'
p3
aS'Which burial chamber is shown in the image ?'
p4
aS'What type of performer is present in the image ?'
p5
aS'Select the representation represented by the image ?'
p6
aS'Choose the type of water travel present in the image ?'
p7
aS'Which paraprofessional is shown in the image ?'
p8
aS'What type of municipality is present in the image ?'
p9
aS'Select the activity represented by the image ?'
p10
aS'Choose the type of horizontal surface present in the image ?'
p11
aS'Which building material is shown in the image ?'
p12
aS'What type of contestant is present in the image ?'
p13
aS'Select the diversion represented by the image ?'
p14
aS'Choose the type of instrumentality present in the image ?'
p15
aS'Which commercial enterprise is shown in the image ?'
p16
aS'What type of causal agent is present in the image ?'
p17
aS'Select the group represented by the image ?'
p18
aS'What type of juvenile is present in the image ?'
p19
aS'Select the education represented by the image ?'
p20
aS'What type of artifact is present in the image ?'
p21
aS'Select the tower represented by the image ?'
p22
aS'Choose the type of locomotion present in the image ?'
p23
aS'Which disfavor is shown in the image ?'
p24
aS'What type of instrumentality is present in the image ?'
p25
aS'Select the conveyance represented by the image ?'
p26
aS'Choose the type of diversion present in the image ?'
p27
aS'Which precipitation is shown in the image ?'
p28
aS'What type of group is present in the image ?'
p29
ag3
aS'What type of artwork is present in the image ?'
p30
aS'Select the collection represented by the image ?'
p31
aS'Choose the type of force present in the image ?'
p32
aS'Which group is shown in the image ?'
p33
ag17
aS'Choose the type of point of view present in the image ?'
p34
aS'What type of paving is present in the image ?'
p35
aS'Select the way represented by the image ?'
p36
ag27
aS'Which contestant is shown in the image ?'
p37
aS'What type of body of water is present in the image ?'
p38
aS'Select the body of water represented by the image ?'
p39
aS'Choose the type of causal agent present in the image ?'
p40
aS'Which bowed stringed instrument is shown in the image ?'
p41
ag29
aS'Select the unit represented by the image ?'
p42
aS'Choose the type of conveyance present in the image ?'
p43
aS'Which warship is shown in the image ?'
p44
aS'What type of martial art is present in the image ?'
p45
ag14
ag27
aS'Which other is shown in the image ?'
p46
aS'What type of natural elevation is present in the image ?'
p47
ag39
aS'Choose the type of gathering present in the image ?'
p48
aS'Which dirtiness is shown in the image ?'
p49
aS'What type of conveyance is present in the image ?'
p50
aS'Choose the type of contestant present in the image ?'
p51
ag37
ag5
ag18
ag43
aS'Which device is shown in the image ?'
p52
ag29
aS'Select the causal agent represented by the image ?'
p53
ag48
ag33
aS'What type of motion is present in the image ?'
p54
aS'Select the furnishing represented by the image ?'
p55
ag27
aS'Which track and field is shown in the image ?'
p56
aS'What type of area is present in the image ?'
p57
ag14
aS'Choose the type of track and field present in the image ?'
p58
aS'Which fragment is shown in the image ?'
p59
aS'What type of track and field is present in the image ?'
p60
ag26
ag40
ag33
aS'What type of court game is present in the image ?'
p61
ag14
aS'Choose the type of body covering present in the image ?'
p62
aS'Which hair is shown in the image ?'
p63
ag17
ag18
aS'What type of activity is present in the image ?'
p64
aS'Select the dramatic composition represented by the image ?'
p65
ag5
aS'Select the musician represented by the image ?'
p66
aS'Choose the type of external body part present in the image ?'
p67
aS'What type of representation is present in the image ?'
p68
ag53
aS'Choose the type of way present in the image ?'
p69
aS'Which thoroughfare is shown in the image ?'
p70
aS'What type of diversion is present in the image ?'
p71
aS'Select the vessel represented by the image ?'
p72
ag27
aS'Which wheeled vehicle is shown in the image ?'
p73
aS'What type of way is present in the image ?'
p74
aS'Select the bridge represented by the image ?'
p75
aS'Choose the type of room present in the image ?'
p76
ag17
aS'Select the hypothesis represented by the image ?'
p77
ag40
aS'Which limb is shown in the image ?'
p78
ag17
ag18
aS'Choose the type of sport present in the image ?'
p79
ag33
ag47
aS'Select the natural elevation represented by the image ?'
p80
aS'Choose the type of traveler present in the image ?'
p81
aS'What type of leisure is present in the image ?'
p82
aS'Select the meal represented by the image ?'
p83
ag27
ag9
aS'Select the municipality represented by the image ?'
p84
ag69
aS'Which horizontal surface is shown in the image ?'
p85
ag43
aS'Which motor vehicle is shown in the image ?'
p86
ag71
aS'Select the skating represented by the image ?'
p87
aS'Choose the type of creation present in the image ?'
p88
aS'Which graphic art is shown in the image ?'
p89
aS'What type of channel is present in the image ?'
p90
ag39
aS'Choose the type of activity present in the image ?'
p91
ag82
ag27
ag37
ag60
aS'Select the garment represented by the image ?'
p92
aS'Choose the type of barrier present in the image ?'
p93
aS'Which diversion is shown in the image ?'
p94
aS'What type of commercial enterprise is present in the image ?'
p95
ag15
aS'Which conveyance is shown in the image ?'
p96
aS'What type of lineman is present in the image ?'
p97
ag14
aS'Choose the type of objection present in the image ?'
p98
ag33
aS'What type of motor is present in the image ?'
p99
aS'Select the device represented by the image ?'
p100
ag27
aS'What type of canine is present in the image ?'
p101
aS'Select the facial hair represented by the image ?'
p102
ag51
aS'Which collection is shown in the image ?'
p103
aS'What type of public transport is present in the image ?'
p104
aS'Select the instrumentality represented by the image ?'
p105
ag27
aS'Which football play is shown in the image ?'
p106
ag25
aS'Select the public transport represented by the image ?'
p107
ag51
aS'What type of climb is present in the image ?'
p108
ag80
aS'Choose the type of quality present in the image ?'
p109
aS'Which field is shown in the image ?'
p110
ag17
aS'Select the performer represented by the image ?'
p111
aS'Choose the type of food present in the image ?'
p112
aS'Which angiosperm is shown in the image ?'
p113
aS'What type of angiosperm is present in the image ?'
p114
aS'Select the season represented by the image ?'
p115
aS'Choose the type of plastic art present in the image ?'
p116
aS'What type of dramatic composition is present in the image ?'
p117
aS'Select the field represented by the image ?'
p118
ag40
ag33
ag71
aS'Select the lineman represented by the image ?'
p119
ag27
aS'Which activity is shown in the image ?'
p120
ag101
aS'Select the chordate represented by the image ?'
p121
ag48
aS'Which dramatic composition is shown in the image ?'
p122
ag117
aS'Select the juvenile represented by the image ?'
p123
ag116
ag71
aS'Select the play represented by the image ?'
p124
aS'Choose the type of body of water present in the image ?'
p125
aS'Which leisure is shown in the image ?'
p126
aS'What type of body covering is present in the image ?'
p127
aS'Select the adult represented by the image ?'
p128
ag3
aS'Which gathering is shown in the image ?'
p129
ag35
ag26
aS'Choose the type of precipitation present in the image ?'
p130
ag33
ag19
aS'Select the facial expression represented by the image ?'
p131
aS'Choose the type of slope present in the image ?'
p132
aS'Which valley is shown in the image ?'
p133
ag17
aS'Choose the type of outline present in the image ?'
p134
aS'Which pictorial representation is shown in the image ?'
p135
aS'What type of horizontal surface is present in the image ?'
p136
aS'Select the horizontal surface represented by the image ?'
p137
aS'Choose the type of adult present in the image ?'
p138
aS'Which chemoreceptor is shown in the image ?'
p139
aS'Choose the type of canine present in the image ?'
p140
aS'Which dog is shown in the image ?'
p141
ag11
aS'Which plastic art is shown in the image ?'
p142
aS'What type of gathering is present in the image ?'
p143
ag109
aS'Which vegetation is shown in the image ?'
p144
ag29
aS'Select the leisure represented by the image ?'
p145
ag40
aS'Which juvenile is shown in the image ?'
p146
ag101
ag121
ag15
ag71
aS'Select the sport represented by the image ?'
p147
ag40
aS'Which city district is shown in the image ?'
p148
ag50
ag27
ag37
ag9
ag84
aS'Choose the type of dramatic composition present in the image ?'
p149
ag146
ag71
ag53
ag7
aS'Which body of water is shown in the image ?'
p150
aS'What type of consumer goods is present in the image ?'
p151
ag123
aS'Choose the type of percussion instrument present in the image ?'
p152
aS'Which percussionist is shown in the image ?'
p153
ag151
aS'Select the chromatic color represented by the image ?'
p154
aS'Choose the type of facial expression present in the image ?'
p155
aS'Which causal agent is shown in the image ?'
p156
ag71
aS'Choose the type of show present in the image ?'
p157
aS'Which athlete is shown in the image ?'
p158
ag17
aS'Select the occupational group represented by the image ?'
p159
ag140
ag71
aS'Select the boat represented by the image ?'
p160
aS'Choose the type of walk present in the image ?'
p161
ag156
ag1
aS'Select the building represented by the image ?'
p162
ag157
aS'Which creation is shown in the image ?'
p163
aS'What type of estate is present in the image ?'
p164
aS'Select the area represented by the image ?'
p165
ag140
aS'What type of facility is present in the image ?'
p166
ag18
ag3
ag136
ag137
ag40
aS'Which adult is shown in the image ?'
p167
aS'What type of word picture is present in the image ?'
p168
aS'Choose the type of public transport present in the image ?'
p169
aS'Which instrumentality is shown in the image ?'
p170
ag71
aS'Select the descent represented by the image ?'
p171
aS'Choose the type of chromatic color present in the image ?'
p172
aS'Which chromatic color is shown in the image ?'
p173
ag29
aS'Select the traveler represented by the image ?'
p174
ag3
ag156
ag101
ag121
ag40
ag33
ag50
ag27
ag46
ag101
ag109
ag94
aS'What type of creation is present in the image ?'
p175
aS'Select the sculpture represented by the image ?'
p176
aS'Choose the type of protective covering present in the image ?'
p177
aS'Which religion is shown in the image ?'
p178
aS'What type of deceive is present in the image ?'
p179
ag149
aS'Which water travel is shown in the image ?'
p180
ag17
ag18
ag40
ag33
aS'What type of protective covering is present in the image ?'
p181
ag118
aS'Choose the type of pictorial representation present in the image ?'
p182
aS'Which person is shown in the image ?'
p183
ag114
ag114
aS'Select the old man represented by the image ?'
p184
ag13
ag53
ag149
aS'What type of show is present in the image ?'
p185
aS'Select the musical performance represented by the image ?'
p186
aS'Choose the type of creator present in the image ?'
p187
aS'Which art is shown in the image ?'
p188
ag29
aS'Select the affair represented by the image ?'
p189
ag125
aS'Which supply is shown in the image ?'
p190
ag68
aS'Select the graphic art represented by the image ?'
p191
ag101
aS'What type of quality is present in the image ?'
p192
ag53
ag27
aS'Which court game is shown in the image ?'
p193
aS'What type of shore is present in the image ?'
p194
ag10
aS'Choose the type of leisure present in the image ?'
p195
ag156
aS'What type of walk is present in the image ?'
p196
ag36
aS'Choose the type of position present in the image ?'
p197
aS'Which public square is shown in the image ?'
p198
aS'What type of line is present in the image ?'
p199
aS'Select the plain represented by the image ?'
p200
ag27
ag117
ag118
aS'Choose the type of angiosperm present in the image ?'
p201
aS'Which woody plant is shown in the image ?'
p202
ag151
ag154
ag125
ag94
aS'What type of position is present in the image ?'
p203
ag36
ag140
ag122
aS'What type of consideration is present in the image ?'
p204
ag39
ag125
aS'Which consideration is shown in the image ?'
p205
aS'What type of binary compound is present in the image ?'
p206
aS'Choose the type of soil present in the image ?'
p207
ag101
ag121
ag117
aS'Select the canine represented by the image ?'
p208
ag40
ag96
ag29
aS'Select the commercial enterprise represented by the image ?'
p209
aS'Choose the type of attire present in the image ?'
p210
ag151
ag53
ag3
aS'Which movable barrier is shown in the image ?'
p211
ag29
aS'Select the gathering represented by the image ?'
p212
aS'Choose the type of consumer goods present in the image ?'
p213
ag167
ag71
ag147
aS'Choose the type of municipality present in the image ?'
p214
aS'Which traveler is shown in the image ?'
p215
ag71
aS'Select the contestant represented by the image ?'
p216
ag27
ag56
ag5
ag100
ag27
aS'Which canoe is shown in the image ?'
p217
aS'What type of plot is present in the image ?'
p218
aS'Select the angiosperm represented by the image ?'
p219
ag40
ag33
ag5
ag26
ag195
ag150
ag101
ag200
aS'Choose the type of nutriment present in the image ?'
p220
aS'Which meal is shown in the image ?'
p221
aS'What type of framework is present in the image ?'
p222
aS'Select the curve represented by the image ?'
p223
ag3
ag215
aS'What type of water travel is present in the image ?'
p224
aS'Select the track and field represented by the image ?'
p225
ag125
aS'What type of time period is present in the image ?'
p226
ag213
ag167
ag175
aS'Choose the type of geological formation present in the image ?'
p227
aS'Which shore is shown in the image ?'
p228
aS'Choose the type of lineman present in the image ?'
p229
ag37
aS'What type of woody plant is present in the image ?'
p230
aS'Select the reproductive structure represented by the image ?'
p231
ag27
ag120
ag25
ag26
ag149
ag156
aS'What type of upper surface is present in the image ?'
p232
ag27
ag17
ag18
aS'Choose the type of cur present in the image ?'
p233
aS'Which mammal family is shown in the image ?'
p234
ag50
aS'Select the wagon represented by the image ?'
p235
aS'Choose the type of representation present in the image ?'
p236
ag156
ag101
ag121
ag71
ag216
aS'What type of disfavor is present in the image ?'
p237
ag40
aS'Which boat is shown in the image ?'
p238
ag29
ag3
aS'What type of adult is present in the image ?'
p239
aS'Select the child represented by the image ?'
p240
aS'Choose the type of photograph present in the image ?'
p241
aS'Which consumer goods is shown in the image ?'
p242
aS'What type of collection is present in the image ?'
p243
ag219
ag130
aS'Which binary compound is shown in the image ?'
p244
ag50
aS'Select the motor vehicle represented by the image ?'
p245
aS'Choose the type of vessel present in the image ?'
p246
ag180
aS'What type of cooking is present in the image ?'
p247
aS'Choose the type of time period present in the image ?'
p248
ag28
ag71
aS'Select the natural object represented by the image ?'
p249
ag213
ag113
aS'What type of art is present in the image ?'
p250
aS'Select the show represented by the image ?'
p251
ag157
aS'Which time period is shown in the image ?'
p252
ag50
aS'Select the golf stroke represented by the image ?'
p253
aS'Choose the type of conference present in the image ?'
p254
aS'Which basic cognitive process is shown in the image ?'
p255
ag50
ag147
ag138
ag33
ag71
aS'Select the rise represented by the image ?'
p256
ag40
ag33
ag151
aS'Select the attire represented by the image ?'
p257
ag43
ag86
aS'What type of pictorial representation is present in the image ?'
p258
aS'Select the creation represented by the image ?'
p259
aS'Choose the type of wheeled vehicle present in the image ?'
p260
ag96
aS'What type of soil is present in the image ?'
p261
ag53
ag3
ag148
aS'What type of transmission is present in the image ?'
p262
ag35
ag9
ag123
ag51
ag156
aS'What type of ceremony is present in the image ?'
p263
aS'Select the conference represented by the image ?'
p264
ag140
aS'Which chordate is shown in the image ?'
p265
ag71
ag216
aS'Choose the type of building present in the image ?'
p266
aS'Which outline is shown in the image ?'
p267
aS'What type of tract is present in the image ?'
p268
aS'Select the biome represented by the image ?'
p269
ag157
ag252
ag71
aS'Select the ball game represented by the image ?'
p270
ag157
aS'Which performance is shown in the image ?'
p271
ag17
aS'Select the speech act represented by the image ?'
p272
aS'What type of collage is present in the image ?'
p273
ag219
ag27
aS'Which geological formation is shown in the image ?'
p274
ag82
ag53
ag27
ag156
ag151
aS'Select the achromatic color represented by the image ?'
p275
ag138
ag37
ag13
aS'Select the athlete represented by the image ?'
p276
ag76
aS'Which procurator is shown in the image ?'
p277
ag25
ag26
ag43
aS'Which building is shown in the image ?'
p278
aS'What type of musician is present in the image ?'
p279
ag111
aS'What type of education is present in the image ?'
p280
ag31
ag69
aS'Which section is shown in the image ?'
p281
ag29
aS'Choose the type of dancer present in the image ?'
p282
aS'Which attire is shown in the image ?'
p283
ag237
ag18
aS'Choose the type of meeting present in the image ?'
p284
ag33
ag71
ag10
ag43
ag94
aS'What type of fire iron is present in the image ?'
p285
ag14
aS'Choose the type of chordophone present in the image ?'
p286
aS'Which stringed instrument is shown in the image ?'
p287
ag71
ag15
ag96
aS'What type of water sport is present in the image ?'
p288
ag14
aS'Choose the type of juvenile present in the image ?'
p289
ag156
aS'What type of bowed stringed instrument is present in the image ?'
p290
ag251
aS'Choose the type of outbuilding present in the image ?'
p291
ag278
ag27
ag163
ag101
ag121
ag7
ag96
ag71
ag214
aS'Which residential district is shown in the image ?'
p292
ag71
aS'Select the pool represented by the image ?'
p293
aS'Choose the type of boat present in the image ?'
p294
ag96
ag50
ag72
ag220
aS'Which container is shown in the image ?'
p295
ag25
aS'Select the outbuilding represented by the image ?'
p296
ag117
ag14
ag27
ag120
ag71
ag10
ag140
ag265
ag50
aS'Select the formation represented by the image ?'
p297
ag69
ag96
ag117
ag212
ag3
ag56
ag17
ag18
ag76
ag103
ag1
aS'Choose the type of equine present in the image ?'
p298
aS'Which canine is shown in the image ?'
p299
ag290
ag66
ag197
ag33
aS'What type of container is present in the image ?'
p300
aS'Select the enterprise represented by the image ?'
p301
ag40
ag163
ag101
ag27
ag74
ag154
ag149
ag163
ag71
ag216
ag213
ag173
ag114
aS'Select the festival represented by the image ?'
p302
ag149
ag146
ag151
ag216
ag213
aS'Which clothing is shown in the image ?'
p303
ag151
ag154
ag140
aS'Which vertebrate is shown in the image ?'
p304
ag273
ag27
ag3
ag278
ag17
ag115
ag27
ag122
ag82
ag18
ag32
ag242
ag71
ag72
ag125
ag94
aS'What type of soft-finned fish is present in the image ?'
p305
ag40
ag33
ag101
aS'Select the life represented by the image ?'
p306
ag88
aS'Which performer is shown in the image ?'
p307
ag258
ag259
aS'What type of meal is present in the image ?'
p308
aS'What type of geological formation is present in the image ?'
p309
ag200
ag214
ag281
aS'What type of yard is present in the image ?'
p310
aS'Choose the type of water sport present in the image ?'
p311
ag94
ag50
ag297
ag130
aS'Which season is shown in the image ?'
p312
ag74
ag36
ag227
ag150
ag17
ag298
aS'Which soil is shown in the image ?'
p313
ag185
aS'Select the time period represented by the image ?'
p314
ag40
ag163
ag17
ag18
ag161
ag9
aS'Select the protective covering represented by the image ?'
p315
aS'Choose the type of court game present in the image ?'
p316
ag94
ag3
ag103
aS'Choose the type of education present in the image ?'
p317
ag71
ag216
ag23
aS'What type of atmosphere is present in the image ?'
p318
ag14
ag140
ag265
ag108
ag80
ag40
aS'Which formation is shown in the image ?'
p319
ag17
ag248
ag129
ag17
ag18
ag15
aS'Which way is shown in the image ?'
p320
aS'What type of festival is present in the image ?'
p321
ag314
aS'Choose the type of gramineous plant present in the image ?'
p322
ag110
aS'What type of building is present in the image ?'
p323
aS'Select the consideration represented by the image ?'
p324
ag109
ag120
ag101
aS'Choose the type of life science present in the image ?'
p325
ag96
ag230
aS'Select the shelter represented by the image ?'
p326
ag138
ag307
aS'What type of tower is present in the image ?'
p327
ag162
ag43
ag117
ag18
ag81
ag40
aS'Which actinic radiation is shown in the image ?'
p328
aS'Choose the type of auditory communication present in the image ?'
p329
ag252
ag17
ag159
ag151
ag65
ag117
aS'Select the other represented by the image ?'
p330
aS'Choose the type of object present in the image ?'
p331
ag113
aS'Choose the type of container present in the image ?'
p332
aS'Which substance is shown in the image ?'
p333
ag27
ag37
ag201
ag268
ag31
ag40
aS'Which military service is shown in the image ?'
p334
ag143
aS'Select the forest represented by the image ?'
p335
ag27
ag193
aS'What type of property is present in the image ?'
p336
aS'Select the woody plant represented by the image ?'
p337
ag140
ag234
aS'What type of skilled worker is present in the image ?'
p338
aS'Select the kabob represented by the image ?'
p339
aS'Choose the type of festival present in the image ?'
p340
ag33
ag64
aS'Select the shop represented by the image ?'
p341
ag1
ag2
ag323
aS'Select the nutriment represented by the image ?'
p342
aS'What type of device is present in the image ?'
p343
aS'Choose the type of field present in the image ?'
p344
aS'Which gramineous plant is shown in the image ?'
p345
aS'What type of object is present in the image ?'
p346
ag123
ag27
aS'Which sport is shown in the image ?'
p347
ag40
aS'Choose the type of property present in the image ?'
p348
aS'Which house is shown in the image ?'
p349
ag261
aS'Select the mammal family represented by the image ?'
p350
ag331
ag150
ag151
ag257
ag298
aS'Which horse is shown in the image ?'
p351
ag17
ag18
ag213
ag312
aS'What type of wheeled vehicle is present in the image ?'
p352
ag26
ag3
ag113
aS'What type of killer is present in the image ?'
p353
ag195
aS'Which line is shown in the image ?'
p354
aS'What type of geological phenomenon is present in the image ?'
p355
aS'Select the adversity represented by the image ?'
p356
ag195
aS'Which locomotion is shown in the image ?'
p357
ag25
ag31
ag332
ag82
ag39
ag27
ag120
ag25
ag53
ag214
ag129
ag17
ag18
aS'Choose the type of linear unit present in the image ?'
p358
aS'Which paving is shown in the image ?'
p359
ag206
ag115
ag76
ag211
aS'What type of objection is present in the image ?'
p360
ag53
aS'Choose the type of sculpture present in the image ?'
p361
aS'Which workplace is shown in the image ?'
p362
ag268
aS'Select the footrace represented by the image ?'
p363
aS'Choose the type of area present in the image ?'
p364
aS'Which nutriment is shown in the image ?'
p365
ag175
aS'Select the performance represented by the image ?'
p366
ag331
ag142
ag151
ag53
ag213
ag283
aS'What type of creator is present in the image ?'
p367
ag251
aS'Choose the type of hoop present in the image ?'
p368
ag96
ag282
ag33
ag97
ag14
ag25
ag26
aS'Choose the type of wit present in the image ?'
p369
ag163
ag27
ag213
ag126
ag19
ag219
ag71
ag119
ag210
aS'What type of section is present in the image ?'
p370
ag337
ag27
ag37
ag71
aS'Select the water sport represented by the image ?'
p371
ag43
ag103
ag310
aS'Select the linear unit represented by the image ?'
p372
ag27
ag347
ag17
ag18
ag88
aS'Which decoration is shown in the image ?'
p373
aS'What type of sport is present in the image ?'
p374
ag26
ag134
ag347
ag3
aS'Choose the type of tower present in the image ?'
p375
aS'Which physical phenomenon is shown in the image ?'
p376
ag239
aS'Select the ceremony represented by the image ?'
p377
ag48
ag156
ag57
aS'Select the room represented by the image ?'
p378
ag289
aS'Which child is shown in the image ?'
p379
ag239
ag251
ag15
ag334
aS'What type of vertebrate is present in the image ?'
p380
ag208
ag3
aS'Which sculpture is shown in the image ?'
p381
ag151
ag216
aS'Choose the type of limb present in the image ?'
p382
aS'Which extremity is shown in the image ?'
p383
aS'What type of precipitation is present in the image ?'
p384
ag43
ag73
aS'Choose the type of newlywed present in the image ?'
p385
ag167
aS'Choose the type of life present in the image ?'
p386
aS'Which land is shown in the image ?'
p387
ag332
ag113
ag50
aS'Choose the type of front present in the image ?'
p388
aS'Which dwelling is shown in the image ?'
p389
ag19
ag123
ag386
ag202
ag374
ag26
ag220
aS'Which dinner is shown in the image ?'
p390
aS'What type of photograph is present in the image ?'
p391
ag145
ag213
ag173
ag25
ag210
ag71
ag147
ag213
aS'Which body covering is shown in the image ?'
p392
ag203
ag22
ag27
ag120
aS'What type of soldier is present in the image ?'
p393
ag80
aS'Choose the type of pointer present in the image ?'
p394
ag299
aS'What type of life is present in the image ?'
p395
aS'Select the disfavor represented by the image ?'
p396
ag266
ag365
ag71
aS'Select the waterway represented by the image ?'
p397
ag27
ag120
ag192
ag115
ag332
ag33
ag239
ag53
ag27
ag150
ag71
ag27
ag37
ag239
aS'Select the marital status represented by the image ?'
p398
ag27
aS'Which play is shown in the image ?'
p399
aS'What type of keyboard instrument is present in the image ?'
p400
ag111
ag40
ag167
aS'What type of partition is present in the image ?'
p401
ag149
aS'What type of preschool is present in the image ?'
p402
aS'Choose the type of occupational group present in the image ?'
p403
ag156
ag226
ag332
aS'What type of enterprise is present in the image ?'
p404
ag342
ag27
ag345
ag175
ag100
aS'Choose the type of woody plant present in the image ?'
p405
aS'Which bird family is shown in the image ?'
p406
aS'What type of mammal family is present in the image ?'
p407
aS'Select the hunting dog represented by the image ?'
p408
ag27
aS'Which ball game is shown in the image ?'
p409
ag29
ag266
ag295
ag395
aS'Select the descend represented by the image ?'
p410
ag43
aS'Which craft is shown in the image ?'
p411
ag1
ag2
aS'What type of field is present in the image ?'
p412
aS'Select the paving represented by the image ?'
p413
ag3
ag120
ag29
ag212
aS'Choose the type of channel present in the image ?'
p414
aS'Which stream is shown in the image ?'
p415
ag50
ag107
ag213
ag283
ag13
ag14
ag27
ag37
ag17
ag18
aS'Choose the type of meal present in the image ?'
p416
ag143
ag53
ag220
ag295
ag69
ag215
aS'What type of beverage is present in the image ?'
p417
aS'Select the spot represented by the image ?'
p418
aS'Choose the type of collection present in the image ?'
p419
ag292
ag60
aS'Select the yard represented by the image ?'
p420
ag15
ag16
aS'What type of dog is present in the image ?'
p421
ag208
ag195
ag278
ag151
ag257
ag58
ag166
aS'What type of attire is present in the image ?'
p422
ag239
aS'Select the auditory communication represented by the image ?'
p423
ag79
aS'Which unit is shown in the image ?'
p424
ag3
ag129
ag248
ag71
aS'Select the court game represented by the image ?'
p425
aS'Choose the type of beverage present in the image ?'
p426
ag156
ag82
ag39
ag3
aS'Which yard is shown in the image ?'
p427
ag40
ag33
ag364
aS'Which room is shown in the image ?'
p428
aS'What type of decoration is present in the image ?'
p429
ag259
ag140
aS'Which european is shown in the image ?'
p430
ag29
aS'Choose the type of performer present in the image ?'
p431
ag156
ag82
aS'Select the geological formation represented by the image ?'
p432
ag298
aS'Which male horse is shown in the image ?'
p433
ag412
ag26
ag125
ag94
ag71
ag371
ag3
ag424
ag9
aS'Select the section represented by the image ?'
p434
ag71
ag330
ag27
ag180
ag143
ag18
aS'What type of masonry is present in the image ?'
p435
ag22
aS'Choose the type of footwear present in the image ?'
p436
ag94
ag101
ag26
ag3
ag129
ag71
ag425
ag260
ag96
ag25
ag53
aS'Choose the type of binary compound present in the image ?'
p437
ag50
ag297
ag213
aS'Which skirt is shown in the image ?'
p438
aS'What type of consumption is present in the image ?'
p439
ag43
aS'Which small boat is shown in the image ?'
p440
ag25
ag174
aS'Choose the type of instrument present in the image ?'
p441
ag142
ag101
ag121
ag40
ag33
aS'What type of body part is present in the image ?'
p442
aS'Choose the type of substance present in the image ?'
p443
ag295
ag13
ag14
ag289
ag122
ag71
ag138
ag156
ag17
ag18
ag40
aS'Which occupational group is shown in the image ?'
p444
ag143
ag53
aS'Choose the type of cycling present in the image ?'
p445
ag96
ag29
ag84
ag27
aS'Which barrier is shown in the image ?'
p446
ag69
aS'Which collage is shown in the image ?'
p447
ag95
ag162
ag431
aS'Which musician is shown in the image ?'
p448
ag50
aS'Select the craft represented by the image ?'
p449
aS'Choose the type of rock present in the image ?'
p450
aS'Which climb is shown in the image ?'
p451
ag9
ag53
ag143
ag14
aS'What type of spot is present in the image ?'
p452
aS'Select the popular music represented by the image ?'
p453
aS'Choose the type of word picture present in the image ?'
p454
ag313
ag258
aS'Select the optical instrument represented by the image ?'
p455
ag27
aS'Which mobilization is shown in the image ?'
p456
aS'What type of signboard is present in the image ?'
p457
aS'Select the promotion represented by the image ?'
p458
ag3
ag156
ag50
ag245
aS'Choose the type of season present in the image ?'
p459
ag94
ag29
ag62
ag63
ag71
ag425
ag98
ag129
ag40
ag33
ag25
ag107
ag27
ag352
aS'Select the deceive represented by the image ?'
p460
ag40
aS'Which percussion instrument is shown in the image ?'
p461
ag355
ag356
ag19
ag17
aS'Select the force represented by the image ?'
p462
ag266
ag295
ag101
ag121
ag331
ag120
ag17
aS'Select the locomotion represented by the image ?'
p463
ag27
ag56
ag71
aS'Select the sound property represented by the image ?'
p464
ag51
aS'Which rescue equipment is shown in the image ?'
p465
ag151
ag314
ag27
ag73
ag74
aS'Select the street represented by the image ?'
p466
ag214
ag33
ag308
ag342
ag140
ag265
ag166
ag11
aS'Which wood is shown in the image ?'
p467
ag404
aS'Select the grocery store represented by the image ?'
p468
ag213
ag146
ag71
aS'Select the soil represented by the image ?'
p469
ag3
aS'Which affair is shown in the image ?'
p470
ag71
ag216
ag214
ag148
ag71
ag53
ag394
ag299
ag185
aS'Select the art represented by the image ?'
p471
ag40
ag33
aS'What type of animal skin is present in the image ?'
p472
ag40
ag27
ag56
ag48
ag129
aS'What type of traveler is present in the image ?'
p473
ag36
ag229
ag37
ag29
ag219
ag27
aS'Which cheer is shown in the image ?'
p474
aS'What type of aerosol is present in the image ?'
p475
ag306
ag40
ag33
aS'What type of cycling is present in the image ?'
p476
ag26
ag213
ag283
aS'What type of clothing is present in the image ?'
p477
ag53
ag331
ag73
ag38
ag123
aS'Choose the type of dirtiness present in the image ?'
p478
aS'Which output is shown in the image ?'
p479
ag175
aS'Select the visual communication represented by the image ?'
p480
ag130
ag163
ag101
ag121
ag43
ag150
ag9
aS'Select the position represented by the image ?'
p481
ag27
ag120
ag91
ag103
ag138
ag156
ag185
ag53
ag185
ag259
ag1
aS'Select the speech represented by the image ?'
p482
ag27
ag238
ag71
aS'Select the precipitation represented by the image ?'
p483
ag3
ag113
aS'Choose the type of section present in the image ?'
p484
ag320
ag29
ag26
ag195
aS'Which community is shown in the image ?'
p485
aS'What type of season is present in the image ?'
p486
ag483
ag149
ag56
ag384
aS'Select the atmospheric phenomenon represented by the image ?'
p487
aS'Choose the type of conflagration present in the image ?'
p488
aS'Which happening is shown in the image ?'
p489
ag230
aS'Choose the type of hour present in the image ?'
p490
ag71
aS'Choose the type of vacation present in the image ?'
p491
ag71
ag256
ag213
aS'Which visual property is shown in the image ?'
p492
ag17
ag18
ag40
ag307
ag101
ag121
aS'What type of mouth is present in the image ?'
p493
ag121
aS'What type of substance is present in the image ?'
p494
aS'Select the ruminant represented by the image ?'
p495
ag405
aS'Which furnishing is shown in the image ?'
p496
ag230
ag162
ag213
aS'Which trouser is shown in the image ?'
p497
ag19
ag53
ag51
ag94
ag101
ag115
ag17
ag18
ag405
ag110
ag71
aS'Select the martial art represented by the image ?'
p498
aS'Choose the type of thoroughfare present in the image ?'
p499
aS'Which clue is shown in the image ?'
p500
ag473
ag27
ag433
ag71
ag216
ag369
ag33
ag1
ag2
ag27
ag202
aS'What type of headdress is present in the image ?'
p501
aS'Select the consumer goods represented by the image ?'
p502
ag51
ag94
ag151
ag251
ag43
ag261
ag39
ag388
aS'Which promotion is shown in the image ?'
p503
ag239
aS'Select the hour represented by the image ?'
p504
ag40
ag47
aS'Select the wheeled vehicle represented by the image ?'
p505
ag260
ag250
ag344
ag173
ag17
ag18
ag220
aS'Which education is shown in the image ?'
p506
ag250
ag53
ag431
aS'Which music is shown in the image ?'
p507
ag71
ag425
ag27
ag1
ag3
ag156
ag15
aS'Which railway is shown in the image ?'
p508
ag50
aS'Select the cattle represented by the image ?'
p509
ag48
ag33
ag50
aS'Select the solid represented by the image ?'
p510
aS'Choose the type of vertebrate present in the image ?'
p511
aS'Which gallinaceous bird is shown in the image ?'
p512
ag71
ag483
aS'Choose the type of mouth present in the image ?'
p513
ag304
ag239
aS'Select the newlywed represented by the image ?'
p514
ag332
ag365
ag74
ag84
ag140
ag304
ag71
aS'Select the orthopterous insect represented by the image ?'
p515
ag88
ag252
ag192
ag115
aS'Choose the type of city district present in the image ?'
p516
ag198
ag71
ag431
aS'Which musical organization is shown in the image ?'
p517
ag346
aS'Select the comfort represented by the image ?'
p518
ag27
ag193
aS'What type of painting is present in the image ?'
p519
ag434
ag43
ag252
aS'What type of swimmer is present in the image ?'
p520
ag371
ag207
aS'Which verbal creation is shown in the image ?'
p521
ag226
ag331
ag202
ag336
ag118
ag260
ag17
ag18
ag157
ag271
ag71
ag216
ag69
ag103
ag27
ag217
ag138
ag167
ag71
ag10
aS'Choose the type of land present in the image ?'
p522
aS'Which natural elevation is shown in the image ?'
p523
ag1
ag2
ag27
ag345
ag50
ag245
ag260
ag175
ag197
ag198
aS'What type of barrier is present in the image ?'
p524
ag61
ag14
ag431
ag271
ag71
ag26
aS'Choose the type of natural elevation present in the image ?'
p525
ag451
aS'What type of chordate is present in the image ?'
p526
aS'Select the vertebrate represented by the image ?'
p527
ag220
aS'Which enterprise is shown in the image ?'
p528
ag117
aS'Select the dirtiness represented by the image ?'
p529
ag27
ag33
ag151
ag257
ag431
ag156
ag71
aS'Select the cycling represented by the image ?'
p530
ag127
aS'Select the hair represented by the image ?'
p531
ag62
ag63
aS'What type of conveyer belt is present in the image ?'
p532
aS'Select the tract represented by the image ?'
p533
ag40
ag78
ag1
ag65
aS'Choose the type of arthropod genus present in the image ?'
p534
ag96
ag239
aS'Select the person represented by the image ?'
p535
ag27
aS'Which hypothesis is shown in the image ?'
p536
ag1
ag162
ag213
ag163
ag309
ag145
aS'Choose the type of brome present in the image ?'
p537
ag120
ag51
ag94
ag25
ag107
ag213
ag156
ag352
ag14
ag138
aS'What type of hypothesis is present in the image ?'
p538
ag128
ag130
ag312
ag29
ag195
ag150
aS'What type of region is present in the image ?'
p539
aS'Select the partition represented by the image ?'
p540
ag157
ag252
ag90
ag26
ag27
ag151
aS'Select the dancer represented by the image ?'
p541
ag3
aS'Which woman is shown in the image ?'
p542
ag114
ag289
ag122
aS'Choose the type of spot present in the image ?'
p543
ag542
ag289
ag122
ag101
ag121
aS'Choose the type of athlete present in the image ?'
p544
ag542
ag143
ag84
ag213
ag173
ag516
aS'Which buying is shown in the image ?'
p545
ag352
ag14
ag48
ag33
ag50
ag18
ag69
ag281
ag352
ag26
aS'Choose the type of other present in the image ?'
p546
ag37
ag513
ag299
ag140
ag304
ag151
ag330
ag71
ag425
aS'What type of swimming stroke is present in the image ?'
p547
ag14
aS'Choose the type of signboard present in the image ?'
p548
ag503
ag3
ag129
ag27
ag347
ag17
ag18
aS'Choose the type of yard present in the image ?'
p549
ag278
ag175
ag18
ag43
ag150
ag74
ag84
ag101
ag121
ag17
ag18
ag27
ag17
ag482
ag213
aS'Which property is shown in the image ?'
p550
ag29
ag26
ag248
ag27
ag37
ag546
ag150
ag29
ag27
ag25
ag26
ag27
aS'Which show is shown in the image ?'
p551
aS'What type of dirtiness is present in the image ?'
p552
ag219
aS'Choose the type of figure present in the image ?'
p553
ag503
ag175
ag431
ag551
ag71
ag498
aS'Choose the type of production present in the image ?'
p554
ag5
ag251
aS'Choose the type of dead person present in the image ?'
p555
ag50
aS'Select the plastic art represented by the image ?'
p556
ag40
ag33
ag29
ag27
ag156
ag25
ag26
ag130
ag96
ag71
ag505
ag332
ag17
aS'Select the limb represented by the image ?'
p557
ag125
ag274
ag71
ag515
ag101
ag121
ag182
aS'Which representation is shown in the image ?'
p558
ag352
aS'Select the decoration represented by the image ?'
p559
ag201
ag202
ag71
ag498
ag69
ag96
ag50
ag245
aS'Choose the type of plain present in the image ?'
p560
ag103
ag17
ag18
ag214
ag33
ag230
ag145
ag140
aS'Which shepherd dog is shown in the image ?'
p561
ag29
ag84
ag157
ag163
ag143
ag18
ag431
ag448
ag17
ag18
aS'Choose the type of sign present in the image ?'
p562
aS'Which structure is shown in the image ?'
p563
ag114
aS'Select the substance represented by the image ?'
p564
ag138
ag156
ag29
ag212
ag15
ag33
ag38
ag246
ag180
aS'What type of concave shape is present in the image ?'
p565
ag533
ag157
ag163
ag71
ag119
ag213
ag113
ag71
ag216
aS'Choose the type of deceive present in the image ?'
p566
ag94
aS'What type of speech act is present in the image ?'
p567
ag459
aS'Which animal skin is shown in the image ?'
p568
ag380
ag509
ag13
ag14
ag109
aS'Which basin is shown in the image ?'
p569
ag101
aS'Select the equine represented by the image ?'
p570
ag431
ag1
ag91
ag126
ag519
ag259
ag51
ag193
ag143
ag53
ag43
ag56
ag71
ag27
ag56
ag19
ag212
ag27
ag122
ag17
ag18
aS'Choose the type of feline present in the image ?'
p571
ag122
ag5
ag342
aS'Choose the type of commercial enterprise present in the image ?'
p572
aS'Which illumination is shown in the image ?'
p573
aS'What type of life science is present in the image ?'
p574
ag39
ag88
ag16
ag380
aS'Select the mouth represented by the image ?'
p575
a.