(dp0
S'4873128332.jpg'
p1
(lp2
S'What type of diversion is present in the image?'
p3
aS'Choose the type of contestant present in the image?'
p4
asS'6852123904.jpg'
p5
(lp6
S'What type of nutriment is present in the image?'
p7
aS'Choose the type of container present in the image?'
p8
aS'What type of meal is not shown in the image?'
p9
asS'49533973.jpg'
p10
(lp11
S'What type of group is present in the image?'
p12
aS'Choose the type of burial chamber present in the image?'
p13
aS'What type of sculpture is not shown in the image?'
p14
asS'3118425885.jpg'
p15
(lp16
S'What type of nutriment is present in the image?'
p17
aS'Choose the type of container present in the image?'
p18
aS'What type of meal is not shown in the image?'
p19
asS'444881000.jpg'
p20
(lp21
S'What type of performer is present in the image?'
p22
aS'Choose the type of representation present in the image?'
p23
aS'What type of pictorial representation is not shown in the image?'
p24
asS'2516266928.jpg'
p25
(lp26
S'What type of water travel is present in the image?'
p27
aS'Choose the type of paraprofessional present in the image?'
p28
asS'535313948.jpg'
p29
(lp30
S'What type of yard is present in the image?'
p31
aS'Choose the type of linear unit present in the image?'
p32
aS'What type of field is not shown in the image?'
p33
asS'5972461484.jpg'
p34
(lp35
S'What type of diversion is present in the image?'
p36
aS'Choose the type of sport present in the image?'
p37
asS'111285749.jpg'
p38
(lp39
S'What type of municipality is present in the image?'
p40
aS'Choose the type of activity present in the image?'
p41
aS'What type of section is not shown in the image?'
p42
asS'324642762.jpg'
p43
(lp44
S'What type of horizontal surface is present in the image?'
p45
aS'Choose the type of building material present in the image?'
p46
asS'3746623148.jpg'
p47
(lp48
S'What type of creation is present in the image?'
p49
aS'Choose the type of decoration present in the image?'
p50
asS'4606525245.jpg'
p51
(lp52
S'What type of dead person is present in the image?'
p53
asS'4720419009.jpg'
p54
(lp55
S'What type of sport is present in the image?'
p56
aS'Choose the type of conveyance present in the image?'
p57
asS'273248777.jpg'
p58
(lp59
S'What type of contestant is present in the image?'
p60
aS'Choose the type of diversion present in the image?'
p61
aS'What type of blow is not shown in the image?'
p62
asS'2444664718.jpg'
p63
(lp64
S'What type of instrumentality is present in the image?'
p65
aS'Choose the type of commercial enterprise present in the image?'
p66
asS'2093272744.jpg'
p67
(lp68
S'What type of group is present in the image?'
p69
asS'4864177176.jpg'
p70
(lp71
S'What type of causal agent is present in the image?'
p72
aS'Choose the type of group present in the image?'
p73
aS'What type of gathering is not shown in the image?'
p74
asS'2931759630.jpg'
p75
(lp76
S'What type of tower is present in the image?'
p77
aS'Choose the type of physical phenomenon present in the image?'
p78
aS'What type of track and field is not shown in the image?'
p79
asS'2725508159.jpg'
p80
(lp81
S'What type of diversion is present in the image?'
p82
aS'Choose the type of canoe present in the image?'
p83
aS'What type of boat is not shown in the image?'
p84
asS'24761526.jpg'
p85
(lp86
S'What type of gathering is present in the image?'
p87
aS'Choose the type of causal agent present in the image?'
p88
aS'What type of group is not shown in the image?'
p89
asS'81641.jpg'
p90
(lp91
S'What type of artifact is present in the image?'
p92
aS'Choose the type of tower present in the image?'
p93
aS'What type of place of worship is not shown in the image?'
p94
asS'86341446.jpg'
p95
(lp96
S'What type of time period is present in the image?'
p97
asS'3002051747.jpg'
p98
(lp99
S'What type of locomotion is present in the image?'
p100
aS'Choose the type of disfavor present in the image?'
p101
aS'What type of causal agent is not shown in the image?'
p102
asS'6773067336.jpg'
p103
(lp104
S'What type of area is present in the image?'
p105
aS'Choose the type of room present in the image?'
p106
aS'What type of activity is not shown in the image?'
p107
asS'75953797.jpg'
p108
(lp109
S'What type of instrumentality is present in the image?'
p110
aS'Choose the type of conveyance present in the image?'
p111
aS'What type of conveyance is not shown in the image?'
p112
asS'3928395936.jpg'
p113
(lp114
S'What type of diversion is present in the image?'
p115
aS'Choose the type of court game present in the image?'
p116
asS'3262801036.jpg'
p117
(lp118
S'What type of diversion is present in the image?'
p119
aS'Choose the type of precipitation present in the image?'
p120
aS'What type of runner is not shown in the image?'
p121
asS'374124237.jpg'
p122
(lp123
S'What type of beverage is present in the image?'
p124
aS'Choose the type of spot present in the image?'
p125
asS'3340639621.jpg'
p126
(lp127
S'What type of group is present in the image?'
p128
asS'4511684396.jpg'
p129
(lp130
S'What type of group is present in the image?'
p131
asS'1515025681.jpg'
p132
(lp133
S'What type of adult is present in the image?'
p134
aS'Choose the type of show present in the image?'
p135
aS'What type of causal agent is not shown in the image?'
p136
asS'221510405.jpg'
p137
(lp138
S'What type of instrumentality is present in the image?'
p139
aS'Choose the type of military service present in the image?'
p140
aS'What type of conveyance is not shown in the image?'
p141
asS'3234159912.jpg'
p142
(lp143
S'What type of artwork is present in the image?'
p144
aS'Choose the type of collection present in the image?'
p145
asS'4893597664.jpg'
p146
(lp147
S'What type of conveyance is present in the image?'
p148
aS'Choose the type of collection present in the image?'
p149
aS'What type of promotion is not shown in the image?'
p150
asS'4089350664.jpg'
p151
(lp152
S'What type of force is present in the image?'
p153
aS'Choose the type of group present in the image?'
p154
aS'What type of military service is not shown in the image?'
p155
asS'4764430842.jpg'
p156
(lp157
S'What type of causal agent is present in the image?'
p158
asS'4194543575.jpg'
p159
(lp160
S'What type of point of view is present in the image?'
p161
asS'2863180332.jpg'
p162
(lp163
S'What type of paving is present in the image?'
p164
aS'Choose the type of way present in the image?'
p165
aS'What type of horizontal surface is not shown in the image?'
p166
asS'7716811396.jpg'
p167
(lp168
S'What type of diversion is present in the image?'
p169
aS'Choose the type of contestant present in the image?'
p170
asS'4853382595.jpg'
p171
(lp172
S'What type of body of water is present in the image?'
p173
aS'Choose the type of body of water present in the image?'
p174
aS'What type of outdoor sport is not shown in the image?'
p175
asS'5678896414.jpg'
p176
(lp177
S'What type of causal agent is present in the image?'
p178
aS'Choose the type of bowed stringed instrument present in the image?'
p179
asS'7154224949.jpg'
p180
(lp181
S'What type of consumer goods is present in the image?'
p182
aS'Choose the type of contestant present in the image?'
p183
aS'What type of body part is not shown in the image?'
p184
asS'3110818388.jpg'
p185
(lp186
S'What type of limb is present in the image?'
p187
aS'Choose the type of extremity present in the image?'
p188
aS'What type of juvenile is not shown in the image?'
p189
asS'18378347.jpg'
p190
(lp191
S'What type of causal agent is present in the image?'
p192
aS'Choose the type of group present in the image?'
p193
asS'4805058459.jpg'
p194
(lp195
S'What type of group is present in the image?'
p196
aS'Choose the type of unit present in the image?'
p197
asS'4153903524.jpg'
p198
(lp199
S'What type of conveyance is present in the image?'
p200
aS'Choose the type of warship present in the image?'
p201
asS'1389156021.jpg'
p202
(lp203
S'What type of martial art is present in the image?'
p204
aS'Choose the type of diversion present in the image?'
p205
aS'What type of creation is not shown in the image?'
p206
asS'2021613437.jpg'
p207
(lp208
S'What type of diversion is present in the image?'
p209
aS'Choose the type of other present in the image?'
p210
asS'2521983429.jpg'
p211
(lp212
S'What type of natural elevation is present in the image?'
p213
aS'Choose the type of body of water present in the image?'
p214
aS'What type of geological formation is not shown in the image?'
p215
asS'214597976.jpg'
p216
(lp217
S'What type of gathering is present in the image?'
p218
aS'Choose the type of dirtiness present in the image?'
p219
aS'What type of basic cognitive process is not shown in the image?'
p220
asS'128479785.jpg'
p221
(lp222
S'What type of conveyance is present in the image?'
p223
asS'3436221798.jpg'
p224
(lp225
S'What type of contestant is present in the image?'
p226
aS'Choose the type of contestant present in the image?'
p227
asS'5687357997.jpg'
p228
(lp229
S'What type of conveyance is present in the image?'
p230
aS'Choose the type of wheeled vehicle present in the image?'
p231
asS'48909006.jpg'
p232
(lp233
S'What type of performer is present in the image?'
p234
aS'Choose the type of group present in the image?'
p235
aS'What type of auditory communication is not shown in the image?'
p236
asS'4524224040.jpg'
p237
(lp238
S'What type of conveyance is present in the image?'
p239
aS'Choose the type of device present in the image?'
p240
asS'3517466790.jpg'
p241
(lp242
S'What type of newlywed is present in the image?'
p243
aS'Choose the type of adult present in the image?'
p244
aS'What type of ceremony is not shown in the image?'
p245
asS'245895500.jpg'
p246
(lp247
S'What type of life is present in the image?'
p248
aS'Choose the type of land present in the image?'
p249
aS'What type of grassland is not shown in the image?'
p250
asS'2983837415.jpg'
p251
(lp252
S'What type of group is present in the image?'
p253
aS'Choose the type of causal agent present in the image?'
p254
aS'What type of gathering is not shown in the image?'
p255
asS'3969219773.jpg'
p256
(lp257
S'What type of gathering is present in the image?'
p258
aS'Choose the type of group present in the image?'
p259
aS'What type of traveler is not shown in the image?'
p260
asS'118668756.jpg'
p261
(lp262
S'What type of dramatic composition is present in the image?'
p263
aS'Choose the type of diversion present in the image?'
p264
aS'What type of track and field is not shown in the image?'
p265
asS'4421399995.jpg'
p266
(lp267
S'What type of container is present in the image?'
p268
aS'Choose the type of angiosperm present in the image?'
p269
aS'What type of binary compound is not shown in the image?'
p270
asS'7378528824.jpg'
p271
(lp272
S'What type of diversion is present in the image?'
p273
aS'Choose the type of track and field present in the image?'
p274
asS'4733474874.jpg'
p275
(lp276
S'What type of conveyance is present in the image?'
p277
asS'63791851.jpg'
p278
(lp279
S'What type of front is present in the image?'
p280
aS'Choose the type of dwelling present in the image?'
p281
asS'4329179652.jpg'
p282
(lp283
S'What type of juvenile is present in the image?'
p284
aS'Choose the type of juvenile present in the image?'
p285
aS'What type of basic cognitive process is not shown in the image?'
p286
asS'1536597926.jpg'
p287
(lp288
S'What type of natural elevation is present in the image?'
p289
aS'Choose the type of climb present in the image?'
p290
aS'What type of natural elevation is not shown in the image?'
p291
asS'461784003.jpg'
p292
(lp293
S'What type of life is present in the image?'
p294
aS'Choose the type of woody plant present in the image?'
p295
aS'What type of noisemaker is not shown in the image?'
p296
asS'5806326544.jpg'
p297
(lp298
S'What type of area is present in the image?'
p299
aS'Choose the type of diversion present in the image?'
p300
asS'7272406870.jpg'
p301
(lp302
S'What type of diversion is present in the image?'
p303
aS'Choose the type of gramineous plant present in the image?'
p304
aS'What type of contact sport is not shown in the image?'
p305
asS'3674521435.jpg'
p306
(lp307
S'What type of outline is present in the image?'
p308
aS'Choose the type of sport present in the image?'
p309
aS'What type of visual percept is not shown in the image?'
p310
asS'1297871927.jpg'
p311
(lp312
S'What type of diversion is present in the image?'
p313
asS'2572667907.jpg'
p314
(lp315
S'What type of nutriment is present in the image?'
p316
aS'Choose the type of dinner present in the image?'
p317
asS'4702734830.jpg'
p318
(lp319
S'What type of consumer goods is present in the image?'
p320
aS'Choose the type of attire present in the image?'
p321
asS'3024001901.jpg'
p322
(lp323
S'What type of track and field is present in the image?'
p324
aS'Choose the type of conveyance present in the image?'
p325
asS'895359811.jpg'
p326
(lp327
S'What type of photograph is present in the image?'
p328
aS'Choose the type of leisure present in the image?'
p329
aS'What type of causal agent is not shown in the image?'
p330
asS'3093744301.jpg'
p331
(lp332
S'What type of causal agent is present in the image?'
p333
aS'Choose the type of group present in the image?'
p334
aS'What type of traveler is not shown in the image?'
p335
asS'2408570692.jpg'
p336
(lp337
S'What type of instrumentality is present in the image?'
p338
asS'2271755053.jpg'
p339
(lp340
S'What type of court game is present in the image?'
p341
aS'Choose the type of diversion present in the image?'
p342
asS'517054016.jpg'
p343
(lp344
S'What type of body covering is present in the image?'
p345
aS'Choose the type of hair present in the image?'
p346
aS'What type of piciform bird is not shown in the image?'
p347
asS'6703928187.jpg'
p348
(lp349
S'What type of attire is present in the image?'
p350
asS'7999356691.jpg'
p351
(lp352
S'What type of diversion is present in the image?'
p353
aS'Choose the type of sport present in the image?'
p354
aS'What type of conveyance is not shown in the image?'
p355
asS'2573140722.jpg'
p356
(lp357
S'What type of causal agent is present in the image?'
p358
aS'Choose the type of group present in the image?'
p359
aS'What type of juvenile is not shown in the image?'
p360
asS'4567736674.jpg'
p361
(lp362
S'What type of position is present in the image?'
p363
aS'Choose the type of tower present in the image?'
p364
aS'What type of illumination is not shown in the image?'
p365
asS'3540768808.jpg'
p366
(lp367
S'What type of diversion is present in the image?'
p368
aS'Choose the type of activity present in the image?'
p369
aS'What type of football play is not shown in the image?'
p370
asS'5222104909.jpg'
p371
(lp372
S'What type of activity is present in the image?'
p373
aS'Choose the type of dramatic composition present in the image?'
p374
aS'What type of juvenile is not shown in the image?'
p375
asS'3235746553.jpg'
p376
(lp377
S'What type of pointer is present in the image?'
p378
aS'Choose the type of canine present in the image?'
p379
aS'What type of combatant is not shown in the image?'
p380
asS'451326127.jpg'
p381
(lp382
S'What type of life is present in the image?'
p383
aS'Choose the type of disfavor present in the image?'
p384
aS'What type of vertebrate is not shown in the image?'
p385
asS'4047727514.jpg'
p386
(lp387
S'What type of building is present in the image?'
p388
aS'Choose the type of nutriment present in the image?'
p389
aS'What type of room is not shown in the image?'
p390
asS'6981006477.jpg'
p391
(lp392
S'What type of diversion is present in the image?'
p393
aS'Choose the type of waterway present in the image?'
p394
aS'What type of undertaking is not shown in the image?'
p395
asS'2664027527.jpg'
p396
(lp397
S'What type of diversion is present in the image?'
p398
aS'Choose the type of activity present in the image?'
p399
aS'What type of exhibition is not shown in the image?'
p400
asS'2537583012.jpg'
p401
(lp402
S'What type of contestant is present in the image?'
p403
aS'Choose the type of diversion present in the image?'
p404
aS'What type of bowling is not shown in the image?'
p405
asS'7517455666.jpg'
p406
(lp407
S'What type of performer is present in the image?'
p408
aS'Choose the type of musician present in the image?'
p409
aS'What type of musician is not shown in the image?'
p410
asS'2230503574.jpg'
p411
(lp412
S'What type of external body part is present in the image?'
p413
asS'4638839630.jpg'
p414
(lp415
S'What type of representation is present in the image?'
p416
aS'Choose the type of causal agent present in the image?'
p417
aS'What type of word picture is not shown in the image?'
p418
asS'4018050099.jpg'
p419
(lp420
S'What type of way is present in the image?'
p421
aS'Choose the type of thoroughfare present in the image?'
p422
aS'What type of collection is not shown in the image?'
p423
asS'7986651427.jpg'
p424
(lp425
S'What type of gathering is present in the image?'
p426
aS'Choose the type of diversion present in the image?'
p427
aS'What type of group is not shown in the image?'
p428
asS'2932519416.jpg'
p429
(lp430
S'What type of wheeled vehicle is present in the image?'
p431
aS'Choose the type of deceive present in the image?'
p432
asS'4082494486.jpg'
p433
(lp434
S'What type of adult is present in the image?'
p435
aS'Choose the type of causal agent present in the image?'
p436
aS'What type of group is not shown in the image?'
p437
asS'2856923934.jpg'
p438
(lp439
S'What type of diversion is present in the image?'
p440
aS'Choose the type of vessel present in the image?'
p441
asS'4528578001.jpg'
p442
(lp443
S'What type of adult is present in the image?'
p444
aS'Choose the type of ceremony present in the image?'
p445
aS'What type of newlywed is not shown in the image?'
p446
asS'4601900180.jpg'
p447
(lp448
S'What type of diversion is present in the image?'
p449
asS'4616068657.jpg'
p450
(lp451
S'What type of causal agent is present in the image?'
p452
aS'Choose the type of actinic radiation present in the image?'
p453
aS'What type of illumination is not shown in the image?'
p454
asS'5169120032.jpg'
p455
(lp456
sS'5610848512.jpg'
p457
(lp458
S'What type of diversion is present in the image?'
p459
aS'Choose the type of contestant present in the image?'
p460
asS'3030962048.jpg'
p461
(lp462
S'What type of causal agent is present in the image?'
p463
aS'Choose the type of group present in the image?'
p464
asS'236095034.jpg'
p465
(lp466
S'What type of diversion is present in the image?'
p467
aS'Choose the type of rise present in the image?'
p468
aS'What type of undertaking is not shown in the image?'
p469
asS'4626556918.jpg'
p470
(lp471
S'What type of diversion is present in the image?'
p472
aS'Choose the type of play present in the image?'
p473
aS'What type of precipitation is not shown in the image?'
p474
asS'4671890472.jpg'
p475
(lp476
S'What type of consumer goods is present in the image?'
p477
aS'Choose the type of visual property present in the image?'
p478
aS'What type of person is not shown in the image?'
p479
asS'3317907694.jpg'
p480
(lp481
S'What type of keyboard instrument is present in the image?'
p482
aS'Choose the type of performer present in the image?'
p483
asS'2971431335.jpg'
p484
(lp485
S'What type of diversion is present in the image?'
p486
aS'Choose the type of wheeled vehicle present in the image?'
p487
aS'What type of track and field is not shown in the image?'
p488
asS'2429284131.jpg'
p489
(lp490
S'What type of consumer goods is present in the image?'
p491
aS'Choose the type of creation present in the image?'
p492
aS'What type of spot is not shown in the image?'
p493
asS'4587858056.jpg'
p494
(lp495
S'What type of causal agent is present in the image?'
p496
aS'Choose the type of adult present in the image?'
p497
aS'What type of occupational group is not shown in the image?'
p498
asS'4723845405.jpg'
p499
(lp500
S'What type of causal agent is present in the image?'
p501
aS'Choose the type of group present in the image?'
p502
aS'What type of performer is not shown in the image?'
p503
asS'3168306969.jpg'
p504
(lp505
S'What type of dramatic composition is present in the image?'
p506
asS'3492734013.jpg'
p507
(lp508
S'What type of position is present in the image?'
p509
aS'Choose the type of group present in the image?'
p510
aS'What type of way is not shown in the image?'
p511
asS'3590653633.jpg'
p512
(lp513
S'What type of occupational group is present in the image?'
p514
aS'Choose the type of causal agent present in the image?'
p515
aS'What type of group is not shown in the image?'
p516
asS'2894008505.jpg'
p517
(lp518
S'What type of way is present in the image?'
p519
aS'Choose the type of bridge present in the image?'
p520
aS'What type of supply is not shown in the image?'
p521
asS'4660946919.jpg'
p522
(lp523
S'What type of causal agent is present in the image?'
p524
aS'Choose the type of percussion instrument present in the image?'
p525
aS'What type of group is not shown in the image?'
p526
asS'4870291079.jpg'
p527
(lp528
S'What type of container is present in the image?'
p529
asS'1460500597.jpg'
p530
(lp531
S'What type of enterprise is present in the image?'
p532
aS'Choose the type of nutriment present in the image?'
p533
aS'What type of room is not shown in the image?'
p534
asS'2547291721.jpg'
p535
(lp536
S'What type of room is present in the image?'
p537
asS'45427454.jpg'
p538
(lp539
S'What type of causal agent is present in the image?'
p540
aS'Choose the type of hypothesis present in the image?'
p541
aS'What type of track and field is not shown in the image?'
p542
asS'6237869128.jpg'
p543
(lp544
S'What type of causal agent is present in the image?'
p545
aS'Choose the type of limb present in the image?'
p546
aS'What type of diversion is not shown in the image?'
p547
asS'300026912.jpg'
p548
(lp549
S'What type of causal agent is present in the image?'
p550
aS'Choose the type of group present in the image?'
p551
asS'3474648788.jpg'
p552
(lp553
S'What type of creation is present in the image?'
p554
aS'Choose the type of device present in the image?'
p555
asS'2050067751.jpg'
p556
(lp557
S'What type of woody plant is present in the image?'
p558
aS'Choose the type of bird family present in the image?'
p559
aS'What type of division is not shown in the image?'
p560
asS'489723654.jpg'
p561
(lp562
S'What type of wheeled vehicle is present in the image?'
p563
asS'4644341405.jpg'
p564
(lp565
S'What type of sport is present in the image?'
p566
aS'Choose the type of group present in the image?'
p567
aS'What type of diversion is not shown in the image?'
p568
asS'2811917934.jpg'
p569
(lp570
S'What type of diversion is present in the image?'
p571
aS'Choose the type of show present in the image?'
p572
aS'What type of basin is not shown in the image?'
p573
asS'57422853.jpg'
p574
(lp575
S'What type of natural elevation is present in the image?'
p576
aS'Choose the type of natural elevation present in the image?'
p577
aS'What type of disfavor is not shown in the image?'
p578
asS'2736508369.jpg'
p579
(lp580
S'What type of diversion is present in the image?'
p581
aS'Choose the type of ball game present in the image?'
p582
asS'870367466.jpg'
p583
(lp584
S'What type of group is present in the image?'
p585
asS'3475751336.jpg'
p586
(lp587
S'What type of dirtiness is present in the image?'
p588
aS'Choose the type of angiosperm present in the image?'
p589
aS'What type of workplace is not shown in the image?'
p590
asS'25772368.jpg'
p591
(lp592
S'What type of building is present in the image?'
p593
aS'Choose the type of container present in the image?'
p594
aS'What type of building is not shown in the image?'
p595
asS'3763959012.jpg'
p596
(lp597
S'What type of traveler is present in the image?'
p598
asS'2796544901.jpg'
p599
(lp600
S'What type of leisure is present in the image?'
p601
aS'Choose the type of meal present in the image?'
p602
asS'4694697799.jpg'
p603
(lp604
S'What type of diversion is present in the image?'
p605
asS'4696331217.jpg'
p606
(lp607
S'What type of municipality is present in the image?'
p608
aS'Choose the type of municipality present in the image?'
p609
aS'What type of government building is not shown in the image?'
p610
asS'3722572342.jpg'
p611
(lp612
S'What type of conveyance is present in the image?'
p613
aS'Choose the type of craft present in the image?'
p614
asS'840202638.jpg'
p615
(lp616
S'What type of way is present in the image?'
p617
aS'Choose the type of horizontal surface present in the image?'
p618
aS'What type of field is not shown in the image?'
p619
asS'116569042.jpg'
p620
(lp621
S'What type of conveyance is present in the image?'
p622
aS'Choose the type of motor vehicle present in the image?'
p623
asS'221331362.jpg'
p624
(lp625
S'What type of group is present in the image?'
p626
aS'Choose the type of gathering present in the image?'
p627
aS'What type of juvenile is not shown in the image?'
p628
asS'2940831473.jpg'
p629
(lp630
S'What type of contestant is present in the image?'
p631
aS'Choose the type of diversion present in the image?'
p632
aS'What type of pool is not shown in the image?'
p633
asS'4637704411.jpg'
p634
(lp635
sS'3001612175.jpg'
p636
(lp637
S'What type of field is present in the image?'
p638
aS'Choose the type of paving present in the image?'
p639
aS'What type of path is not shown in the image?'
p640
asS'3477681171.jpg'
p641
(lp642
S'What type of diversion is present in the image?'
p643
aS'Choose the type of skating present in the image?'
p644
aS'What type of track and field is not shown in the image?'
p645
asS'4029583519.jpg'
p646
(lp647
S'What type of group is present in the image?'
p648
aS'Choose the type of activity present in the image?'
p649
asS'3861381128.jpg'
p650
(lp651
S'What type of group is present in the image?'
p652
aS'Choose the type of gathering present in the image?'
p653
aS'What type of gathering is not shown in the image?'
p654
asS'6476878653.jpg'
p655
(lp656
S'What type of diversion is present in the image?'
p657
aS'Choose the type of martial art present in the image?'
p658
asS'6064872574.jpg'
p659
(lp660
S'What type of creation is present in the image?'
p661
aS'Choose the type of graphic art present in the image?'
p662
asS'3357194782.jpg'
p663
(lp664
S'What type of conveyance is present in the image?'
p665
aS'Choose the type of public transport present in the image?'
p666
asS'2537818472.jpg'
p667
(lp668
S'What type of production is present in the image?'
p669
asS'2519183562.jpg'
p670
(lp671
S'What type of consumer goods is present in the image?'
p672
aS'Choose the type of attire present in the image?'
p673
asS'5068219705.jpg'
p674
(lp675
S'What type of wheeled vehicle is present in the image?'
p676
asS'3111502208.jpg'
p677
(lp678
S'What type of diversion is present in the image?'
p679
aS'Choose the type of contestant present in the image?'
p680
asS'3427540832.jpg'
p681
(lp682
S'What type of causal agent is present in the image?'
p683
aS'Choose the type of group present in the image?'
p684
asS'4814335297.jpg'
p685
(lp686
S'What type of meal is present in the image?'
p687
asS'6586265523.jpg'
p688
(lp689
S'What type of diversion is present in the image?'
p690
aS'Choose the type of lineman present in the image?'
p691
asS'3637013.jpg'
p692
(lp693
S'What type of channel is present in the image?'
p694
aS'Choose the type of body of water present in the image?'
p695
aS'What type of property is not shown in the image?'
p696
asS'4716816896.jpg'
p697
(lp698
S'What type of activity is present in the image?'
p699
asS'3328428819.jpg'
p700
(lp701
S'What type of leisure is present in the image?'
p702
asS'2474480672.jpg'
p703
(lp704
S'What type of diversion is present in the image?'
p705
aS'Choose the type of contestant present in the image?'
p706
asS'247617035.jpg'
p707
(lp708
sS'124106477.jpg'
p709
(lp710
S'What type of track and field is present in the image?'
p711
aS'Choose the type of garment present in the image?'
p712
asS'3286193613.jpg'
p713
(lp714
S'What type of mouth is present in the image?'
p715
aS'Choose the type of chordate present in the image?'
p716
aS'What type of vertebrate is not shown in the image?'
p717
asS'3384314832.jpg'
p718
(lp719
S'What type of canine is present in the image?'
p720
aS'Choose the type of chordate present in the image?'
p721
aS'What type of vertebrate is not shown in the image?'
p722
asS'4401472290.jpg'
p723
(lp724
S'What type of commercial enterprise is present in the image?'
p725
asS'2536950059.jpg'
p726
(lp727
S'What type of instrumentality is present in the image?'
p728
aS'Choose the type of conveyance present in the image?'
p729
aS'What type of conveyance is not shown in the image?'
p730
asS'2065595152.jpg'
p731
(lp732
S'What type of sport is present in the image?'
p733
aS'Choose the type of unit present in the image?'
p734
asS'2460823604.jpg'
p735
(lp736
S'What type of lineman is present in the image?'
p737
aS'Choose the type of diversion present in the image?'
p738
aS'What type of contestant is not shown in the image?'
p739
asS'137430875.jpg'
p740
(lp741
S'What type of objection is present in the image?'
p742
aS'Choose the type of group present in the image?'
p743
aS'What type of gathering is not shown in the image?'
p744
asS'181989658.jpg'
p745
(lp746
S'What type of collection is present in the image?'
p747
aS'Choose the type of residential district present in the image?'
p748
asS'1479124077.jpg'
p749
(lp750
S'What type of track and field is present in the image?'
p751
aS'Choose the type of yard present in the image?'
p752
aS'What type of expansion is not shown in the image?'
p753
asS'6635119569.jpg'
p754
(lp755
S'What type of motor is present in the image?'
p756
aS'Choose the type of device present in the image?'
p757
asS'4427803613.jpg'
p758
(lp759
S'What type of instrumentality is present in the image?'
p760
aS'Choose the type of commercial enterprise present in the image?'
p761
asS'3046949818.jpg'
p762
(lp763
S'What type of diversion is present in the image?'
p764
asS'2667783499.jpg'
p765
(lp766
S'What type of leisure is present in the image?'
p767
aS'Choose the type of building present in the image?'
p768
aS'What type of building is not shown in the image?'
p769
asS'3009644534.jpg'
p770
(lp771
S'What type of canine is present in the image?'
p772
aS'Choose the type of facial hair present in the image?'
p773
aS'What type of chordate is not shown in the image?'
p774
asS'4563177695.jpg'
p775
(lp776
S'What type of contestant is present in the image?'
p777
aS'Choose the type of collection present in the image?'
p778
asS'244829722.jpg'
p779
(lp780
S'What type of public transport is present in the image?'
p781
aS'Choose the type of instrumentality present in the image?'
p782
aS'What type of conveyance is not shown in the image?'
p783
asS'2088999297.jpg'
p784
(lp785
S'What type of track and field is present in the image?'
p786
asS'4381641700.jpg'
p787
(lp788
S'What type of diversion is present in the image?'
p789
aS'Choose the type of football play present in the image?'
p790
aS'What type of activity is not shown in the image?'
p791
asS'4761374939.jpg'
p792
(lp793
S'What type of instrumentality is present in the image?'
p794
aS'Choose the type of public transport present in the image?'
p795
aS'What type of conveyance is not shown in the image?'
p796
asS'2701635619.jpg'
p797
(lp798
S'What type of contestant is present in the image?'
p799
asS'49482602.jpg'
p800
(lp801
S'What type of facility is present in the image?'
p802
asS'462080147.jpg'
p803
(lp804
S'What type of attire is present in the image?'
p805
asS'541063419.jpg'
p806
(lp807
S'What type of climb is present in the image?'
p808
aS'Choose the type of natural elevation present in the image?'
p809
aS'What type of natural elevation is not shown in the image?'
p810
asS'6180215411.jpg'
p811
(lp812
S'What type of adult is present in the image?'
p813
aS'Choose the type of auditory communication present in the image?'
p814
aS'What type of performer is not shown in the image?'
p815
asS'194464865.jpg'
p816
(lp817
S'What type of quality is present in the image?'
p818
aS'Choose the type of field present in the image?'
p819
aS'What type of woody plant is not shown in the image?'
p820
asS'3122579598.jpg'
p821
(lp822
S'What type of vertebrate is present in the image?'
p823
aS'Choose the type of canine present in the image?'
p824
aS'What type of mammal family is not shown in the image?'
p825
asS'2204550058.jpg'
p826
(lp827
S'What type of causal agent is present in the image?'
p828
aS'Choose the type of performer present in the image?'
p829
asS'4718150262.jpg'
p830
(lp831
S'What type of food is present in the image?'
p832
aS'Choose the type of angiosperm present in the image?'
p833
aS'What type of activity is not shown in the image?'
p834
asS'3165936115.jpg'
p835
(lp836
S'What type of time period is present in the image?'
p837
asS'8245313425.jpg'
p838
(lp839
S'What type of diversion is present in the image?'
p840
aS'Choose the type of court game present in the image?'
p841
asS'574793535.jpg'
p842
(lp843
S'What type of beverage is present in the image?'
p844
aS'Choose the type of causal agent present in the image?'
p845
aS'What type of alcohol is not shown in the image?'
p846
asS'1449758127.jpg'
p847
(lp848
S'What type of leisure is present in the image?'
p849
aS'Choose the type of body of water present in the image?'
p850
aS'What type of geological formation is not shown in the image?'
p851
asS'1420060118.jpg'
p852
(lp853
S'What type of angiosperm is present in the image?'
p854
aS'Choose the type of season present in the image?'
p855
aS'What type of track and field is not shown in the image?'
p856
asS'5896386113.jpg'
p857
(lp858
S'What type of group is present in the image?'
p859
aS'Choose the type of yard present in the image?'
p860
asS'1944238257.jpg'
p861
(lp862
S'What type of causal agent is present in the image?'
p863
aS'Choose the type of group present in the image?'
p864
asS'2665904080.jpg'
p865
(lp866
S'What type of chordate is present in the image?'
p867
aS'Choose the type of vertebrate present in the image?'
p868
aS'What type of living thing is not shown in the image?'
p869
asS'3590049329.jpg'
p870
(lp871
S'What type of plastic art is present in the image?'
p872
asS'3272845728.jpg'
p873
(lp874
S'What type of area is present in the image?'
p875
aS'Choose the type of room present in the image?'
p876
aS'What type of residence is not shown in the image?'
p877
asS'179510508.jpg'
p878
(lp879
S'What type of dramatic composition is present in the image?'
p880
aS'Choose the type of field present in the image?'
p881
aS'What type of furnishing is not shown in the image?'
p882
asS'2687977103.jpg'
p883
(lp884
S'What type of causal agent is present in the image?'
p885
aS'Choose the type of group present in the image?'
p886
asS'358012011.jpg'
p887
(lp888
S'What type of nutriment is present in the image?'
p889
aS'Choose the type of enterprise present in the image?'
p890
asS'4154120779.jpg'
p891
(lp892
S'What type of decoration is present in the image?'
p893
aS'Choose the type of creation present in the image?'
p894
aS'What type of painting is not shown in the image?'
p895
asS'2505080204.jpg'
p896
(lp897
S'What type of group is present in the image?'
p898
asS'2144846312.jpg'
p899
(lp900
S'What type of juvenile is present in the image?'
p901
aS'Choose the type of child present in the image?'
p902
aS'What type of consumption is not shown in the image?'
p903
asS'2557369301.jpg'
p904
(lp905
S'What type of leisure is present in the image?'
p906
aS'Choose the type of geological formation present in the image?'
p907
aS'What type of diversion is not shown in the image?'
p908
asS'3511890331.jpg'
p909
(lp910
S'What type of equine is present in the image?'
p911
aS'Choose the type of male horse present in the image?'
p912
asS'289620419.jpg'
p913
(lp914
S'What type of diversion is present in the image?'
p915
aS'Choose the type of lineman present in the image?'
p916
asS'3773302802.jpg'
p917
(lp918
S'What type of field is present in the image?'
p919
aS'Choose the type of conveyance present in the image?'
p920
aS'What type of yard is not shown in the image?'
p921
asS'4508785988.jpg'
p922
(lp923
S'What type of diversion is present in the image?'
p924
aS'Choose the type of wheeled vehicle present in the image?'
p925
asS'3223809913.jpg'
p926
(lp927
S'What type of diversion is present in the image?'
p928
aS'Choose the type of activity present in the image?'
p929
aS'What type of skating is not shown in the image?'
p930
asS'3368671163.jpg'
p931
(lp932
S'What type of canine is present in the image?'
p933
aS'Choose the type of chordate present in the image?'
p934
aS'What type of vertebrate is not shown in the image?'
p935
asS'4705366381.jpg'
p936
(lp937
S'What type of gathering is present in the image?'
p938
aS'Choose the type of dramatic composition present in the image?'
p939
aS'What type of causal agent is not shown in the image?'
p940
asS'3579368231.jpg'
p941
(lp942
S'What type of diversion is present in the image?'
p943
aS'Choose the type of water sport present in the image?'
p944
aS'What type of spectacles is not shown in the image?'
p945
asS'5228334906.jpg'
p946
(lp947
S'What type of dramatic composition is present in the image?'
p948
aS'Choose the type of juvenile present in the image?'
p949
aS'What type of child is not shown in the image?'
p950
asS'2877503811.jpg'
p951
(lp952
S'What type of group is present in the image?'
p953
aS'Choose the type of unit present in the image?'
p954
aS'What type of gathering is not shown in the image?'
p955
asS'2641288004.jpg'
p956
(lp957
S'What type of plastic art is present in the image?'
p958
asS'4556897985.jpg'
p959
(lp960
S'What type of instrumentality is present in the image?'
p961
aS'Choose the type of group present in the image?'
p962
aS'What type of conveyance is not shown in the image?'
p963
asS'5485593000.jpg'
p964
(lp965
S'What type of municipality is present in the image?'
p966
aS'Choose the type of section present in the image?'
p967
aS'What type of way is not shown in the image?'
p968
asS'3085017634.jpg'
p969
(lp970
S'What type of diversion is present in the image?'
p971
aS'Choose the type of play present in the image?'
p972
asS'1235099089.jpg'
p973
(lp974
S'What type of diversion is present in the image?'
p975
aS'Choose the type of sound property present in the image?'
p976
asS'6989577015.jpg'
p977
(lp978
S'What type of body of water is present in the image?'
p979
aS'Choose the type of leisure present in the image?'
p980
aS'What type of soil is not shown in the image?'
p981
asS'3330007895.jpg'
p982
(lp983
S'What type of body covering is present in the image?'
p984
aS'Choose the type of adult present in the image?'
p985
aS'What type of hair is not shown in the image?'
p986
asS'3595795327.jpg'
p987
(lp988
S'What type of group is present in the image?'
p989
aS'Choose the type of gathering present in the image?'
p990
aS'What type of juvenile is not shown in the image?'
p991
asS'186890601.jpg'
p992
(lp993
S'What type of diversion is present in the image?'
p994
aS'Choose the type of water travel present in the image?'
p995
aS'What type of track and field is not shown in the image?'
p996
asS'335009007.jpg'
p997
(lp998
S'What type of quality is present in the image?'
p999
aS'Choose the type of season present in the image?'
p1000
aS'What type of angiosperm is not shown in the image?'
p1001
asS'2502248149.jpg'
p1002
(lp1003
S'What type of gathering is present in the image?'
p1004
aS'Choose the type of group present in the image?'
p1005
aS'What type of show is not shown in the image?'
p1006
asS'3443404125.jpg'
p1007
(lp1008
S'What type of estate is present in the image?'
p1009
aS'Choose the type of area present in the image?'
p1010
asS'845047334.jpg'
p1011
(lp1012
S'What type of masonry is present in the image?'
p1013
aS'Choose the type of tower present in the image?'
p1014
aS'What type of partition is not shown in the image?'
p1015
asS'2303426046.jpg'
p1016
(lp1017
S'What type of pointer is present in the image?'
p1018
aS'Choose the type of canine present in the image?'
p1019
aS'What type of vertebrate is not shown in the image?'
p1020
asS'2421446839.jpg'
p1021
(lp1022
S'What type of canine is present in the image?'
p1023
aS'Choose the type of conveyance present in the image?'
p1024
asS'4984582919.jpg'
p1025
(lp1026
S'What type of paving is present in the image?'
p1027
aS'Choose the type of conveyance present in the image?'
p1028
aS'What type of cycling is not shown in the image?'
p1029
asS'241979236.jpg'
p1030
(lp1031
S'What type of precipitation is present in the image?'
p1032
aS'Choose the type of group present in the image?'
p1033
aS'What type of atmospheric phenomenon is not shown in the image?'
p1034
asS'3927614951.jpg'
p1035
(lp1036
S'What type of diversion is present in the image?'
p1037
aS'Choose the type of court game present in the image?'
p1038
aS'What type of blow is not shown in the image?'
p1039
asS'116626604.jpg'
p1040
(lp1041
S'What type of juvenile is present in the image?'
p1042
aS'Choose the type of facial expression present in the image?'
p1043
aS'What type of vertebrate is not shown in the image?'
p1044
asS'52226520.jpg'
p1045
(lp1046
S'What type of wheeled vehicle is present in the image?'
p1047
aS'Choose the type of conveyance present in the image?'
p1048
aS'What type of sport is not shown in the image?'
p1049
asS'2130203183.jpg'
p1050
(lp1051
S'What type of canine is present in the image?'
p1052
aS'Choose the type of season present in the image?'
p1053
aS'What type of chordate is not shown in the image?'
p1054
asS'2743298738.jpg'
p1055
(lp1056
S'What type of slope is present in the image?'
p1057
aS'Choose the type of valley present in the image?'
p1058
aS'What type of disfavor is not shown in the image?'
p1059
asS'446471477.jpg'
p1060
(lp1061
S'What type of instrumentality is present in the image?'
p1062
aS'Choose the type of causal agent present in the image?'
p1063
aS'What type of occupational group is not shown in the image?'
p1064
asS'2667947118.jpg'
p1065
(lp1066
S'What type of binary compound is present in the image?'
p1067
asS'2773851719.jpg'
p1068
(lp1069
S'What type of conveyance is present in the image?'
p1070
aS'Choose the type of formation present in the image?'
p1071
asS'6878448810.jpg'
p1072
(lp1073
S'What type of dramatic composition is present in the image?'
p1074
aS'Choose the type of creation present in the image?'
p1075
aS'What type of juvenile is not shown in the image?'
p1076
asS'3707283973.jpg'
p1077
(lp1078
S'What type of outline is present in the image?'
p1079
aS'Choose the type of pictorial representation present in the image?'
p1080
aS'What type of municipality is not shown in the image?'
p1081
asS'2887474280.jpg'
p1082
(lp1083
S'What type of horizontal surface is present in the image?'
p1084
aS'Choose the type of horizontal surface present in the image?'
p1085
asS'4846544688.jpg'
p1086
(lp1087
S'What type of consumer goods is present in the image?'
p1088
aS'Choose the type of skirt present in the image?'
p1089
aS'What type of combatant is not shown in the image?'
p1090
asS'5122705505.jpg'
p1091
(lp1092
sS'4717966711.jpg'
p1093
(lp1094
S'What type of consumption is present in the image?'
p1095
asS'3027458414.jpg'
p1096
(lp1097
S'What type of performer is present in the image?'
p1098
aS'Choose the type of causal agent present in the image?'
p1099
aS'What type of musician is not shown in the image?'
p1100
asS'3217231044.jpg'
p1101
(lp1102
S'What type of adult is present in the image?'
p1103
aS'Choose the type of chemoreceptor present in the image?'
p1104
aS'What type of causal agent is not shown in the image?'
p1105
asS'3219475925.jpg'
p1106
(lp1107
S'What type of gathering is present in the image?'
p1108
aS'Choose the type of causal agent present in the image?'
p1109
aS'What type of group is not shown in the image?'
p1110
asS'4580613274.jpg'
p1111
(lp1112
S'What type of property is present in the image?'
p1113
aS'Choose the type of woody plant present in the image?'
p1114
aS'What type of biome is not shown in the image?'
p1115
asS'3500218173.jpg'
p1116
(lp1117
S'What type of horizontal surface is present in the image?'
p1118
aS'Choose the type of plastic art present in the image?'
p1119
asS'522183263.jpg'
p1120
(lp1121
S'What type of gathering is present in the image?'
p1122
asS'2320742338.jpg'
p1123
(lp1124
S'What type of quality is present in the image?'
p1125
aS'Choose the type of vegetation present in the image?'
p1126
aS'What type of chromatic color is not shown in the image?'
p1127
asS'6314475788.jpg'
p1128
(lp1129
S'What type of instrument is present in the image?'
p1130
aS'Choose the type of plastic art present in the image?'
p1131
asS'3654276875.jpg'
p1132
(lp1133
S'What type of group is present in the image?'
p1134
aS'Choose the type of leisure present in the image?'
p1135
asS'289599470.jpg'
p1136
(lp1137
S'What type of causal agent is present in the image?'
p1138
aS'Choose the type of juvenile present in the image?'
p1139
asS'3322389758.jpg'
p1140
(lp1141
S'What type of canine is present in the image?'
p1142
aS'Choose the type of chordate present in the image?'
p1143
aS'What type of vertebrate is not shown in the image?'
p1144
asS'2713897716.jpg'
p1145
(lp1146
S'What type of canine is present in the image?'
p1147
aS'Choose the type of chordate present in the image?'
p1148
aS'What type of vertebrate is not shown in the image?'
p1149
asS'4378823.jpg'
p1150
(lp1151
S'What type of angiosperm is present in the image?'
p1152
aS'Choose the type of festival present in the image?'
p1153
aS'What type of juvenile is not shown in the image?'
p1154
asS'3069282021.jpg'
p1155
(lp1156
S'What type of diversion is present in the image?'
p1157
aS'Choose the type of sport present in the image?'
p1158
asS'4478989677.jpg'
p1159
(lp1160
S'What type of body part is present in the image?'
p1161
asS'3239142107.jpg'
p1162
(lp1163
S'What type of causal agent is present in the image?'
p1164
aS'Choose the type of city district present in the image?'
p1165
asS'116382784.jpg'
p1166
(lp1167
S'What type of substance is present in the image?'
p1168
aS'Choose the type of container present in the image?'
p1169
aS'What type of activity is not shown in the image?'
p1170
asS'122188825.jpg'
p1171
(lp1172
S'What type of conveyance is present in the image?'
p1173
asS'7352187056.jpg'
p1174
(lp1175
S'What type of water sport is present in the image?'
p1176
aS'Choose the type of diversion present in the image?'
p1177
aS'What type of board is not shown in the image?'
p1178
asS'6910196393.jpg'
p1179
(lp1180
S'What type of diversion is present in the image?'
p1181
aS'Choose the type of contestant present in the image?'
p1182
aS'What type of causal agent is not shown in the image?'
p1183
asS'4857570002.jpg'
p1184
(lp1185
S'What type of municipality is present in the image?'
p1186
aS'Choose the type of municipality present in the image?'
p1187
aS'What type of way is not shown in the image?'
p1188
asS'2724379828.jpg'
p1189
(lp1190
S'What type of dramatic composition is present in the image?'
p1191
aS'Choose the type of juvenile present in the image?'
p1192
aS'What type of track and field is not shown in the image?'
p1193
asS'4593649681.jpg'
p1194
(lp1195
S'What type of adult is present in the image?'
p1196
aS'Choose the type of causal agent present in the image?'
p1197
aS'What type of newlywed is not shown in the image?'
p1198
asS'4941463392.jpg'
p1199
(lp1200
S'What type of causal agent is present in the image?'
p1201
aS'Choose the type of group present in the image?'
p1202
aS'What type of gathering is not shown in the image?'
p1203
asS'7261544530.jpg'
p1204
(lp1205
S'What type of causal agent is present in the image?'
p1206
aS'Choose the type of occupational group present in the image?'
p1207
aS'What type of guitar is not shown in the image?'
p1208
asS'3278132385.jpg'
p1209
(lp1210
S'What type of quality is present in the image?'
p1211
aS'Choose the type of causal agent present in the image?'
p1212
aS'What type of field is not shown in the image?'
p1213
asS'4113657978.jpg'
p1214
(lp1215
S'What type of diversion is present in the image?'
p1216
aS'Choose the type of causal agent present in the image?'
p1217
aS'What type of plain is not shown in the image?'
p1218
asS'4633772793.jpg'
p1219
(lp1220
S'What type of gathering is present in the image?'
p1221
aS'Choose the type of causal agent present in the image?'
p1222
aS'What type of group is not shown in the image?'
p1223
asS'3772519455.jpg'
p1224
(lp1225
S'What type of water travel is present in the image?'
p1226
aS'Choose the type of body of water present in the image?'
p1227
aS'What type of body of water is not shown in the image?'
p1228
asS'3021531305.jpg'
p1229
(lp1230
S'What type of cycling is present in the image?'
p1231
aS'Choose the type of conveyance present in the image?'
p1232
aS'What type of sport is not shown in the image?'
p1233
asS'4933421853.jpg'
p1234
(lp1235
S'What type of group is present in the image?'
p1236
aS'Choose the type of municipality present in the image?'
p1237
aS'What type of city district is not shown in the image?'
p1238
asS'7916403012.jpg'
p1239
(lp1240
S'What type of diversion is present in the image?'
p1241
aS'Choose the type of barrier present in the image?'
p1242
aS'What type of sheet metal is not shown in the image?'
p1243
asS'2171154778.jpg'
p1244
(lp1245
S'What type of causal agent is present in the image?'
p1246
aS'Choose the type of limb present in the image?'
p1247
aS'What type of juvenile is not shown in the image?'
p1248
asS'4749087824.jpg'
p1249
(lp1250
S'What type of way is present in the image?'
p1251
aS'Choose the type of collage present in the image?'
p1252
aS'What type of thoroughfare is not shown in the image?'
p1253
asS'2374247382.jpg'
p1254
(lp1255
S'What type of consumer goods is present in the image?'
p1256
aS'Choose the type of juvenile present in the image?'
p1257
aS'What type of dramatic composition is not shown in the image?'
p1258
asS'296851123.jpg'
p1259
(lp1260
S'What type of performer is present in the image?'
p1261
aS'Choose the type of musician present in the image?'
p1262
aS'What type of musician is not shown in the image?'
p1263
asS'474784914.jpg'
p1264
(lp1265
S'What type of conveyance is present in the image?'
p1266
aS'Choose the type of craft present in the image?'
p1267
asS'3094187053.jpg'
p1268
(lp1269
S'What type of percussion instrument is present in the image?'
p1270
aS'Choose the type of percussionist present in the image?'
p1271
aS'What type of percussion instrument is not shown in the image?'
p1272
asS'3178005751.jpg'
p1273
(lp1274
S'What type of consumer goods is present in the image?'
p1275
aS'Choose the type of chromatic color present in the image?'
p1276
aS'What type of clothing is not shown in the image?'
p1277
asS'2622131465.jpg'
p1278
(lp1279
S'What type of arthropod genus is present in the image?'
p1280
aS'Choose the type of conveyance present in the image?'
p1281
aS'What type of motorboat is not shown in the image?'
p1282
asS'4539916208.jpg'
p1283
(lp1284
S'What type of gathering is present in the image?'
p1285
aS'Choose the type of group present in the image?'
p1286
aS'What type of causal agent is not shown in the image?'
p1287
asS'3613027188.jpg'
p1288
(lp1289
S'What type of diversion is present in the image?'
p1290
asS'7343282792.jpg'
p1291
(lp1292
S'What type of show is present in the image?'
p1293
aS'Choose the type of athlete present in the image?'
p1294
aS'What type of time period is not shown in the image?'
p1295
asS'4855045669.jpg'
p1296
(lp1297
S'What type of performer is present in the image?'
p1298
aS'Choose the type of causal agent present in the image?'
p1299
aS'What type of musician is not shown in the image?'
p1300
asS'929679367.jpg'
p1301
(lp1302
S'What type of canine is present in the image?'
p1303
asS'3612192955.jpg'
p1304
(lp1305
S'What type of diversion is present in the image?'
p1306
aS'Choose the type of boat present in the image?'
p1307
aS'What type of activity is not shown in the image?'
p1308
asS'5123017586.jpg'
p1309
(lp1310
S'What type of municipality is present in the image?'
p1311
aS'Choose the type of causal agent present in the image?'
p1312
aS'What type of group is not shown in the image?'
p1313
asS'6094112851.jpg'
p1314
(lp1315
S'What type of walk is present in the image?'
p1316
aS'Choose the type of causal agent present in the image?'
p1317
aS'What type of performer is not shown in the image?'
p1318
asS'2591157404.jpg'
p1319
(lp1320
S'What type of nutriment is present in the image?'
p1321
aS'Choose the type of building present in the image?'
p1322
asS'3086387529.jpg'
p1323
(lp1324
S'What type of spot is present in the image?'
p1325
aS'Choose the type of popular music present in the image?'
p1326
aS'What type of auditory communication is not shown in the image?'
p1327
asS'1430154945.jpg'
p1328
(lp1329
S'What type of nutriment is present in the image?'
p1330
aS'Choose the type of container present in the image?'
p1331
aS'What type of meal is not shown in the image?'
p1332
asS'6319001445.jpg'
p1333
(lp1334
S'What type of body of water is present in the image?'
p1335
aS'Choose the type of diversion present in the image?'
p1336
aS'What type of sport is not shown in the image?'
p1337
asS'2335931883.jpg'
p1338
(lp1339
S'What type of show is present in the image?'
p1340
aS'Choose the type of creation present in the image?'
p1341
aS'What type of art is not shown in the image?'
p1342
asS'3356792838.jpg'
p1343
(lp1344
S'What type of creation is present in the image?'
p1345
aS'Choose the type of group present in the image?'
p1346
aS'What type of plastic art is not shown in the image?'
p1347
asS'3518755601.jpg'
p1348
(lp1349
S'What type of word picture is present in the image?'
p1350
aS'Choose the type of soil present in the image?'
p1351
asS'2319197581.jpg'
p1352
(lp1353
S'What type of canine is present in the image?'
p1354
asS'1433149277.jpg'
p1355
(lp1356
S'What type of facility is present in the image?'
p1357
aS'Choose the type of group present in the image?'
p1358
aS'What type of gathering is not shown in the image?'
p1359
asS'199413572.jpg'
p1360
(lp1361
S'What type of group is present in the image?'
p1362
asS'400097737.jpg'
p1363
(lp1364
S'What type of horizontal surface is present in the image?'
p1365
aS'Choose the type of horizontal surface present in the image?'
p1366
aS'What type of plant material is not shown in the image?'
p1367
asS'2858408189.jpg'
p1368
(lp1369
S'What type of causal agent is present in the image?'
p1370
aS'Choose the type of adult present in the image?'
p1371
aS'What type of group is not shown in the image?'
p1372
asS'6454057197.jpg'
p1373
(lp1374
S'What type of pictorial representation is present in the image?'
p1375
aS'Choose the type of representation present in the image?'
p1376
aS'What type of creation is not shown in the image?'
p1377
asS'2399674240.jpg'
p1378
(lp1379
S'What type of pictorial representation is present in the image?'
p1380
aS'Choose the type of optical instrument present in the image?'
p1381
aS'What type of causal agent is not shown in the image?'
p1382
asS'2528547068.jpg'
p1383
(lp1384
S'What type of diversion is present in the image?'
p1385
aS'Choose the type of mobilization present in the image?'
p1386
aS'What type of conveyance is not shown in the image?'
p1387
asS'4559349547.jpg'
p1388
(lp1389
S'What type of word picture is present in the image?'
p1390
asS'4452982147.jpg'
p1391
(lp1392
S'What type of public transport is present in the image?'
p1393
aS'Choose the type of instrumentality present in the image?'
p1394
aS'What type of conveyance is not shown in the image?'
p1395
asS'5550039813.jpg'
p1396
(lp1397
S'What type of diversion is present in the image?'
p1398
aS'Choose the type of descent present in the image?'
p1399
aS'What type of slide is not shown in the image?'
p1400
asS'183656175.jpg'
p1401
(lp1402
S'What type of chromatic color is present in the image?'
p1403
aS'Choose the type of chromatic color present in the image?'
p1404
aS'What type of track and field is not shown in the image?'
p1405
asS'4525286529.jpg'
p1406
(lp1407
S'What type of group is present in the image?'
p1408
aS'Choose the type of traveler present in the image?'
p1409
aS'What type of locomotion is not shown in the image?'
p1410
asS'3093715621.jpg'
p1411
(lp1412
S'What type of group is present in the image?'
p1413
aS'Choose the type of causal agent present in the image?'
p1414
aS'What type of way is not shown in the image?'
p1415
asS'3971806559.jpg'
p1416
(lp1417
S'What type of conveyance is present in the image?'
p1418
aS'Choose the type of motor vehicle present in the image?'
p1419
aS'What type of car is not shown in the image?'
p1420
asS'7474387734.jpg'
p1421
(lp1422
S'What type of group is present in the image?'
p1423
aS'Choose the type of causal agent present in the image?'
p1424
asS'3524436870.jpg'
p1425
(lp1426
S'What type of canine is present in the image?'
p1427
aS'Choose the type of chordate present in the image?'
p1428
aS'What type of vertebrate is not shown in the image?'
p1429
asS'2241328814.jpg'
p1430
(lp1431
sS'2807209904.jpg'
p1432
(lp1433
S'What type of causal agent is present in the image?'
p1434
aS'Choose the type of group present in the image?'
p1435
aS'What type of diversion is not shown in the image?'
p1436
asS'2536881159.jpg'
p1437
(lp1438
S'What type of conveyance is present in the image?'
p1439
asS'241345596.jpg'
p1440
(lp1441
S'What type of diversion is present in the image?'
p1442
aS'Choose the type of other present in the image?'
p1443
asS'2364096157.jpg'
p1444
(lp1445
S'What type of canine is present in the image?'
p1446
asS'571002259.jpg'
p1447
(lp1448
S'What type of quality is present in the image?'
p1449
aS'Choose the type of diversion present in the image?'
p1450
asS'6521767045.jpg'
p1451
(lp1452
S'What type of creation is present in the image?'
p1453
aS'Choose the type of sculpture present in the image?'
p1454
aS'What type of ceramic ware is not shown in the image?'
p1455
asS'2857372127.jpg'
p1456
(lp1457
S'What type of group is present in the image?'
p1458
asS'4103920923.jpg'
p1459
(lp1460
S'What type of wit is present in the image?'
p1461
aS'Choose the type of group present in the image?'
p1462
aS'What type of drawing is not shown in the image?'
p1463
asS'2901375404.jpg'
p1464
(lp1465
S'What type of protective covering is present in the image?'
p1466
aS'Choose the type of religion present in the image?'
p1467
aS'What type of tower is not shown in the image?'
p1468
asS'4718776112.jpg'
p1469
(lp1470
S'What type of diversion is present in the image?'
p1471
aS'Choose the type of martial art present in the image?'
p1472
asS'749297208.jpg'
p1473
(lp1474
S'What type of deceive is present in the image?'
p1475
asS'2680619645.jpg'
p1476
(lp1477
S'What type of dramatic composition is present in the image?'
p1478
aS'Choose the type of water travel present in the image?'
p1479
aS'What type of soil is not shown in the image?'
p1480
asS'4685230116.jpg'
p1481
(lp1482
S'What type of causal agent is present in the image?'
p1483
aS'Choose the type of group present in the image?'
p1484
asS'2687134043.jpg'
p1485
(lp1486
S'What type of causal agent is present in the image?'
p1487
aS'Choose the type of group present in the image?'
p1488
aS'What type of binary compound is not shown in the image?'
p1489
asS'40261771.jpg'
p1490
(lp1491
S'What type of objection is present in the image?'
p1492
aS'Choose the type of gathering present in the image?'
p1493
aS'What type of group is not shown in the image?'
p1494
asS'3482237861.jpg'
p1495
(lp1496
S'What type of protective covering is present in the image?'
p1497
aS'Choose the type of field present in the image?'
p1498
aS'What type of railroad track is not shown in the image?'
p1499
asS'4845542946.jpg'
p1500
(lp1501
S'What type of causal agent is present in the image?'
p1502
aS'Choose the type of group present in the image?'
p1503
asS'2356153548.jpg'
p1504
(lp1505
S'What type of instrumentality is present in the image?'
p1506
aS'Choose the type of public transport present in the image?'
p1507
aS'What type of conveyance is not shown in the image?'
p1508
asS'2726301121.jpg'
p1509
(lp1510
S'What type of pictorial representation is present in the image?'
p1511
aS'Choose the type of person present in the image?'
p1512
aS'What type of hypothesis is not shown in the image?'
p1513
asS'3255737244.jpg'
p1514
(lp1515
S'What type of angiosperm is present in the image?'
p1516
asS'2256000607.jpg'
p1517
(lp1518
S'What type of angiosperm is present in the image?'
p1519
aS'Choose the type of old man present in the image?'
p1520
asS'4455082618.jpg'
p1521
(lp1522
S'What type of way is present in the image?'
p1523
aS'Choose the type of conveyance present in the image?'
p1524
aS'What type of precipitation is not shown in the image?'
p1525
asS'4589656744.jpg'
p1526
(lp1527
S'What type of group is present in the image?'
p1528
asS'2924312981.jpg'
p1529
(lp1530
S'What type of contestant is present in the image?'
p1531
aS'Choose the type of causal agent present in the image?'
p1532
aS'What type of occupational group is not shown in the image?'
p1533
asS'7098586179.jpg'
p1534
(lp1535
S'What type of dramatic composition is present in the image?'
p1536
asS'1030041880.jpg'
p1537
(lp1538
S'What type of show is present in the image?'
p1539
aS'Choose the type of musical performance present in the image?'
p1540
aS'What type of property is not shown in the image?'
p1541
asS'5350952226.jpg'
p1542
(lp1543
S'What type of creator is present in the image?'
p1544
aS'Choose the type of art present in the image?'
p1545
aS'What type of creation is not shown in the image?'
p1546
asS'7184998020.jpg'
p1547
(lp1548
S'What type of group is present in the image?'
p1549
aS'Choose the type of affair present in the image?'
p1550
asS'3613264553.jpg'
p1551
(lp1552
S'What type of body of water is present in the image?'
p1553
aS'Choose the type of supply present in the image?'
p1554
aS'What type of geological formation is not shown in the image?'
p1555
asS'5159056173.jpg'
p1556
(lp1557
S'What type of representation is present in the image?'
p1558
aS'Choose the type of graphic art present in the image?'
p1559
aS'What type of creation is not shown in the image?'
p1560
asS'331152609.jpg'
p1561
(lp1562
S'What type of geological phenomenon is present in the image?'
p1563
aS'Choose the type of adversity present in the image?'
p1564
aS'What type of residential district is not shown in the image?'
p1565
asS'359291972.jpg'
p1566
(lp1567
S'What type of diversion is present in the image?'
p1568
asS'524698457.jpg'
p1569
(lp1570
S'What type of canine is present in the image?'
p1571
asS'7012337521.jpg'
p1572
(lp1573
S'What type of causal agent is present in the image?'
p1574
aS'Choose the type of force present in the image?'
p1575
asS'2470519984.jpg'
p1576
(lp1577
S'What type of building is present in the image?'
p1578
aS'Choose the type of container present in the image?'
p1579
aS'What type of enterprise is not shown in the image?'
p1580
asS'6302275277.jpg'
p1581
(lp1582
S'What type of barrier is present in the image?'
p1583
aS'Choose the type of diversion present in the image?'
p1584
aS'What type of mechanism is not shown in the image?'
p1585
asS'3616566999.jpg'
p1586
(lp1587
S'What type of consumer goods is present in the image?'
p1588
aS'Choose the type of chromatic color present in the image?'
p1589
aS"What type of woman's clothing is not shown in the image?"
p1590
asS'275290256.jpg'
p1591
(lp1592
S'What type of object is present in the image?'
p1593
aS'Choose the type of activity present in the image?'
p1594
aS'What type of diversion is not shown in the image?'
p1595
asS'241109594.jpg'
p1596
(lp1597
S'What type of canine is present in the image?'
p1598
aS'Choose the type of chordate present in the image?'
p1599
asS'6716031215.jpg'
p1600
(lp1601
S'What type of diversion is present in the image?'
p1602
aS'Choose the type of court game present in the image?'
p1603
asS'1469138762.jpg'
p1604
(lp1605
S'What type of causal agent is present in the image?'
p1606
aS'Choose the type of locomotion present in the image?'
p1607
aS'What type of biome is not shown in the image?'
p1608
asS'2295920018.jpg'
p1609
(lp1610
S'What type of contestant is present in the image?'
p1611
aS'Choose the type of diversion present in the image?'
p1612
aS'What type of activity is not shown in the image?'
p1613
asS'7468150262.jpg'
p1614
(lp1615
S'What type of diversion is present in the image?'
p1616
aS'Choose the type of track and field present in the image?'
p1617
aS'What type of undertaking is not shown in the image?'
p1618
asS'4495174902.jpg'
p1619
(lp1620
S'What type of shore is present in the image?'
p1621
aS'Choose the type of activity present in the image?'
p1622
aS'What type of plain is not shown in the image?'
p1623
asS'2257233228.jpg'
p1624
(lp1625
S'What type of leisure is present in the image?'
p1626
aS'Choose the type of causal agent present in the image?'
p1627
aS'What type of geological formation is not shown in the image?'
p1628
asS'4731694958.jpg'
p1629
(lp1630
S'What type of walk is present in the image?'
p1631
aS'Choose the type of way present in the image?'
p1632
aS'What type of outline is not shown in the image?'
p1633
asS'4592144222.jpg'
p1634
(lp1635
S'What type of position is present in the image?'
p1636
aS'Choose the type of public square present in the image?'
p1637
aS'What type of commercial enterprise is not shown in the image?'
p1638
asS'485921585.jpg'
p1639
(lp1640
S'What type of diversion is present in the image?'
p1641
aS'Choose the type of wheeled vehicle present in the image?'
p1642
asS'6253003614.jpg'
p1643
(lp1644
S'What type of contestant is present in the image?'
p1645
aS'Choose the type of rescue equipment present in the image?'
p1646
aS'What type of diversion is not shown in the image?'
p1647
asS'4965081213.jpg'
p1648
(lp1649
S'What type of consumer goods is present in the image?'
p1650
aS'Choose the type of time period present in the image?'
p1651
aS'What type of attire is not shown in the image?'
p1652
asS'7761586286.jpg'
p1653
(lp1654
S'What type of diversion is present in the image?'
p1655
aS'Choose the type of other present in the image?'
p1656
asS'2326666568.jpg'
p1657
(lp1658
S'What type of line is present in the image?'
p1659
aS'Choose the type of plain present in the image?'
p1660
aS'What type of other is not shown in the image?'
p1661
asS'553854589.jpg'
p1662
(lp1663
S'What type of way is present in the image?'
p1664
aS'Choose the type of street present in the image?'
p1665
aS'What type of linear unit is not shown in the image?'
p1666
asS'466761566.jpg'
p1667
(lp1668
S'What type of municipality is present in the image?'
p1669
aS'Choose the type of group present in the image?'
p1670
aS'What type of city district is not shown in the image?'
p1671
asS'4594171071.jpg'
p1672
(lp1673
S'What type of diversion is present in the image?'
p1674
asS'7306334328.jpg'
p1675
(lp1676
S'What type of dramatic composition is present in the image?'
p1677
aS'Choose the type of field present in the image?'
p1678
aS'What type of gramineous plant is not shown in the image?'
p1679
asS'611910909.jpg'
p1680
(lp1681
S'What type of angiosperm is present in the image?'
p1682
aS'Choose the type of woody plant present in the image?'
p1683
aS'What type of division is not shown in the image?'
p1684
asS'399631066.jpg'
p1685
(lp1686
S'What type of consumer goods is present in the image?'
p1687
aS'Choose the type of chromatic color present in the image?'
p1688
aS'What type of angiosperm is not shown in the image?'
p1689
asS'4042638258.jpg'
p1690
(lp1691
S'What type of body of water is present in the image?'
p1692
aS'Choose the type of diversion present in the image?'
p1693
aS'What type of conveyance is not shown in the image?'
p1694
asS'4559328276.jpg'
p1695
(lp1696
S'What type of position is present in the image?'
p1697
aS'Choose the type of way present in the image?'
p1698
aS'What type of angiosperm is not shown in the image?'
p1699
asS'496971341.jpg'
p1700
(lp1701
S'What type of canine is present in the image?'
p1702
aS'Choose the type of dramatic composition present in the image?'
p1703
aS'What type of chordate is not shown in the image?'
p1704
asS'4983762807.jpg'
p1705
(lp1706
S'What type of consideration is present in the image?'
p1707
aS'Choose the type of body of water present in the image?'
p1708
aS'What type of season is not shown in the image?'
p1709
asS'3357142179.jpg'
p1710
(lp1711
S'What type of object is present in the image?'
p1712
aS'Choose the type of woody plant present in the image?'
p1713
aS'What type of building complex is not shown in the image?'
p1714
asS'7606751856.jpg'
p1715
(lp1716
S'What type of meal is present in the image?'
p1717
aS'Choose the type of nutriment present in the image?'
p1718
aS'What type of helping is not shown in the image?'
p1719
asS'3335311209.jpg'
p1720
(lp1721
S'What type of causal agent is present in the image?'
p1722
aS'Choose the type of group present in the image?'
p1723
aS'What type of occupational group is not shown in the image?'
p1724
asS'2103104748.jpg'
p1725
(lp1726
S'What type of causal agent is present in the image?'
p1727
asS'481216325.jpg'
p1728
(lp1729
S'What type of facility is present in the image?'
p1730
asS'4671795847.jpg'
p1731
(lp1732
S'What type of horizontal surface is present in the image?'
p1733
aS'Choose the type of wood present in the image?'
p1734
aS'What type of furnishing is not shown in the image?'
p1735
asS'2529226054.jpg'
p1736
(lp1737
S'What type of enterprise is present in the image?'
p1738
aS'Choose the type of grocery store present in the image?'
p1739
asS'3110757763.jpg'
p1740
(lp1741
S'What type of body of water is present in the image?'
p1742
aS'Choose the type of consideration present in the image?'
p1743
aS'What type of path is not shown in the image?'
p1744
asS'4210282647.jpg'
p1745
(lp1746
S'What type of conveyer belt is present in the image?'
p1747
aS'Choose the type of tract present in the image?'
p1748
aS'What type of old man is not shown in the image?'
p1749
asS'3405942945.jpg'
p1750
(lp1751
S'What type of consumer goods is present in the image?'
p1752
aS'Choose the type of juvenile present in the image?'
p1753
aS'What type of clothing is not shown in the image?'
p1754
asS'4772885285.jpg'
p1755
(lp1756
S'What type of binary compound is present in the image?'
p1757
asS'3626964430.jpg'
p1758
(lp1759
S'What type of diversion is present in the image?'
p1760
aS'Choose the type of orthopterous insect present in the image?'
p1761
asS'4455946038.jpg'
p1762
(lp1763
S'What type of diversion is present in the image?'
p1764
aS'Choose the type of soil present in the image?'
p1765
aS'What type of formation is not shown in the image?'
p1766
asS'2922721663.jpg'
p1767
(lp1768
S'What type of group is present in the image?'
p1769
aS'Choose the type of affair present in the image?'
p1770
aS'What type of happening is not shown in the image?'
p1771
asS'4927180699.jpg'
p1772
(lp1773
S'What type of diversion is present in the image?'
p1774
aS'Choose the type of contestant present in the image?'
p1775
aS'What type of athlete is not shown in the image?'
p1776
asS'2736432503.jpg'
p1777
(lp1778
S'What type of municipality is present in the image?'
p1779
aS'Choose the type of city district present in the image?'
p1780
aS'What type of conveyance is not shown in the image?'
p1781
asS'3677693858.jpg'
p1782
(lp1783
S'What type of diversion is present in the image?'
p1784
aS'Choose the type of causal agent present in the image?'
p1785
aS'What type of track and field is not shown in the image?'
p1786
asS'3555573680.jpg'
p1787
(lp1788
S'What type of diversion is present in the image?'
p1789
asS'185960419.jpg'
p1790
(lp1791
S'What type of gathering is present in the image?'
p1792
aS'Choose the type of group present in the image?'
p1793
asS'3791591952.jpg'
p1794
(lp1795
S'What type of show is present in the image?'
p1796
aS'Choose the type of art present in the image?'
p1797
aS'What type of creation is not shown in the image?'
p1798
asS'3538072765.jpg'
p1799
(lp1800
S'What type of soil is present in the image?'
p1801
asS'2299427360.jpg'
p1802
(lp1803
S'What type of canine is present in the image?'
p1804
aS'Choose the type of chordate present in the image?'
p1805
aS'What type of vertebrate is not shown in the image?'
p1806
asS'6053187227.jpg'
p1807
(lp1808
sS'2304374703.jpg'
p1809
(lp1810
S'What type of dramatic composition is present in the image?'
p1811
aS'Choose the type of canine present in the image?'
p1812
aS'What type of vertebrate is not shown in the image?'
p1813
asS'4738025604.jpg'
p1814
(lp1815
S'What type of causal agent is present in the image?'
p1816
aS'Choose the type of conveyance present in the image?'
p1817
aS'What type of motor vehicle is not shown in the image?'
p1818
asS'4356644331.jpg'
p1819
(lp1820
S'What type of animal skin is present in the image?'
p1821
asS'7631372276.jpg'
p1822
(lp1823
S'What type of group is present in the image?'
p1824
aS'Choose the type of commercial enterprise present in the image?'
p1825
aS'What type of boat is not shown in the image?'
p1826
asS'14748953.jpg'
p1827
(lp1828
S'What type of causal agent is present in the image?'
p1829
asS'4255627436.jpg'
p1830
(lp1831
S'What type of paving is present in the image?'
p1832
asS'5721495953.jpg'
p1833
(lp1834
S'What type of attire is present in the image?'
p1835
asS'2678792892.jpg'
p1836
(lp1837
S'What type of body of water is present in the image?'
p1838
aS'Choose the type of juvenile present in the image?'
p1839
aS'What type of binary compound is not shown in the image?'
p1840
asS'2120161244.jpg'
p1841
(lp1842
S'What type of consumer goods is present in the image?'
p1843
aS'Choose the type of causal agent present in the image?'
p1844
aS'What type of woman is not shown in the image?'
p1845
asS'2116381816.jpg'
p1846
(lp1847
S'What type of group is present in the image?'
p1848
aS'Choose the type of movable barrier present in the image?'
p1849
aS'What type of furnishing is not shown in the image?'
p1850
asS'4923233692.jpg'
p1851
(lp1852
S'What type of causal agent is present in the image?'
p1853
aS'Choose the type of season present in the image?'
p1854
aS'What type of traveler is not shown in the image?'
p1855
asS'1339596997.jpg'
p1856
(lp1857
S'What type of consumer goods is present in the image?'
p1858
aS'Choose the type of adult present in the image?'
p1859
aS'What type of adult is not shown in the image?'
p1860
asS'4851268802.jpg'
p1861
(lp1862
S'What type of group is present in the image?'
p1863
aS'Choose the type of angiosperm present in the image?'
p1864
aS'What type of gathering is not shown in the image?'
p1865
asS'6782191871.jpg'
p1866
(lp1867
S'What type of diversion is present in the image?'
p1868
aS'Choose the type of sport present in the image?'
p1869
asS'7959598848.jpg'
p1870
(lp1871
S'What type of diversion is present in the image?'
p1872
aS'Choose the type of cheer present in the image?'
p1873
asS'2775068620.jpg'
p1874
(lp1875
S'What type of municipality is present in the image?'
p1876
aS'Choose the type of traveler present in the image?'
p1877
asS'4011394505.jpg'
p1878
(lp1879
S'What type of diversion is present in the image?'
p1880
aS'Choose the type of contestant present in the image?'
p1881
aS'What type of cattle is not shown in the image?'
p1882
asS'64327797.jpg'
p1883
(lp1884
S'What type of diversion is present in the image?'
p1885
aS'Choose the type of track and field present in the image?'
p1886
aS'What type of sport is not shown in the image?'
p1887
asS'6247842442.jpg'
p1888
(lp1889
S'What type of performer is present in the image?'
p1890
aS'Choose the type of device present in the image?'
p1891
aS'What type of performance is not shown in the image?'
p1892
asS'3420323191.jpg'
p1893
(lp1894
S'What type of diversion is present in the image?'
p1895
aS'Choose the type of canoe present in the image?'
p1896
aS'What type of vessel is not shown in the image?'
p1897
asS'574274795.jpg'
p1898
(lp1899
S'What type of aerosol is present in the image?'
p1900
aS'Choose the type of life present in the image?'
p1901
aS'What type of fog is not shown in the image?'
p1902
asS'3399798295.jpg'
p1903
(lp1904
S'What type of adult is present in the image?'
p1905
aS'Choose the type of person present in the image?'
p1906
aS'What type of spot is not shown in the image?'
p1907
asS'4289389552.jpg'
p1908
(lp1909
S'What type of causal agent is present in the image?'
p1910
aS'Choose the type of group present in the image?'
p1911
asS'4924679654.jpg'
p1912
(lp1913
S'What type of cycling is present in the image?'
p1914
aS'Choose the type of conveyance present in the image?'
p1915
aS'What type of wheeled vehicle is not shown in the image?'
p1916
asS'7446693604.jpg'
p1917
(lp1918
S'What type of conveyance is present in the image?'
p1919
aS'Choose the type of small boat present in the image?'
p1920
aS'What type of animal order is not shown in the image?'
p1921
asS'2438728474.jpg'
p1922
(lp1923
S'What type of plot is present in the image?'
p1924
aS'Choose the type of angiosperm present in the image?'
p1925
aS'What type of field is not shown in the image?'
p1926
asS'4932142811.jpg'
p1927
(lp1928
S'What type of way is present in the image?'
p1929
aS'Choose the type of section present in the image?'
p1930
aS'What type of municipality is not shown in the image?'
p1931
asS'85600252.jpg'
p1932
(lp1933
S'What type of causal agent is present in the image?'
p1934
aS'Choose the type of group present in the image?'
p1935
asS'664228094.jpg'
p1936
(lp1937
S'What type of dirtiness is present in the image?'
p1938
aS'Choose the type of output present in the image?'
p1939
aS'What type of soil is not shown in the image?'
p1940
asS'1912483048.jpg'
p1941
(lp1942
S'What type of performer is present in the image?'
p1943
aS'Choose the type of conveyance present in the image?'
p1944
aS'What type of musician is not shown in the image?'
p1945
asS'3130064588.jpg'
p1946
(lp1947
S'What type of leisure is present in the image?'
p1948
aS'Choose the type of body of water present in the image?'
p1949
aS'What type of vessel is not shown in the image?'
p1950
asS'2644326817.jpg'
p1951
(lp1952
S'What type of canine is present in the image?'
p1953
aS'Choose the type of plain present in the image?'
p1954
aS'What type of vertebrate is not shown in the image?'
p1955
asS'2104009548.jpg'
p1956
(lp1957
S'What type of creation is present in the image?'
p1958
aS'Choose the type of visual communication present in the image?'
p1959
aS'What type of decoration is not shown in the image?'
p1960
asS'2749856945.jpg'
p1961
(lp1962
S'What type of nutriment is present in the image?'
p1963
aS'Choose the type of meal present in the image?'
p1964
aS'What type of angiosperm is not shown in the image?'
p1965
asS'3728438187.jpg'
p1966
(lp1967
S'What type of framework is present in the image?'
p1968
aS'Choose the type of curve present in the image?'
p1969
aS'What type of building is not shown in the image?'
p1970
asS'7081584189.jpg'
p1971
(lp1972
S'What type of precipitation is present in the image?'
p1973
aS'Choose the type of creation present in the image?'
p1974
aS'What type of water travel is not shown in the image?'
p1975
asS'5739923608.jpg'
p1976
(lp1977
S'What type of group is present in the image?'
p1978
aS'Choose the type of traveler present in the image?'
p1979
asS'233361142.jpg'
p1980
(lp1981
S'What type of canine is present in the image?'
p1982
aS'Choose the type of chordate present in the image?'
p1983
asS'3532587748.jpg'
p1984
(lp1985
sS'168536743.jpg'
p1986
(lp1987
S'What type of conveyance is present in the image?'
p1988
aS'Choose the type of body of water present in the image?'
p1989
aS'What type of water travel is not shown in the image?'
p1990
asS'5789670474.jpg'
p1991
(lp1992
S'What type of diversion is present in the image?'
p1993
aS'Choose the type of activity present in the image?'
p1994
aS'What type of skating is not shown in the image?'
p1995
asS'1258371874.jpg'
p1996
(lp1997
S'What type of water travel is present in the image?'
p1998
aS'Choose the type of track and field present in the image?'
p1999
aS'What type of conveyance is not shown in the image?'
p2000
asS'254178173.jpg'
p2001
(lp2002
S'What type of municipality is present in the image?'
p2003
aS'Choose the type of position present in the image?'
p2004
aS'What type of municipality is not shown in the image?'
p2005
asS'5479743540.jpg'
p2006
(lp2007
S'What type of diversion is present in the image?'
p2008
aS'Choose the type of activity present in the image?'
p2009
aS'What type of wheeled vehicle is not shown in the image?'
p2010
asS'4327457460.jpg'
p2011
(lp2012
S'What type of body of water is present in the image?'
p2013
asS'2908834379.jpg'
p2014
(lp2015
S'What type of activity is present in the image?'
p2016
aS'Choose the type of collection present in the image?'
p2017
aS'What type of linguistic process is not shown in the image?'
p2018
asS'2250713748.jpg'
p2019
(lp2020
S'What type of time period is present in the image?'
p2021
asS'4898250461.jpg'
p2022
(lp2023
S'What type of consumer goods is present in the image?'
p2024
aS'Choose the type of adult present in the image?'
p2025
aS'What type of causal agent is not shown in the image?'
p2026
asS'1316458112.jpg'
p2027
(lp2028
S'What type of causal agent is present in the image?'
p2029
aS'Choose the type of group present in the image?'
p2030
asS'1104133405.jpg'
p2031
(lp2032
S'What type of diversion is present in the image?'
p2033
aS'Choose the type of group present in the image?'
p2034
asS'2792152754.jpg'
p2035
(lp2036
S'What type of creation is present in the image?'
p2037
asS'6788339456.jpg'
p2038
(lp2039
S'What type of show is present in the image?'
p2040
aS'Choose the type of creation present in the image?'
p2041
aS'What type of time period is not shown in the image?'
p2042
asS'241345770.jpg'
p2043
(lp2044
S'What type of lineman is present in the image?'
p2045
aS'Choose the type of contestant present in the image?'
p2046
asS'3582914905.jpg'
p2047
(lp2048
S'What type of diversion is present in the image?'
p2049
aS'Choose the type of boat present in the image?'
p2050
aS'What type of activity is not shown in the image?'
p2051
asS'3180806542.jpg'
p2052
(lp2053
S'What type of diversion is present in the image?'
p2054
aS'Choose the type of precipitation present in the image?'
p2055
asS'4275465064.jpg'
p2056
(lp2057
S'What type of group is present in the image?'
p2058
aS'Choose the type of angiosperm present in the image?'
p2059
aS'What type of gathering is not shown in the image?'
p2060
asS'4966265765.jpg'
p2061
(lp2062
S'What type of causal agent is present in the image?'
p2063
asS'3523559027.jpg'
p2064
(lp2065
S'What type of property is present in the image?'
p2066
aS'Choose the type of field present in the image?'
p2067
aS'What type of workplace is not shown in the image?'
p2068
asS'33972426.jpg'
p2069
(lp2070
S'What type of woody plant is present in the image?'
p2071
aS'Choose the type of reproductive structure present in the image?'
p2072
aS'What type of building complex is not shown in the image?'
p2073
asS'4801849846.jpg'
p2074
(lp2075
S'What type of section is present in the image?'
p2076
aS'Choose the type of way present in the image?'
p2077
aS'What type of building is not shown in the image?'
p2078
asS'292531473.jpg'
p2079
(lp2080
S'What type of diversion is present in the image?'
p2081
aS'Choose the type of activity present in the image?'
p2082
asS'4700843895.jpg'
p2083
(lp2084
S'What type of leisure is present in the image?'
p2085
aS'Choose the type of community present in the image?'
p2086
aS'What type of track and field is not shown in the image?'
p2087
asS'4202255358.jpg'
p2088
(lp2089
S'What type of instrumentality is present in the image?'
p2090
aS'Choose the type of conveyance present in the image?'
p2091
aS'What type of conveyance is not shown in the image?'
p2092
asS'6317293855.jpg'
p2093
(lp2094
S'What type of performer is present in the image?'
p2095
aS'Choose the type of musician present in the image?'
p2096
asS'7024548973.jpg'
p2097
(lp2098
S'What type of dramatic composition is present in the image?'
p2099
aS'Choose the type of causal agent present in the image?'
p2100
aS'What type of solid is not shown in the image?'
p2101
asS'4455622662.jpg'
p2102
(lp2103
S'What type of season is present in the image?'
p2104
aS'Choose the type of precipitation present in the image?'
p2105
aS'What type of public transport is not shown in the image?'
p2106
asS'61454211.jpg'
p2107
(lp2108
S'What type of upper surface is present in the image?'
p2109
asS'2379737358.jpg'
p2110
(lp2111
S'What type of dramatic composition is present in the image?'
p2112
aS'Choose the type of track and field present in the image?'
p2113
aS'What type of child is not shown in the image?'
p2114
asS'2689358407.jpg'
p2115
(lp2116
S'What type of diversion is present in the image?'
p2117
asS'2409771090.jpg'
p2118
(lp2119
S'What type of show is present in the image?'
p2120
aS'Choose the type of creation present in the image?'
p2121
aS'What type of art is not shown in the image?'
p2122
asS'6847695941.jpg'
p2123
(lp2124
S'What type of causal agent is present in the image?'
p2125
aS'Choose the type of group present in the image?'
p2126
aS'What type of promotion is not shown in the image?'
p2127
asS'3330935489.jpg'
p2128
(lp2129
S'What type of cur is present in the image?'
p2130
aS'Choose the type of mammal family present in the image?'
p2131
aS'What type of hunting dog is not shown in the image?'
p2132
asS'5074980095.jpg'
p2133
(lp2134
S'What type of conveyance is present in the image?'
p2135
aS'Choose the type of wagon present in the image?'
p2136
asS'7338940816.jpg'
p2137
(lp2138
S'What type of precipitation is present in the image?'
p2139
aS'Choose the type of atmospheric phenomenon present in the image?'
p2140
asS'3275704430.jpg'
p2141
(lp2142
S'What type of representation is present in the image?'
p2143
aS'Choose the type of causal agent present in the image?'
p2144
aS'What type of group is not shown in the image?'
p2145
asS'349394363.jpg'
p2146
(lp2147
S'What type of woody plant is present in the image?'
p2148
asS'2511019188.jpg'
p2149
(lp2150
S'What type of canine is present in the image?'
p2151
aS'Choose the type of chordate present in the image?'
p2152
aS'What type of vertebrate is not shown in the image?'
p2153
asS'2214780248.jpg'
p2154
(lp2155
S'What type of geological formation is present in the image?'
p2156
aS'Choose the type of shore present in the image?'
p2157
aS'What type of geological formation is not shown in the image?'
p2158
asS'2647394564.jpg'
p2159
(lp2160
S'What type of hour is present in the image?'
p2161
asS'4617982332.jpg'
p2162
(lp2163
S'What type of disfavor is present in the image?'
p2164
asS'4887777705.jpg'
p2165
(lp2166
S'What type of causal agent is present in the image?'
p2167
aS'Choose the type of group present in the image?'
p2168
aS'What type of traveler is not shown in the image?'
p2169
asS'3415178926.jpg'
p2170
(lp2171
S'What type of canine is present in the image?'
p2172
aS'Choose the type of life present in the image?'
p2173
aS'What type of chordate is not shown in the image?'
p2174
asS'3672105089.jpg'
p2175
(lp2176
S'What type of group is present in the image?'
p2177
asS'2181117039.jpg'
p2178
(lp2179
S'What type of group is present in the image?'
p2180
asS'430689218.jpg'
p2181
(lp2182
S'What type of adult is present in the image?'
p2183
aS'Choose the type of child present in the image?'
p2184
aS'What type of adult is not shown in the image?'
p2185
asS'2925760802.jpg'
p2186
(lp2187
S'What type of photograph is present in the image?'
p2188
aS'Choose the type of consumer goods present in the image?'
p2189
aS'What type of contestant is not shown in the image?'
p2190
asS'3168334220.jpg'
p2191
(lp2192
S'What type of collection is present in the image?'
p2193
aS'Choose the type of angiosperm present in the image?'
p2194
aS'What type of woody plant is not shown in the image?'
p2195
asS'4295263796.jpg'
p2196
(lp2197
S'What type of precipitation is present in the image?'
p2198
aS'Choose the type of binary compound present in the image?'
p2199
aS'What type of paving is not shown in the image?'
p2200
asS'5559471351.jpg'
p2201
(lp2202
S'What type of consumer goods is present in the image?'
p2203
aS'Choose the type of body covering present in the image?'
p2204
aS'What type of chromatic color is not shown in the image?'
p2205
asS'4671069535.jpg'
p2206
(lp2207
S'What type of vacation is present in the image?'
p2208
asS'3037108254.jpg'
p2209
(lp2210
S'What type of adult is present in the image?'
p2211
aS'Choose the type of marital status present in the image?'
p2212
aS'What type of causal agent is not shown in the image?'
p2213
asS'2335619125.jpg'
p2214
(lp2215
S'What type of canine is present in the image?'
p2216
aS'Choose the type of dog present in the image?'
p2217
asS'4899074189.jpg'
p2218
(lp2219
S'What type of conveyance is present in the image?'
p2220
aS'Choose the type of motor vehicle present in the image?'
p2221
aS'What type of cycling is not shown in the image?'
p2222
asS'4721088452.jpg'
p2223
(lp2224
S'What type of sign is present in the image?'
p2225
aS'Choose the type of structure present in the image?'
p2226
asS'5526795355.jpg'
p2227
(lp2228
S'What type of causal agent is present in the image?'
p2229
aS'Choose the type of performer present in the image?'
p2230
aS'What type of musical performance is not shown in the image?'
p2231
asS'1394368714.jpg'
p2232
(lp2233
S'What type of dog is present in the image?'
p2234
aS'Choose the type of canine present in the image?'
p2235
aS'What type of working dog is not shown in the image?'
p2236
asS'413045343.jpg'
p2237
(lp2238
S'What type of gathering is present in the image?'
p2239
aS'Choose the type of gathering present in the image?'
p2240
aS'What type of group is not shown in the image?'
p2241
asS'1562478333.jpg'
p2242
(lp2243
S'What type of vessel is present in the image?'
p2244
aS'Choose the type of water travel present in the image?'
p2245
aS'What type of path is not shown in the image?'
p2246
asS'517214008.jpg'
p2247
(lp2248
S'What type of cooking is present in the image?'
p2249
asS'3242808166.jpg'
p2250
(lp2251
S'What type of time period is present in the image?'
p2252
aS'Choose the type of precipitation present in the image?'
p2253
aS'What type of season is not shown in the image?'
p2254
asS'342872408.jpg'
p2255
(lp2256
S'What type of diversion is present in the image?'
p2257
aS'Choose the type of natural object present in the image?'
p2258
aS'What type of climb is not shown in the image?'
p2259
asS'4570406069.jpg'
p2260
(lp2261
S'What type of consumer goods is present in the image?'
p2262
aS'Choose the type of angiosperm present in the image?'
p2263
asS'3168796547.jpg'
p2264
(lp2265
S'What type of substance is present in the image?'
p2266
aS'Choose the type of ruminant present in the image?'
p2267
aS'What type of cattle is not shown in the image?'
p2268
asS'2247101794.jpg'
p2269
(lp2270
S'What type of woody plant is present in the image?'
p2271
aS'Choose the type of furnishing present in the image?'
p2272
aS'What type of angiosperm is not shown in the image?'
p2273
asS'3708172446.jpg'
p2274
(lp2275
S'What type of woody plant is present in the image?'
p2276
aS'Choose the type of building present in the image?'
p2277
aS'What type of angiosperm is not shown in the image?'
p2278
asS'4380540363.jpg'
p2279
(lp2280
S'What type of consumer goods is present in the image?'
p2281
aS'Choose the type of trouser present in the image?'
p2282
aS'What type of causal agent is not shown in the image?'
p2283
asS'4642869349.jpg'
p2284
(lp2285
S'What type of art is present in the image?'
p2286
aS'Choose the type of show present in the image?'
p2287
aS'What type of creation is not shown in the image?'
p2288
asS'2831394884.jpg'
p2289
(lp2290
S'What type of juvenile is present in the image?'
p2291
aS'Choose the type of causal agent present in the image?'
p2292
aS'What type of adult is not shown in the image?'
p2293
asS'3472066410.jpg'
p2294
(lp2295
S'What type of footwear is present in the image?'
p2296
aS'Choose the type of diversion present in the image?'
p2297
aS'What type of limb is not shown in the image?'
p2298
asS'4509496747.jpg'
p2299
(lp2300
S'What type of show is present in the image?'
p2301
aS'Choose the type of time period present in the image?'
p2302
asS'2809338182.jpg'
p2303
(lp2304
S'What type of conveyance is present in the image?'
p2305
aS'Choose the type of golf stroke present in the image?'
p2306
asS'4329176590.jpg'
p2307
(lp2308
S'What type of conference is present in the image?'
p2309
aS'Choose the type of basic cognitive process present in the image?'
p2310
aS'What type of education is not shown in the image?'
p2311
asS'281716983.jpg'
p2312
(lp2313
S'What type of consumer goods is present in the image?'
p2314
aS'Choose the type of chromatic color present in the image?'
p2315
aS'What type of stringed instrument is not shown in the image?'
p2316
asS'3499433493.jpg'
p2317
(lp2318
S'What type of conveyance is present in the image?'
p2319
aS'Choose the type of sport present in the image?'
p2320
aS'What type of motor is not shown in the image?'
p2321
asS'4764087782.jpg'
p2322
(lp2323
S'What type of traveler is present in the image?'
p2324
aS'Choose the type of way present in the image?'
p2325
aS'What type of clue is not shown in the image?'
p2326
asS'353313973.jpg'
p2327
(lp2328
S'What type of contestant is present in the image?'
p2329
aS'Choose the type of diversion present in the image?'
p2330
aS'What type of track and field is not shown in the image?'
p2331
asS'4870555690.jpg'
p2332
(lp2333
S'What type of adult is present in the image?'
p2334
aS'Choose the type of group present in the image?'
p2335
aS'What type of athlete is not shown in the image?'
p2336
asS'4921075662.jpg'
p2337
(lp2338
S'What type of woody plant is present in the image?'
p2339
aS'Choose the type of field present in the image?'
p2340
asS'6796767853.jpg'
p2341
(lp2342
S'What type of diversion is present in the image?'
p2343
aS'Choose the type of martial art present in the image?'
p2344
aS'What type of martial art is not shown in the image?'
p2345
asS'4813304431.jpg'
p2346
(lp2347
S'What type of thoroughfare is present in the image?'
p2348
aS'Choose the type of clue present in the image?'
p2349
aS'What type of collection is not shown in the image?'
p2350
asS'6754889771.jpg'
p2351
(lp2352
S'What type of soldier is present in the image?'
p2353
aS'Choose the type of natural elevation present in the image?'
p2354
aS'What type of formation is not shown in the image?'
p2355
asS'3665421893.jpg'
p2356
(lp2357
S'What type of causal agent is present in the image?'
p2358
aS'Choose the type of group present in the image?'
p2359
aS'What type of gathering is not shown in the image?'
p2360
asS'7635753040.jpg'
p2361
(lp2362
S'What type of diversion is present in the image?'
p2363
aS'Choose the type of male horse present in the image?'
p2364
asS'1663751778.jpg'
p2365
(lp2366
S'What type of diversion is present in the image?'
p2367
aS'Choose the type of rise present in the image?'
p2368
aS'What type of activity is not shown in the image?'
p2369
asS'3742002550.jpg'
p2370
(lp2371
S'What type of causal agent is present in the image?'
p2372
aS'Choose the type of group present in the image?'
p2373
aS'What type of animal skin is not shown in the image?'
p2374
asS'241345942.jpg'
p2375
(lp2376
S'What type of lineman is present in the image?'
p2377
aS'Choose the type of contestant present in the image?'
p2378
aS'What type of contestant is not shown in the image?'
p2379
asS'3317960829.jpg'
p2380
(lp2381
S'What type of consumer goods is present in the image?'
p2382
aS'Choose the type of attire present in the image?'
p2383
asS'3342450499.jpg'
p2384
(lp2385
S'What type of conveyance is present in the image?'
p2386
aS'Choose the type of motor vehicle present in the image?'
p2387
aS'What type of military vehicle is not shown in the image?'
p2388
asS'4603555535.jpg'
p2389
(lp2390
S'What type of pictorial representation is present in the image?'
p2391
aS'Choose the type of creation present in the image?'
p2392
aS'What type of word picture is not shown in the image?'
p2393
asS'141755292.jpg'
p2394
(lp2395
S'What type of nutriment is present in the image?'
p2396
aS'Choose the type of container present in the image?'
p2397
aS'What type of substance is not shown in the image?'
p2398
asS'3560503470.jpg'
p2399
(lp2400
S'What type of wheeled vehicle is present in the image?'
p2401
aS'Choose the type of conveyance present in the image?'
p2402
aS'What type of sport is not shown in the image?'
p2403
asS'7627629540.jpg'
p2404
(lp2405
S'What type of soil is present in the image?'
p2406
aS'Choose the type of causal agent present in the image?'
p2407
aS'What type of external body part is not shown in the image?'
p2408
asS'2973638173.jpg'
p2409
(lp2410
S'What type of diversion is present in the image?'
p2411
aS'Choose the type of woody plant present in the image?'
p2412
aS'What type of track and field is not shown in the image?'
p2413
asS'118309463.jpg'
p2414
(lp2415
S'What type of headdress is present in the image?'
p2416
aS'Choose the type of consumer goods present in the image?'
p2417
aS'What type of contestant is not shown in the image?'
p2418
asS'4511879942.jpg'
p2419
(lp2420
S'What type of group is present in the image?'
p2421
aS'Choose the type of city district present in the image?'
p2422
aS'What type of hypothesis is not shown in the image?'
p2423
asS'3142687558.jpg'
p2424
(lp2425
S'What type of consumer goods is present in the image?'
p2426
aS'Choose the type of show present in the image?'
p2427
aS'What type of creation is not shown in the image?'
p2428
asS'5723818088.jpg'
p2429
(lp2430
S'What type of consumer goods is present in the image?'
p2431
aS'Choose the type of causal agent present in the image?'
p2432
aS'What type of occupational group is not shown in the image?'
p2433
asS'1693115528.jpg'
p2434
(lp2435
S'What type of transmission is present in the image?'
p2436
asS'2242559074.jpg'
p2437
(lp2438
S'What type of conveyance is present in the image?'
p2439
asS'5075763701.jpg'
p2440
(lp2441
S'What type of wheeled vehicle is present in the image?'
p2442
aS'Choose the type of diversion present in the image?'
p2443
aS'What type of waterway is not shown in the image?'
p2444
asS'2723024306.jpg'
p2445
(lp2446
S'What type of soil is present in the image?'
p2447
aS'Choose the type of body of water present in the image?'
p2448
asS'4858070078.jpg'
p2449
(lp2450
S'What type of front is present in the image?'
p2451
aS'Choose the type of promotion present in the image?'
p2452
asS'114939325.jpg'
p2453
(lp2454
S'What type of diversion is present in the image?'
p2455
aS'Choose the type of track and field present in the image?'
p2456
aS'What type of division is not shown in the image?'
p2457
asS'75375389.jpg'
p2458
(lp2459
S'What type of municipality is present in the image?'
p2460
aS'Choose the type of juvenile present in the image?'
p2461
aS'What type of group is not shown in the image?'
p2462
asS'179656683.jpg'
p2463
(lp2464
S'What type of adult is present in the image?'
p2465
aS'Choose the type of causal agent present in the image?'
p2466
aS'What type of creation is not shown in the image?'
p2467
asS'4808416879.jpg'
p2468
(lp2469
S'What type of way is present in the image?'
p2470
aS'Choose the type of municipality present in the image?'
p2471
aS'What type of municipality is not shown in the image?'
p2472
asS'2797774642.jpg'
p2473
(lp2474
S'What type of contestant is present in the image?'
p2475
aS'Choose the type of causal agent present in the image?'
p2476
aS'What type of contact sport is not shown in the image?'
p2477
asS'4411115360.jpg'
p2478
(lp2479
S'What type of ceremony is present in the image?'
p2480
aS'Choose the type of conference present in the image?'
p2481
aS'What type of meeting is not shown in the image?'
p2482
asS'3467941308.jpg'
p2483
(lp2484
S'What type of canine is present in the image?'
p2485
aS'Choose the type of chordate present in the image?'
p2486
aS'What type of vertebrate is not shown in the image?'
p2487
asS'6141981912.jpg'
p2488
(lp2489
S'What type of diversion is present in the image?'
p2490
aS'Choose the type of contestant present in the image?'
p2491
aS'What type of lineman is not shown in the image?'
p2492
asS'1115565519.jpg'
p2493
(lp2494
S'What type of causal agent is present in the image?'
p2495
asS'136552115.jpg'
p2496
(lp2497
S'What type of natural elevation is present in the image?'
p2498
aS'Choose the type of wheeled vehicle present in the image?'
p2499
asS'3755945880.jpg'
p2500
(lp2501
S'What type of building is present in the image?'
p2502
aS'Choose the type of outline present in the image?'
p2503
aS'What type of office is not shown in the image?'
p2504
asS'411863595.jpg'
p2505
(lp2506
S'What type of tract is present in the image?'
p2507
aS'Choose the type of biome present in the image?'
p2508
aS'What type of grassland is not shown in the image?'
p2509
asS'2430223532.jpg'
p2510
(lp2511
S'What type of show is present in the image?'
p2512
aS'Choose the type of time period present in the image?'
p2513
aS'What type of creation is not shown in the image?'
p2514
asS'7803420092.jpg'
p2515
(lp2516
S'What type of diversion is present in the image?'
p2517
aS'Choose the type of ball game present in the image?'
p2518
asS'986127455.jpg'
p2519
(lp2520
S'What type of art is present in the image?'
p2521
asS'21167868.jpg'
p2522
(lp2523
S'What type of show is present in the image?'
p2524
aS'Choose the type of performance present in the image?'
p2525
aS'What type of performer is not shown in the image?'
p2526
asS'3542145123.jpg'
p2527
(lp2528
S'What type of field is present in the image?'
p2529
aS'Choose the type of chromatic color present in the image?'
p2530
aS'What type of woody plant is not shown in the image?'
p2531
asS'1394756978.jpg'
p2532
(lp2533
S'What type of traveler is present in the image?'
p2534
asS'3189448227.jpg'
p2535
(lp2536
S'What type of nutriment is present in the image?'
p2537
aS'Choose the type of education present in the image?'
p2538
asS'2402762193.jpg'
p2539
(lp2540
S'What type of art is present in the image?'
p2541
aS'Choose the type of causal agent present in the image?'
p2542
aS'What type of creation is not shown in the image?'
p2543
asS'4621831701.jpg'
p2544
(lp2545
S'What type of performer is present in the image?'
p2546
aS'Choose the type of music present in the image?'
p2547
aS'What type of musician is not shown in the image?'
p2548
asS'4319178349.jpg'
p2549
(lp2550
S'What type of diversion is present in the image?'
p2551
aS'Choose the type of court game present in the image?'
p2552
asS'3390808454.jpg'
p2553
(lp2554
S'What type of diversion is present in the image?'
p2555
asS'1410039760.jpg'
p2556
(lp2557
S'What type of causal agent is present in the image?'
p2558
aS'Choose the type of speech act present in the image?'
p2559
aS'What type of speech is not shown in the image?'
p2560
asS'4360907086.jpg'
p2561
(lp2562
S'What type of diversion is present in the image?'
p2563
aS'Choose the type of contestant present in the image?'
p2564
asS'3540416981.jpg'
p2565
(lp2566
S'What type of canine is present in the image?'
p2567
aS'Choose the type of chordate present in the image?'
p2568
aS'What type of vertebrate is not shown in the image?'
p2569
asS'3756150099.jpg'
p2570
(lp2571
S'What type of collage is present in the image?'
p2572
aS'Choose the type of angiosperm present in the image?'
p2573
aS'What type of juvenile is not shown in the image?'
p2574
asS'4552731904.jpg'
p2575
(lp2576
S'What type of container is present in the image?'
p2577
aS'Choose the type of group present in the image?'
p2578
aS'What type of substance is not shown in the image?'
p2579
asS'3717467586.jpg'
p2580
(lp2581
S'What type of nutriment is present in the image?'
p2582
asS'2496523295.jpg'
p2583
(lp2584
S'What type of group is present in the image?'
p2585
aS'Choose the type of causal agent present in the image?'
p2586
asS'5267607278.jpg'
p2587
(lp2588
S'What type of juvenile is present in the image?'
p2589
asS'2289283018.jpg'
p2590
(lp2591
S'What type of instrumentality is present in the image?'
p2592
aS'Choose the type of railway present in the image?'
p2593
asS'269444846.jpg'
p2594
(lp2595
S'What type of diversion is present in the image?'
p2596
aS'Choose the type of geological formation present in the image?'
p2597
aS'What type of body of water is not shown in the image?'
p2598
asS'4930823945.jpg'
p2599
(lp2600
S'What type of conveyance is present in the image?'
p2601
aS'Choose the type of cattle present in the image?'
p2602
aS'What type of farm is not shown in the image?'
p2603
asS'4946045875.jpg'
p2604
(lp2605
S'What type of juvenile is present in the image?'
p2606
aS'Choose the type of dramatic composition present in the image?'
p2607
aS'What type of leisure is not shown in the image?'
p2608
asS'4982173955.jpg'
p2609
(lp2610
S'What type of leisure is present in the image?'
p2611
aS'Choose the type of causal agent present in the image?'
p2612
aS'What type of group is not shown in the image?'
p2613
asS'4405699723.jpg'
p2614
(lp2615
S'What type of conveyance is present in the image?'
p2616
aS'Choose the type of solid present in the image?'
p2617
aS'What type of framework is not shown in the image?'
p2618
asS'120545123.jpg'
p2619
(lp2620
S'What type of diversion is present in the image?'
p2621
aS'Choose the type of causal agent present in the image?'
p2622
aS'What type of walk is not shown in the image?'
p2623
asS'4466251271.jpg'
p2624
(lp2625
S'What type of group is present in the image?'
p2626
aS'Choose the type of gathering present in the image?'
p2627
asS'2619454551.jpg'
p2628
(lp2629
S'What type of vertebrate is present in the image?'
p2630
aS'Choose the type of gallinaceous bird present in the image?'
p2631
aS'What type of chicken is not shown in the image?'
p2632
asS'3601533527.jpg'
p2633
(lp2634
S'What type of consumer goods is present in the image?'
p2635
aS'Choose the type of achromatic color present in the image?'
p2636
aS'What type of clothing is not shown in the image?'
p2637
asS'3827298104.jpg'
p2638
(lp2639
S'What type of region is present in the image?'
p2640
aS'Choose the type of partition present in the image?'
p2641
aS'What type of painting is not shown in the image?'
p2642
asS'2198511848.jpg'
p2643
(lp2644
S'What type of diversion is present in the image?'
p2645
aS'Choose the type of precipitation present in the image?'
p2646
aS'What type of sport is not shown in the image?'
p2647
asS'111766423.jpg'
p2648
(lp2649
S'What type of mouth is present in the image?'
p2650
aS'Choose the type of vertebrate present in the image?'
p2651
aS'What type of chordate is not shown in the image?'
p2652
asS'4879725156.jpg'
p2653
(lp2654
S'What type of consumer goods is present in the image?'
p2655
aS'Choose the type of attire present in the image?'
p2656
aS'What type of garment is not shown in the image?'
p2657
asS'685711383.jpg'
p2658
(lp2659
S'What type of adult is present in the image?'
p2660
aS'Choose the type of contestant present in the image?'
p2661
aS'What type of causal agent is not shown in the image?'
p2662
asS'8240968816.jpg'
p2663
(lp2664
S'What type of diversion is present in the image?'
p2665
aS'Choose the type of body of water present in the image?'
p2666
aS'What type of soil is not shown in the image?'
p2667
asS'3716283232.jpg'
p2668
(lp2669
S'What type of contestant is present in the image?'
p2670
aS'Choose the type of athlete present in the image?'
p2671
aS'What type of horizontal surface is not shown in the image?'
p2672
asS'413588617.jpg'
p2673
(lp2674
S'What type of season is present in the image?'
p2675
aS'Choose the type of diversion present in the image?'
p2676
aS'What type of track and field is not shown in the image?'
p2677
asS'3367053761.jpg'
p2678
(lp2679
S'What type of room is present in the image?'
p2680
aS'Choose the type of procurator present in the image?'
p2681
asS'2105320784.jpg'
p2682
(lp2683
S'What type of instrumentality is present in the image?'
p2684
aS'Choose the type of conveyance present in the image?'
p2685
aS'What type of promotion is not shown in the image?'
p2686
asS'2937248015.jpg'
p2687
(lp2688
S'What type of conveyance is present in the image?'
p2689
aS'Choose the type of building present in the image?'
p2690
aS'What type of time period is not shown in the image?'
p2691
asS'1246863003.jpg'
p2692
(lp2693
S'What type of container is present in the image?'
p2694
aS'Choose the type of nutriment present in the image?'
p2695
aS'What type of building is not shown in the image?'
p2696
asS'2523934341.jpg'
p2697
(lp2698
S'What type of way is present in the image?'
p2699
aS'Choose the type of municipality present in the image?'
p2700
aS'What type of way is not shown in the image?'
p2701
asS'3514055630.jpg'
p2702
(lp2703
S'What type of education is present in the image?'
p2704
aS'Choose the type of collection present in the image?'
p2705
asS'3518687038.jpg'
p2706
(lp2707
S'What type of diversion is present in the image?'
p2708
aS'Choose the type of orthopterous insect present in the image?'
p2709
asS'140407961.jpg'
p2710
(lp2711
S'What type of object is present in the image?'
p2712
aS'Choose the type of wheeled vehicle present in the image?'
p2713
aS'What type of path is not shown in the image?'
p2714
asS'4571649296.jpg'
p2715
(lp2716
S'What type of group is present in the image?'
p2717
asS'4814948954.jpg'
p2718
(lp2719
S'What type of dancer is present in the image?'
p2720
aS'Choose the type of attire present in the image?'
p2721
asS'5640452539.jpg'
p2722
(lp2723
S'What type of creation is present in the image?'
p2724
aS'Choose the type of time period present in the image?'
p2725
aS'What type of tract is not shown in the image?'
p2726
asS'2338968043.jpg'
p2727
(lp2728
S'What type of disfavor is present in the image?'
p2729
aS'Choose the type of group present in the image?'
p2730
aS'What type of locomotion is not shown in the image?'
p2731
asS'2449289139.jpg'
p2732
(lp2733
S'What type of quality is present in the image?'
p2734
aS'Choose the type of season present in the image?'
p2735
aS'What type of biome is not shown in the image?'
p2736
asS'4367617589.jpg'
p2737
(lp2738
S'What type of meeting is present in the image?'
p2739
aS'Choose the type of group present in the image?'
p2740
aS'What type of gathering is not shown in the image?'
p2741
asS'7108301125.jpg'
p2742
(lp2743
S'What type of diversion is present in the image?'
p2744
asS'1356627150.jpg'
p2745
(lp2746
S'What type of binary compound is present in the image?'
p2747
aS'Choose the type of season present in the image?'
p2748
aS'What type of turtle is not shown in the image?'
p2749
asS'3021024000.jpg'
p2750
(lp2751
S'What type of performer is present in the image?'
p2752
aS'Choose the type of musical organization present in the image?'
p2753
aS'What type of performance is not shown in the image?'
p2754
asS'2642474867.jpg'
p2755
(lp2756
S'What type of facial expression is present in the image?'
p2757
aS'Choose the type of causal agent present in the image?'
p2758
aS'What type of headdress is not shown in the image?'
p2759
asS'4747939650.jpg'
p2760
(lp2761
S'What type of object is present in the image?'
p2762
aS'Choose the type of comfort present in the image?'
p2763
asS'7773991560.jpg'
p2764
(lp2765
S'What type of diversion is present in the image?'
p2766
aS'Choose the type of activity present in the image?'
p2767
asS'4481546417.jpg'
p2768
(lp2769
S'What type of painting is present in the image?'
p2770
aS'Choose the type of section present in the image?'
p2771
aS'What type of wheeled vehicle is not shown in the image?'
p2772
asS'1461329041.jpg'
p2773
(lp2774
S'What type of conveyance is present in the image?'
p2775
aS'Choose the type of diversion present in the image?'
p2776
aS'What type of wheeled vehicle is not shown in the image?'
p2777
asS'3548358879.jpg'
p2778
(lp2779
S'What type of fire iron is present in the image?'
p2780
aS'Choose the type of diversion present in the image?'
p2781
asS'1295476404.jpg'
p2782
(lp2783
S'What type of chordophone is present in the image?'
p2784
aS'Choose the type of stringed instrument present in the image?'
p2785
aS'What type of furnishing is not shown in the image?'
p2786
asS'4208402957.jpg'
p2787
(lp2788
S'What type of conveyance is present in the image?'
p2789
aS'Choose the type of time period present in the image?'
p2790
asS'1304961697.jpg'
p2791
(lp2792
S'What type of diversion is present in the image?'
p2793
asS'3631810528.jpg'
p2794
(lp2795
S'What type of instrumentality is present in the image?'
p2796
aS'Choose the type of conveyance present in the image?'
p2797
aS'What type of residence is not shown in the image?'
p2798
asS'3884461163.jpg'
p2799
(lp2800
S'What type of soil is present in the image?'
p2801
aS'Choose the type of verbal creation present in the image?'
p2802
aS'What type of body of water is not shown in the image?'
p2803
asS'3473345355.jpg'
p2804
(lp2805
S'What type of time period is present in the image?'
p2806
asS'3077760473.jpg'
p2807
(lp2808
S'What type of way is present in the image?'
p2809
aS'Choose the type of section present in the image?'
p2810
aS'What type of thoroughfare is not shown in the image?'
p2811
asS'3024022266.jpg'
p2812
(lp2813
S'What type of water sport is present in the image?'
p2814
aS'Choose the type of diversion present in the image?'
p2815
asS'6820458661.jpg'
p2816
(lp2817
S'What type of juvenile is present in the image?'
p2818
aS'Choose the type of causal agent present in the image?'
p2819
aS'What type of child is not shown in the image?'
p2820
asS'7286653258.jpg'
p2821
(lp2822
S'What type of bowed stringed instrument is present in the image?'
p2823
aS'Choose the type of show present in the image?'
p2824
aS'What type of auditory communication is not shown in the image?'
p2825
asS'2441817857.jpg'
p2826
(lp2827
S'What type of outbuilding is present in the image?'
p2828
aS'Choose the type of building present in the image?'
p2829
aS'What type of furnishing is not shown in the image?'
p2830
asS'3498192512.jpg'
p2831
(lp2832
S'What type of gathering is present in the image?'
p2833
aS'Choose the type of group present in the image?'
p2834
aS'What type of gathering is not shown in the image?'
p2835
asS'6620094641.jpg'
p2836
(lp2837
S'What type of diversion is present in the image?'
p2838
aS'Choose the type of contestant present in the image?'
p2839
aS'What type of contestant is not shown in the image?'
p2840
asS'5829317322.jpg'
p2841
(lp2842
S'What type of diversion is present in the image?'
p2843
aS'Choose the type of creation present in the image?'
p2844
asS'3401902253.jpg'
p2845
(lp2846
S'What type of canine is present in the image?'
p2847
aS'Choose the type of chordate present in the image?'
p2848
asS'2430018178.jpg'
p2849
(lp2850
S'What type of show is present in the image?'
p2851
aS'Choose the type of performance present in the image?'
p2852
aS'What type of performer is not shown in the image?'
p2853
asS'51565199.jpg'
p2854
(lp2855
S'What type of water travel is present in the image?'
p2856
aS'Choose the type of conveyance present in the image?'
p2857
asS'3651107058.jpg'
p2858
(lp2859
S'What type of diversion is present in the image?'
p2860
asS'4870786783.jpg'
p2861
(lp2862
S'What type of municipality is present in the image?'
p2863
aS'Choose the type of residential district present in the image?'
p2864
aS'What type of section is not shown in the image?'
p2865
asS'4475333077.jpg'
p2866
(lp2867
S'What type of way is present in the image?'
p2868
aS'Choose the type of collection present in the image?'
p2869
aS'What type of instrumentality is not shown in the image?'
p2870
asS'7715662052.jpg'
p2871
(lp2872
S'What type of diversion is present in the image?'
p2873
aS'Choose the type of contestant present in the image?'
p2874
asS'7157359077.jpg'
p2875
(lp2876
S'What type of diversion is present in the image?'
p2877
aS'Choose the type of pool present in the image?'
p2878
aS'What type of excavation is not shown in the image?'
p2879
asS'2540757246.jpg'
p2880
(lp2881
S'What type of boat is present in the image?'
p2882
aS'Choose the type of conveyance present in the image?'
p2883
asS'3863819063.jpg'
p2884
(lp2885
S'What type of conveyance is present in the image?'
p2886
aS'Choose the type of vessel present in the image?'
p2887
asS'2438754748.jpg'
p2888
(lp2889
S'What type of adult is present in the image?'
p2890
aS'Choose the type of adult present in the image?'
p2891
aS'What type of causal agent is not shown in the image?'
p2892
asS'5301071699.jpg'
p2893
(lp2894
S'What type of nutriment is present in the image?'
p2895
aS'Choose the type of container present in the image?'
p2896
aS'What type of meal is not shown in the image?'
p2897
asS'3698928883.jpg'
p2898
(lp2899
S'What type of instrumentality is present in the image?'
p2900
aS'Choose the type of outbuilding present in the image?'
p2901
asS'118939861.jpg'
p2902
(lp2903
sS'3157039116.jpg'
p2904
(lp2905
S'What type of land is present in the image?'
p2906
aS'Choose the type of natural elevation present in the image?'
p2907
aS'What type of natural elevation is not shown in the image?'
p2908
asS'2204277704.jpg'
p2909
(lp2910
S'What type of motion is present in the image?'
p2911
aS'Choose the type of furnishing present in the image?'
p2912
aS'What type of juvenile is not shown in the image?'
p2913
asS'3202213467.jpg'
p2914
(lp2915
S'What type of nutriment is present in the image?'
p2916
aS'Choose the type of container present in the image?'
p2917
aS'What type of substance is not shown in the image?'
p2918
asS'2118681002.jpg'
p2919
(lp2920
S'What type of track and field is present in the image?'
p2921
aS'Choose the type of fragment present in the image?'
p2922
asS'4611790729.jpg'
p2923
(lp2924
S'What type of way is present in the image?'
p2925
aS'Choose the type of way present in the image?'
p2926
aS'What type of municipality is not shown in the image?'
p2927
asS'3182996527.jpg'
p2928
(lp2929
S'What type of wheeled vehicle is present in the image?'
p2930
aS'Choose the type of decoration present in the image?'
p2931
aS'What type of painting is not shown in the image?'
p2932
asS'2528521798.jpg'
p2933
(lp2934
S'What type of conveyance is present in the image?'
p2935
aS'Choose the type of motor vehicle present in the image?'
p2936
aS'What type of sport is not shown in the image?'
p2937
asS'4633636089.jpg'
p2938
(lp2939
S'What type of wheeled vehicle is present in the image?'
p2940
asS'374103842.jpg'
p2941
(lp2942
S'What type of creation is present in the image?'
p2943
asS'7109928015.jpg'
p2944
(lp2945
S'What type of diversion is present in the image?'
p2946
aS'Choose the type of activity present in the image?'
p2947
aS'What type of exhibition is not shown in the image?'
p2948
asS'351876121.jpg'
p2949
(lp2950
S'What type of canine is present in the image?'
p2951
aS'Choose the type of chordate present in the image?'
p2952
aS'What type of vertebrate is not shown in the image?'
p2953
asS'1679617928.jpg'
p2954
(lp2955
S'What type of conveyance is present in the image?'
p2956
aS'Choose the type of formation present in the image?'
p2957
aS'What type of barrier is not shown in the image?'
p2958
asS'4941360966.jpg'
p2959
(lp2960
S'What type of position is present in the image?'
p2961
aS'Choose the type of public square present in the image?'
p2962
aS'What type of commercial enterprise is not shown in the image?'
p2963
asS'463476205.jpg'
p2964
(lp2965
S'What type of way is present in the image?'
p2966
aS'Choose the type of conveyance present in the image?'
p2967
aS'What type of boat is not shown in the image?'
p2968
asS'2483666380.jpg'
p2969
(lp2970
S'What type of dramatic composition is present in the image?'
p2971
aS'Choose the type of gathering present in the image?'
p2972
aS'What type of prickly pear is not shown in the image?'
p2973
asS'6638041153.jpg'
p2974
(lp2975
S'What type of court game is present in the image?'
p2976
aS'Choose the type of diversion present in the image?'
p2977
aS'What type of court game is not shown in the image?'
p2978
asS'3957074517.jpg'
p2979
(lp2980
S'What type of group is present in the image?'
p2981
aS'Choose the type of track and field present in the image?'
p2982
asS'6214063093.jpg'
p2983
(lp2984
S'What type of performer is present in the image?'
p2985
aS'Choose the type of performance present in the image?'
p2986
aS'What type of show is not shown in the image?'
p2987
asS'2773474615.jpg'
p2988
(lp2989
S'What type of partition is present in the image?'
p2990
asS'1616220830.jpg'
p2991
(lp2992
S'What type of signboard is present in the image?'
p2993
aS'Choose the type of promotion present in the image?'
p2994
asS'431168725.jpg'
p2995
(lp2996
S'What type of room is present in the image?'
p2997
aS'Choose the type of collection present in the image?'
p2998
asS'3512747808.jpg'
p2999
(lp3000
S'What type of nutriment is present in the image?'
p3001
asS'6042855086.jpg'
p3002
(lp3003
S'What type of diversion is present in the image?'
p3004
aS'Choose the type of conveyance present in the image?'
p3005
asS'466176275.jpg'
p3006
(lp3007
S'What type of equine is present in the image?'
p3008
aS'Choose the type of canine present in the image?'
p3009
aS'What type of male horse is not shown in the image?'
p3010
asS'4567455846.jpg'
p3011
(lp3012
S'What type of bowed stringed instrument is present in the image?'
p3013
aS'Choose the type of musician present in the image?'
p3014
aS'What type of stringed instrument is not shown in the image?'
p3015
asS'472661386.jpg'
p3016
(lp3017
S'What type of juvenile is present in the image?'
p3018
aS'Choose the type of education present in the image?'
p3019
asS'2944553914.jpg'
p3020
(lp3021
S'What type of preschool is present in the image?'
p3022
asS'2033696343.jpg'
p3023
(lp3024
S'What type of container is present in the image?'
p3025
aS'Choose the type of enterprise present in the image?'
p3026
aS'What type of building is not shown in the image?'
p3027
asS'3311724634.jpg'
p3028
(lp3029
S'What type of causal agent is present in the image?'
p3030
aS'Choose the type of creation present in the image?'
p3031
aS'What type of group is not shown in the image?'
p3032
asS'7184997356.jpg'
p3033
(lp3034
S'What type of causal agent is present in the image?'
p3035
aS'Choose the type of group present in the image?'
p3036
aS'What type of completion is not shown in the image?'
p3037
asS'3294209955.jpg'
p3038
(lp3039
S'What type of canine is present in the image?'
p3040
asS'3023927196.jpg'
p3041
(lp3042
S'What type of other is present in the image?'
p3043
aS'Choose the type of body of water present in the image?'
p3044
asS'437057062.jpg'
p3045
(lp3046
S'What type of dramatic composition is present in the image?'
p3047
aS'Choose the type of dirtiness present in the image?'
p3048
aS'What type of juvenile is not shown in the image?'
p3049
asS'3474985112.jpg'
p3050
(lp3051
S'What type of diversion is present in the image?'
p3052
asS'4579972123.jpg'
p3053
(lp3054
S'What type of way is present in the image?'
p3055
aS'Choose the type of chromatic color present in the image?'
p3056
aS'What type of municipality is not shown in the image?'
p3057
asS'4682929932.jpg'
p3058
(lp3059
S'What type of time period is present in the image?'
p3060
asS'127449574.jpg'
p3061
(lp3062
S'What type of barrier is present in the image?'
p3063
asS'4827151208.jpg'
p3064
(lp3065
S'What type of commercial enterprise is present in the image?'
p3066
aS'Choose the type of building present in the image?'
p3067
aS'What type of curve is not shown in the image?'
p3068
asS'3603301825.jpg'
p3069
(lp3070
S'What type of diversion is present in the image?'
p3071
aS'Choose the type of contestant present in the image?'
p3072
asS'835415474.jpg'
p3073
(lp3074
S'What type of consumer goods is present in the image?'
p3075
aS'Choose the type of chromatic color present in the image?'
p3076
aS'What type of adult is not shown in the image?'
p3077
asS'2360310311.jpg'
p3078
(lp3079
S'What type of instrumentality is present in the image?'
p3080
asS'3620764461.jpg'
p3081
(lp3082
S'What type of dramatic composition is present in the image?'
p3083
aS'Choose the type of juvenile present in the image?'
p3084
asS'4545180999.jpg'
p3085
(lp3086
S'What type of consumer goods is present in the image?'
p3087
aS'Choose the type of attire present in the image?'
p3088
asS'2090387793.jpg'
p3089
(lp3090
S'What type of consumer goods is present in the image?'
p3091
aS'Choose the type of contestant present in the image?'
p3092
aS'What type of causal agent is not shown in the image?'
p3093
asS'4653258614.jpg'
p3094
(lp3095
S'What type of causal agent is present in the image?'
p3096
aS'Choose the type of occupational group present in the image?'
p3097
aS'What type of force is not shown in the image?'
p3098
asS'2394275528.jpg'
p3099
(lp3100
S'What type of life is present in the image?'
p3101
aS'Choose the type of descend present in the image?'
p3102
aS'What type of angiosperm is not shown in the image?'
p3103
asS'3453544202.jpg'
p3104
(lp3105
S'What type of diversion is present in the image?'
p3106
aS'Choose the type of cycling present in the image?'
p3107
aS'What type of sport is not shown in the image?'
p3108
asS'6925158300.jpg'
p3109
(lp3110
S'What type of show is present in the image?'
p3111
aS'Choose the type of causal agent present in the image?'
p3112
aS'What type of performer is not shown in the image?'
p3113
asS'3331009729.jpg'
p3114
(lp3115
S'What type of consumer goods is present in the image?'
p3116
aS'Choose the type of clothing present in the image?'
p3117
aS'What type of hypothesis is not shown in the image?'
p3118
asS'3786279352.jpg'
p3119
(lp3120
S'What type of body covering is present in the image?'
p3121
aS'Choose the type of hair present in the image?'
p3122
aS'What type of juvenile is not shown in the image?'
p3123
asS'458761952.jpg'
p3124
(lp3125
S'What type of consumer goods is present in the image?'
p3126
aS'Choose the type of chromatic color present in the image?'
p3127
aS'What type of shrub is not shown in the image?'
p3128
asS'2164363131.jpg'
p3129
(lp3130
S'What type of canine is present in the image?'
p3131
aS'Choose the type of vertebrate present in the image?'
p3132
aS'What type of mammal family is not shown in the image?'
p3133
asS'4734949227.jpg'
p3134
(lp3135
S'What type of collage is present in the image?'
p3136
asS'102575576.jpg'
p3137
(lp3138
S'What type of adult is present in the image?'
p3139
aS'Choose the type of newlywed present in the image?'
p3140
aS'What type of adult is not shown in the image?'
p3141
asS'4920617810.jpg'
p3142
(lp3143
S'What type of body covering is present in the image?'
p3144
aS'Choose the type of hair present in the image?'
p3145
aS'What type of external body part is not shown in the image?'
p3146
asS'294443417.jpg'
p3147
(lp3148
S'What type of precipitation is present in the image?'
p3149
aS'Choose the type of conveyance present in the image?'
p3150
aS'What type of diversion is not shown in the image?'
p3151
asS'7669392800.jpg'
p3152
(lp3153
S'What type of diversion is present in the image?'
p3154
asS'3635915412.jpg'
p3155
(lp3156
S'What type of diversion is present in the image?'
p3157
aS'Choose the type of gramineous plant present in the image?'
p3158
aS'What type of field is not shown in the image?'
p3159
asS'2887939135.jpg'
p3160
(lp3161
S'What type of group is present in the image?'
p3162
aS'Choose the type of building present in the image?'
p3163
aS'What type of juvenile is not shown in the image?'
p3164
asS'291565639.jpg'
p3165
(lp3166
S'What type of nutriment is present in the image?'
p3167
aS'Choose the type of dramatic composition present in the image?'
p3168
aS'What type of group is not shown in the image?'
p3169
asS'3544416931.jpg'
p3170
(lp3171
S'What type of consumer goods is present in the image?'
p3172
aS'Choose the type of property present in the image?'
p3173
aS'What type of bar is not shown in the image?'
p3174
asS'3747197096.jpg'
p3175
(lp3176
S'What type of group is present in the image?'
p3177
aS'Choose the type of gathering present in the image?'
p3178
asS'1496289999.jpg'
p3179
(lp3180
S'What type of rock is present in the image?'
p3181
aS'Choose the type of climb present in the image?'
p3182
aS'What type of valley is not shown in the image?'
p3183
asS'6970752746.jpg'
p3184
(lp3185
S'What type of diversion is present in the image?'
p3186
aS'Choose the type of dramatic composition present in the image?'
p3187
aS'What type of unit is not shown in the image?'
p3188
asS'5046329939.jpg'
p3189
(lp3190
S'What type of leisure is present in the image?'
p3191
aS'Choose the type of group present in the image?'
p3192
aS'What type of juvenile is not shown in the image?'
p3193
asS'4302245124.jpg'
p3194
(lp3195
S'What type of diversion is present in the image?'
p3196
aS'Choose the type of hypothesis present in the image?'
p3197
asS'3856921828.jpg'
p3198
(lp3199
S'What type of nutriment is present in the image?'
p3200
aS'Choose the type of building present in the image?'
p3201
asS'179172576.jpg'
p3202
(lp3203
S'What type of force is present in the image?'
p3204
aS'Choose the type of consumer goods present in the image?'
p3205
aS'What type of enlisted person is not shown in the image?'
p3206
asS'2515372403.jpg'
p3207
(lp3208
S'What type of diversion is present in the image?'
p3209
aS'Choose the type of vessel present in the image?'
p3210
aS'What type of small boat is not shown in the image?'
p3211
asS'7814014742.jpg'
p3212
(lp3213
S'What type of diversion is present in the image?'
p3214
asS'3582066525.jpg'
p3215
(lp3216
S'What type of body of water is present in the image?'
p3217
aS'Choose the type of diversion present in the image?'
p3218
aS'What type of geological formation is not shown in the image?'
p3219
asS'3532782283.jpg'
p3220
(lp3221
S'What type of soft-finned fish is present in the image?'
p3222
asS'3040051410.jpg'
p3223
(lp3224
S'What type of causal agent is present in the image?'
p3225
aS'Choose the type of group present in the image?'
p3226
aS'What type of product is not shown in the image?'
p3227
asS'180312736.jpg'
p3228
(lp3229
S'What type of juvenile is present in the image?'
p3230
aS'Choose the type of dramatic composition present in the image?'
p3231
aS'What type of child is not shown in the image?'
p3232
asS'4948403203.jpg'
p3233
(lp3234
S'What type of geological formation is present in the image?'
p3235
aS'Choose the type of leisure present in the image?'
p3236
aS'What type of sandbank is not shown in the image?'
p3237
asS'1393707375.jpg'
p3238
(lp3239
S'What type of brome is present in the image?'
p3240
aS'Choose the type of activity present in the image?'
p3241
aS'What type of artifact is not shown in the image?'
p3242
asS'301655083.jpg'
p3243
(lp3244
S'What type of causal agent is present in the image?'
p3245
aS'Choose the type of boat present in the image?'
p3246
aS'What type of occupational group is not shown in the image?'
p3247
asS'3689407371.jpg'
p3248
(lp3249
sS'5373606679.jpg'
p3250
(lp3251
S'What type of creation is present in the image?'
p3252
aS'Choose the type of performer present in the image?'
p3253
aS'What type of musician is not shown in the image?'
p3254
asS'2941677396.jpg'
p3255
(lp3256
S'What type of contestant is present in the image?'
p3257
aS'Choose the type of diversion present in the image?'
p3258
aS'What type of causal agent is not shown in the image?'
p3259
asS'4855663504.jpg'
p3260
(lp3261
S'What type of pictorial representation is present in the image?'
p3262
aS'Choose the type of creation present in the image?'
p3263
aS'What type of musician is not shown in the image?'
p3264
asS'390987167.jpg'
p3265
(lp3266
S'What type of precipitation is present in the image?'
p3267
asS'1901514112.jpg'
p3268
(lp3269
S'What type of instrumentality is present in the image?'
p3270
aS'Choose the type of public transport present in the image?'
p3271
aS'What type of conveyance is not shown in the image?'
p3272
asS'4892890793.jpg'
p3273
(lp3274
S'What type of meal is present in the image?'
p3275
asS'270816949.jpg'
p3276
(lp3277
S'What type of geological formation is present in the image?'
p3278
aS'Choose the type of plain present in the image?'
p3279
aS'What type of natural elevation is not shown in the image?'
p3280
asS'1167662968.jpg'
p3281
(lp3282
S'What type of adult is present in the image?'
p3283
asS'2690960083.jpg'
p3284
(lp3285
S'What type of hypothesis is present in the image?'
p3286
aS'Choose the type of adult present in the image?'
p3287
aS'What type of collage is not shown in the image?'
p3288
asS'2720215226.jpg'
p3289
(lp3290
S'What type of mammal family is present in the image?'
p3291
aS'Choose the type of hunting dog present in the image?'
p3292
asS'3495546122.jpg'
p3293
(lp3294
S'What type of municipality is present in the image?'
p3295
aS'Choose the type of section present in the image?'
p3296
aS'What type of way is not shown in the image?'
p3297
asS'3320032226.jpg'
p3298
(lp3299
S'What type of precipitation is present in the image?'
p3300
aS'Choose the type of season present in the image?'
p3301
aS'What type of biome is not shown in the image?'
p3302
asS'133267753.jpg'
p3303
(lp3304
S'What type of group is present in the image?'
p3305
asS'3023339840.jpg'
p3306
(lp3307
S'What type of group is present in the image?'
p3308
asS'420900246.jpg'
p3309
(lp3310
S'What type of leisure is present in the image?'
p3311
aS'Choose the type of body of water present in the image?'
p3312
aS'What type of outline is not shown in the image?'
p3313
asS'2751721665.jpg'
p3314
(lp3315
S'What type of yard is present in the image?'
p3316
asS'6386880789.jpg'
p3317
(lp3318
S'What type of athlete is present in the image?'
p3319
aS'Choose the type of woman present in the image?'
p3320
aS'What type of attire is not shown in the image?'
p3321
asS'3005979237.jpg'
p3322
(lp3323
S'What type of show is present in the image?'
p3324
aS'Choose the type of time period present in the image?'
p3325
aS'What type of auditory communication is not shown in the image?'
p3326
asS'242397237.jpg'
p3327
(lp3328
S'What type of channel is present in the image?'
p3329
aS'Choose the type of conveyance present in the image?'
p3330
aS'What type of boat is not shown in the image?'
p3331
asS'476009642.jpg'
p3332
(lp3333
S'What type of diversion is present in the image?'
p3334
asS'4595062025.jpg'
p3335
(lp3336
S'What type of conveyance is present in the image?'
p3337
aS'Choose the type of formation present in the image?'
p3338
aS'What type of airplane is not shown in the image?'
p3339
asS'6914913606.jpg'
p3340
(lp3341
S'What type of gathering is present in the image?'
p3342
aS'Choose the type of municipality present in the image?'
p3343
aS'What type of municipality is not shown in the image?'
p3344
asS'3370308329.jpg'
p3345
(lp3346
S'What type of precipitation is present in the image?'
p3347
aS'Choose the type of season present in the image?'
p3348
aS'What type of atmospheric phenomenon is not shown in the image?'
p3349
asS'2684323357.jpg'
p3350
(lp3351
S'What type of consumer goods is present in the image?'
p3352
aS'Choose the type of dancer present in the image?'
p3353
asS'2593392439.jpg'
p3354
(lp3355
S'What type of performer is present in the image?'
p3356
asS'3363776919.jpg'
p3357
(lp3358
S'What type of diversion is present in the image?'
p3359
aS'Choose the type of activity present in the image?'
p3360
aS'What type of exhibition is not shown in the image?'
p3361
asS'3572346664.jpg'
p3362
(lp3363
S'What type of group is present in the image?'
p3364
aS'Choose the type of woman present in the image?'
p3365
asS'214165084.jpg'
p3366
(lp3367
S'What type of angiosperm is present in the image?'
p3368
asS'1160841776.jpg'
p3369
(lp3370
S'What type of geological formation is present in the image?'
p3371
aS'Choose the type of body of water present in the image?'
p3372
aS'What type of supply is not shown in the image?'
p3373
asS'3922934080.jpg'
p3374
(lp3375
S'What type of juvenile is present in the image?'
p3376
aS'Choose the type of dramatic composition present in the image?'
p3377
aS'What type of causal agent is not shown in the image?'
p3378
asS'4412028431.jpg'
p3379
(lp3380
S'What type of creation is present in the image?'
p3381
aS'Choose the type of commercial enterprise present in the image?'
p3382
aS'What type of presentation is not shown in the image?'
p3383
asS'2623939135.jpg'
p3384
(lp3385
S'What type of spot is present in the image?'
p3386
aS'Choose the type of woman present in the image?'
p3387
aS'What type of popular music is not shown in the image?'
p3388
asS'214774826.jpg'
p3389
(lp3390
S'What type of city district is present in the image?'
p3391
aS'Choose the type of public square present in the image?'
p3392
asS'6503926903.jpg'
p3393
(lp3394
S'What type of equine is present in the image?'
p3395
aS'Choose the type of soil present in the image?'
p3396
asS'1271960365.jpg'
p3397
(lp3398
S'What type of canine is present in the image?'
p3399
aS'Choose the type of vertebrate present in the image?'
p3400
aS'What type of male horse is not shown in the image?'
p3401
asS'7147639585.jpg'
p3402
(lp3403
S'What type of show is present in the image?'
p3404
aS'Choose the type of time period present in the image?'
p3405
aS'What type of creation is not shown in the image?'
p3406
asS'469259974.jpg'
p3407
(lp3408
S'What type of causal agent is present in the image?'
p3409
aS'Choose the type of creation present in the image?'
p3410
aS'What type of auditory communication is not shown in the image?'
p3411
asS'2797511323.jpg'
p3412
(lp3413
S'What type of canine is present in the image?'
p3414
aS'Choose the type of chordate present in the image?'
p3415
aS'What type of vertebrate is not shown in the image?'
p3416
asS'4842411522.jpg'
p3417
(lp3418
S'What type of causal agent is present in the image?'
p3419
aS'Choose the type of group present in the image?'
p3420
aS'What type of juvenile is not shown in the image?'
p3421
asS'2541701582.jpg'
p3422
(lp3423
S'What type of walk is present in the image?'
p3424
asS'3106257008.jpg'
p3425
(lp3426
S'What type of causal agent is present in the image?'
p3427
asS'375118300.jpg'
p3428
(lp3429
S'What type of municipality is present in the image?'
p3430
aS'Choose the type of protective covering present in the image?'
p3431
asS'6475050767.jpg'
p3432
(lp3433
S'What type of court game is present in the image?'
p3434
aS'Choose the type of diversion present in the image?'
p3435
aS'What type of encouragement is not shown in the image?'
p3436
asS'1138784872.jpg'
p3437
(lp3438
S'What type of group is present in the image?'
p3439
aS'Choose the type of collection present in the image?'
p3440
asS'3503483247.jpg'
p3441
(lp3442
S'What type of wheeled vehicle is present in the image?'
p3443
aS'Choose the type of diversion present in the image?'
p3444
aS'What type of activity is not shown in the image?'
p3445
asS'4867994698.jpg'
p3446
(lp3447
S'What type of education is present in the image?'
p3448
asS'6224066807.jpg'
p3449
(lp3450
S'What type of diversion is present in the image?'
p3451
aS'Choose the type of contestant present in the image?'
p3452
asS'35652137.jpg'
p3453
(lp3454
S'What type of festival is present in the image?'
p3455
aS'Choose the type of time period present in the image?'
p3456
aS'What type of tract is not shown in the image?'
p3457
asS'4628337496.jpg'
p3458
(lp3459
S'What type of locomotion is present in the image?'
p3460
asS'3632225464.jpg'
p3461
(lp3462
S'What type of atmosphere is present in the image?'
p3463
aS'Choose the type of diversion present in the image?'
p3464
aS'What type of track and field is not shown in the image?'
p3465
asS'2845082521.jpg'
p3466
(lp3467
S'What type of plain is present in the image?'
p3468
aS'Choose the type of collection present in the image?'
p3469
asS'3519711330.jpg'
p3470
(lp3471
S'What type of wheeled vehicle is present in the image?'
p3472
aS'Choose the type of conveyance present in the image?'
p3473
aS'What type of grounder is not shown in the image?'
p3474
asS'3225880532.jpg'
p3475
(lp3476
S'What type of other is present in the image?'
p3477
aS'Choose the type of contestant present in the image?'
p3478
asS'2469878877.jpg'
p3479
(lp3480
S'What type of city district is present in the image?'
p3481
aS'Choose the type of buying present in the image?'
p3482
asS'460781612.jpg'
p3483
(lp3484
S'What type of mouth is present in the image?'
p3485
aS'Choose the type of canine present in the image?'
p3486
aS'What type of vertebrate is not shown in the image?'
p3487
asS'335588286.jpg'
p3488
(lp3489
S'What type of canine is present in the image?'
p3490
aS'Choose the type of vertebrate present in the image?'
p3491
asS'305749904.jpg'
p3492
(lp3493
S'What type of consumer goods is present in the image?'
p3494
aS'Choose the type of other present in the image?'
p3495
aS'What type of clothing is not shown in the image?'
p3496
asS'3474133699.jpg'
p3497
(lp3498
S'What type of diversion is present in the image?'
p3499
aS'Choose the type of court game present in the image?'
p3500
asS'2592485728.jpg'
p3501
(lp3502
S'What type of swimming stroke is present in the image?'
p3503
aS'Choose the type of diversion present in the image?'
p3504
aS'What type of water sport is not shown in the image?'
p3505
asS'3111402233.jpg'
p3506
(lp3507
S'What type of canine is present in the image?'
p3508
aS'Choose the type of chordate present in the image?'
p3509
aS'What type of vertebrate is not shown in the image?'
p3510
asS'54501196.jpg'
p3511
(lp3512
S'What type of climb is present in the image?'
p3513
aS'Choose the type of natural elevation present in the image?'
p3514
aS'What type of animal skin is not shown in the image?'
p3515
asS'4691732195.jpg'
p3516
(lp3517
S'What type of group is present in the image?'
p3518
aS'Choose the type of gathering present in the image?'
p3519
asS'212396217.jpg'
p3520
(lp3521
S'What type of causal agent is present in the image?'
p3522
aS'Choose the type of formation present in the image?'
p3523
asS'4524222086.jpg'
p3524
(lp3525
S'What type of causal agent is present in the image?'
p3526
asS'246508774.jpg'
p3527
(lp3528
S'What type of time period is present in the image?'
p3529
aS'Choose the type of gathering present in the image?'
p3530
aS'What type of dance is not shown in the image?'
p3531
asS'2782483858.jpg'
p3532
(lp3533
S'What type of causal agent is present in the image?'
p3534
aS'Choose the type of group present in the image?'
p3535
aS'What type of nutriment is not shown in the image?'
p3536
asS'4481066172.jpg'
p3537
(lp3538
S'What type of instrumentality is present in the image?'
p3539
aS'Choose the type of way present in the image?'
p3540
aS'What type of traveler is not shown in the image?'
p3541
asS'2915698477.jpg'
p3542
(lp3543
S'What type of yard is present in the image?'
p3544
aS'Choose the type of building present in the image?'
p3545
aS'What type of commodity is not shown in the image?'
p3546
asS'4826114794.jpg'
p3547
(lp3548
S'What type of leisure is present in the image?'
p3549
aS'Choose the type of line present in the image?'
p3550
aS'What type of coral reef is not shown in the image?'
p3551
asS'4942720878.jpg'
p3552
(lp3553
S'What type of conveyance is present in the image?'
p3554
aS'Choose the type of body of water present in the image?'
p3555
aS'What type of boat is not shown in the image?'
p3556
asS'3049617203.jpg'
p3557
(lp3558
S'What type of gramineous plant is present in the image?'
p3559
aS'Choose the type of field present in the image?'
p3560
asS'1478576516.jpg'
p3561
(lp3562
S'What type of building is present in the image?'
p3563
aS'Choose the type of consideration present in the image?'
p3564
aS'What type of structure is not shown in the image?'
p3565
asS'6824212178.jpg'
p3566
(lp3567
S'What type of dancer is present in the image?'
p3568
aS'Choose the type of group present in the image?'
p3569
aS'What type of happening is not shown in the image?'
p3570
asS'3235857773.jpg'
p3571
(lp3572
S'What type of conveyance is present in the image?'
p3573
aS'Choose the type of group present in the image?'
p3574
aS'What type of conflagration is not shown in the image?'
p3575
asS'2998945968.jpg'
p3576
(lp3577
S'What type of diversion is present in the image?'
p3578
asS'10602072.jpg'
p3579
(lp3580
S'What type of quality is present in the image?'
p3581
aS'Choose the type of activity present in the image?'
p3582
aS'What type of diversion is not shown in the image?'
p3583
asS'246231741.jpg'
p3584
(lp3585
S'What type of canine is present in the image?'
p3586
asS'4328470369.jpg'
p3587
(lp3588
S'What type of diversion is present in the image?'
p3589
aS'Choose the type of court game present in the image?'
p3590
asS'6945359615.jpg'
p3591
(lp3592
S'What type of life science is present in the image?'
p3593
aS'Choose the type of conveyance present in the image?'
p3594
aS'What type of device is not shown in the image?'
p3595
asS'4307968.jpg'
p3596
(lp3597
S'What type of gathering is present in the image?'
p3598
aS'Choose the type of causal agent present in the image?'
p3599
aS'What type of group is not shown in the image?'
p3600
asS'2632133026.jpg'
p3601
(lp3602
S'What type of woody plant is present in the image?'
p3603
aS'Choose the type of shelter present in the image?'
p3604
aS'What type of building is not shown in the image?'
p3605
asS'32490830.jpg'
p3606
(lp3607
sS'488594045.jpg'
p3608
(lp3609
S'What type of lineman is present in the image?'
p3610
aS'Choose the type of diversion present in the image?'
p3611
asS'2760167.jpg'
p3612
(lp3613
S'What type of adult is present in the image?'
p3614
aS'Choose the type of performer present in the image?'
p3615
aS'What type of causal agent is not shown in the image?'
p3616
asS'3644941648.jpg'
p3617
(lp3618
S'What type of tower is present in the image?'
p3619
aS'Choose the type of building present in the image?'
p3620
aS'What type of railroad track is not shown in the image?'
p3621
asS'3247168324.jpg'
p3622
(lp3623
S'What type of conveyance is present in the image?'
p3624
asS'4337016892.jpg'
p3625
(lp3626
S'What type of dramatic composition is present in the image?'
p3627
aS'Choose the type of group present in the image?'
p3628
aS'What type of conveyance is not shown in the image?'
p3629
asS'3909544831.jpg'
p3630
(lp3631
sS'4267222130.jpg'
p3632
(lp3633
S'What type of sport is present in the image?'
p3634
aS'Choose the type of conveyance present in the image?'
p3635
asS'2429579784.jpg'
p3636
(lp3637
S'What type of instrumentality is present in the image?'
p3638
aS'Choose the type of conveyance present in the image?'
p3639
aS'What type of formation is not shown in the image?'
p3640
asS'6320068122.jpg'
p3641
(lp3642
S'What type of traveler is present in the image?'
p3643
asS'2299720433.jpg'
p3644
(lp3645
sS'4513402918.jpg'
p3646
(lp3647
S'What type of auditory communication is present in the image?'
p3648
aS'Choose the type of time period present in the image?'
p3649
asS'5253872191.jpg'
p3650
(lp3651
S'What type of causal agent is present in the image?'
p3652
aS'Choose the type of occupational group present in the image?'
p3653
aS'What type of force is not shown in the image?'
p3654
asS'2830309113.jpg'
p3655
(lp3656
S'What type of consumer goods is present in the image?'
p3657
aS'Choose the type of dramatic composition present in the image?'
p3658
aS'What type of juvenile is not shown in the image?'
p3659
asS'4668657397.jpg'
p3660
(lp3661
S'What type of figure is present in the image?'
p3662
aS'Choose the type of promotion present in the image?'
p3663
asS'7357649904.jpg'
p3664
(lp3665
S'What type of creation is present in the image?'
p3666
asS'2682536830.jpg'
p3667
(lp3668
S'What type of performer is present in the image?'
p3669
aS'Choose the type of show present in the image?'
p3670
aS'What type of creation is not shown in the image?'
p3671
asS'3214885227.jpg'
p3672
(lp3673
S'What type of channel is present in the image?'
p3674
aS'Choose the type of stream present in the image?'
p3675
aS'What type of branch is not shown in the image?'
p3676
asS'4501260537.jpg'
p3677
(lp3678
S'What type of consumer goods is present in the image?'
p3679
aS'Choose the type of attire present in the image?'
p3680
aS'What type of locomotion is not shown in the image?'
p3681
asS'6180681091.jpg'
p3682
(lp3683
S'What type of swimmer is present in the image?'
p3684
aS'Choose the type of water sport present in the image?'
p3685
aS'What type of diversion is not shown in the image?'
p3686
asS'40202068.jpg'
p3687
(lp3688
S'What type of nutriment is present in the image?'
p3689
aS'Choose the type of speech present in the image?'
p3690
aS'What type of group is not shown in the image?'
p3691
asS'2366292699.jpg'
p3692
(lp3693
S'What type of performer is present in the image?'
p3694
aS'Choose the type of show present in the image?'
p3695
aS'What type of causal agent is not shown in the image?'
p3696
asS'4791975111.jpg'
p3697
(lp3698
S'What type of way is present in the image?'
p3699
aS'Choose the type of traveler present in the image?'
p3700
aS'What type of conveyance is not shown in the image?'
p3701
asS'259611216.jpg'
p3702
(lp3703
S'What type of dramatic composition is present in the image?'
p3704
aS'Choose the type of other present in the image?'
p3705
aS'What type of juvenile is not shown in the image?'
p3706
asS'4507548183.jpg'
p3707
(lp3708
S'What type of conveyance is present in the image?'
p3709
aS'Choose the type of plastic art present in the image?'
p3710
asS'2065875490.jpg'
p3711
(lp3712
S'What type of object is present in the image?'
p3713
aS'Choose the type of angiosperm present in the image?'
p3714
aS'What type of facility is not shown in the image?'
p3715
asS'6586954247.jpg'
p3716
(lp3717
S'What type of causal agent is present in the image?'
p3718
aS'Choose the type of group present in the image?'
p3719
aS'What type of locomotion is not shown in the image?'
p3720
asS'2354516058.jpg'
p3721
(lp3722
S'What type of container is present in the image?'
p3723
aS'Choose the type of substance present in the image?'
p3724
aS'What type of nutriment is not shown in the image?'
p3725
asS'5572351880.jpg'
p3726
(lp3727
S'What type of diversion is present in the image?'
p3728
aS'Choose the type of causal agent present in the image?'
p3729
aS'What type of limb is not shown in the image?'
p3730
asS'4696935973.jpg'
p3731
(lp3732
S'What type of diversion is present in the image?'
p3733
aS'Choose the type of contestant present in the image?'
p3734
asS'4445607388.jpg'
p3735
(lp3736
S'What type of instrumentality is present in the image?'
p3737
aS'Choose the type of conveyance present in the image?'
p3738
aS'What type of promotion is not shown in the image?'
p3739
asS'4502461485.jpg'
p3740
(lp3741
sS'3903095674.jpg'
p3742
(lp3743
S'What type of angiosperm is present in the image?'
p3744
asS'44399434.jpg'
p3745
(lp3746
S'What type of tract is present in the image?'
p3747
aS'Choose the type of collection present in the image?'
p3748
asS'4546499100.jpg'
p3749
(lp3750
S'What type of container is present in the image?'
p3751
asS'4088621789.jpg'
p3752
(lp3753
S'What type of causal agent is present in the image?'
p3754
aS'Choose the type of military service present in the image?'
p3755
aS'What type of group is not shown in the image?'
p3756
asS'2810333931.jpg'
p3757
(lp3758
S'What type of gathering is present in the image?'
p3759
aS'Choose the type of forest present in the image?'
p3760
aS'What type of group is not shown in the image?'
p3761
asS'4675918984.jpg'
p3762
(lp3763
S'What type of diversion is present in the image?'
p3764
aS'Choose the type of court game present in the image?'
p3765
aS'What type of track and field is not shown in the image?'
p3766
asS'4822105350.jpg'
p3767
(lp3768
S'What type of instrumentality is present in the image?'
p3769
aS'Choose the type of traveler present in the image?'
p3770
aS'What type of enterprise is not shown in the image?'
p3771
asS'6261030.jpg'
p3772
(lp3773
S'What type of body of water is present in the image?'
p3774
aS'Choose the type of geological formation present in the image?'
p3775
aS'What type of leisure is not shown in the image?'
p3776
asS'2448210587.jpg'
p3777
(lp3778
S'What type of canine is present in the image?'
p3779
aS'Choose the type of mammal family present in the image?'
p3780
asS'5730564191.jpg'
p3781
(lp3782
S'What type of skilled worker is present in the image?'
p3783
aS'Choose the type of kabob present in the image?'
p3784
aS'What type of container is not shown in the image?'
p3785
asS'2549228224.jpg'
p3786
(lp3787
S'What type of festival is present in the image?'
p3788
aS'Choose the type of group present in the image?'
p3789
aS'What type of percussion instrument is not shown in the image?'
p3790
asS'86800579.jpg'
p3791
(lp3792
S'What type of activity is present in the image?'
p3793
aS'Choose the type of shop present in the image?'
p3794
aS'What type of substance is not shown in the image?'
p3795
asS'4723023590.jpg'
p3796
(lp3797
S'What type of nutriment is present in the image?'
p3798
aS'Choose the type of container present in the image?'
p3799
aS'What type of meal is not shown in the image?'
p3800
asS'268223986.jpg'
p3801
(lp3802
S'What type of group is present in the image?'
p3803
aS'Choose the type of conveyance present in the image?'
p3804
aS'What type of cycling is not shown in the image?'
p3805
asS'488866979.jpg'
p3806
(lp3807
S'What type of adult is present in the image?'
p3808
aS'Choose the type of hour present in the image?'
p3809
aS'What type of causal agent is not shown in the image?'
p3810
asS'980090465.jpg'
p3811
(lp3812
S'What type of building is present in the image?'
p3813
aS'Choose the type of nutriment present in the image?'
p3814
aS'What type of building is not shown in the image?'
p3815
asS'2275029674.jpg'
p3816
(lp3817
S'What type of canine is present in the image?'
p3818
aS'Choose the type of european present in the image?'
p3819
asS'4439517165.jpg'
p3820
(lp3821
S'What type of angiosperm is present in the image?'
p3822
aS'Choose the type of woody plant present in the image?'
p3823
aS'What type of building complex is not shown in the image?'
p3824
asS'518144037.jpg'
p3825
(lp3826
S'What type of body covering is present in the image?'
p3827
aS'Choose the type of hair present in the image?'
p3828
aS'What type of attire is not shown in the image?'
p3829
asS'2329299623.jpg'
p3830
(lp3831
S'What type of device is present in the image?'
p3832
asS'3621623690.jpg'
p3833
(lp3834
S'What type of diversion is present in the image?'
p3835
asS'3663793993.jpg'
p3836
(lp3837
S'What type of field is present in the image?'
p3838
aS'Choose the type of gramineous plant present in the image?'
p3839
aS'What type of conveyance is not shown in the image?'
p3840
asS'2055646179.jpg'
p3841
(lp3842
S'What type of object is present in the image?'
p3843
aS'Choose the type of juvenile present in the image?'
p3844
aS'What type of field is not shown in the image?'
p3845
asS'2527829321.jpg'
p3846
(lp3847
S'What type of diversion is present in the image?'
p3848
aS'Choose the type of sport present in the image?'
p3849
asS'3996401.jpg'
p3850
(lp3851
sS'3692072577.jpg'
p3852
(lp3853
S'What type of causal agent is present in the image?'
p3854
aS'Choose the type of group present in the image?'
p3855
asS'4829029000.jpg'
p3856
(lp3857
S'What type of causal agent is present in the image?'
p3858
aS'Choose the type of group present in the image?'
p3859
aS'What type of occupational group is not shown in the image?'
p3860
asS'2448741990.jpg'
p3861
(lp3862
S'What type of diversion is present in the image?'
p3863
aS'Choose the type of sport present in the image?'
p3864
aS'What type of conveyance is not shown in the image?'
p3865
asS'2541939817.jpg'
p3866
(lp3867
S'What type of municipality is present in the image?'
p3868
aS'Choose the type of group present in the image?'
p3869
aS'What type of binary compound is not shown in the image?'
p3870
asS'4809260553.jpg'
p3871
(lp3872
S'What type of musician is present in the image?'
p3873
aS'Choose the type of performer present in the image?'
p3874
aS'What type of musician is not shown in the image?'
p3875
asS'4511060196.jpg'
p3876
(lp3877
S'What type of woody plant is present in the image?'
p3878
aS'Choose the type of leisure present in the image?'
p3879
aS'What type of building complex is not shown in the image?'
p3880
asS'6864936264.jpg'
p3881
(lp3882
S'What type of property is present in the image?'
p3883
aS'Choose the type of house present in the image?'
p3884
aS'What type of other is not shown in the image?'
p3885
asS'4511585083.jpg'
p3886
(lp3887
S'What type of canine is present in the image?'
p3888
aS'Choose the type of shepherd dog present in the image?'
p3889
aS'What type of chordate is not shown in the image?'
p3890
asS'3480051754.jpg'
p3891
(lp3892
S'What type of group is present in the image?'
p3893
aS'Choose the type of municipality present in the image?'
p3894
aS'What type of gathering is not shown in the image?'
p3895
asS'185411054.jpg'
p3896
(lp3897
S'What type of soil is present in the image?'
p3898
aS'Choose the type of mammal family present in the image?'
p3899
asS'3143978284.jpg'
p3900
(lp3901
S'What type of adult is present in the image?'
p3902
aS'Choose the type of causal agent present in the image?'
p3903
aS'What type of group is not shown in the image?'
p3904
asS'4786470364.jpg'
p3905
(lp3906
S'What type of object is present in the image?'
p3907
aS'Choose the type of body of water present in the image?'
p3908
aS'What type of paving is not shown in the image?'
p3909
asS'4608202893.jpg'
p3910
(lp3911
S'What type of group is present in the image?'
p3912
aS'Choose the type of sculpture present in the image?'
p3913
asS'7775061978.jpg'
p3914
(lp3915
S'What type of equine is present in the image?'
p3916
aS'Choose the type of horse present in the image?'
p3917
aS'What type of male horse is not shown in the image?'
p3918
asS'3691394196.jpg'
p3919
(lp3920
S'What type of causal agent is present in the image?'
p3921
aS'Choose the type of group present in the image?'
p3922
aS'What type of municipality is not shown in the image?'
p3923
asS'3254662117.jpg'
p3924
(lp3925
S'What type of consumer goods is present in the image?'
p3926
aS'Choose the type of season present in the image?'
p3927
aS'What type of attire is not shown in the image?'
p3928
asS'5442112383.jpg'
p3929
(lp3930
S'What type of causal agent is present in the image?'
p3931
aS'Choose the type of group present in the image?'
p3932
aS'What type of juvenile is not shown in the image?'
p3933
asS'4864924199.jpg'
p3934
(lp3935
S'What type of wheeled vehicle is present in the image?'
p3936
aS'Choose the type of conveyance present in the image?'
p3937
aS'What type of sport is not shown in the image?'
p3938
asS'3486768631.jpg'
p3939
(lp3940
S'What type of group is present in the image?'
p3941
aS'Choose the type of angiosperm present in the image?'
p3942
asS'2074686457.jpg'
p3943
(lp3944
S'What type of killer is present in the image?'
p3945
asS'2540884723.jpg'
p3946
(lp3947
S'What type of causal agent is present in the image?'
p3948
aS'Choose the type of group present in the image?'
p3949
aS'What type of juvenile is not shown in the image?'
p3950
asS'1482654385.jpg'
p3951
(lp3952
S'What type of geological phenomenon is present in the image?'
p3953
aS'Choose the type of adversity present in the image?'
p3954
aS'What type of atmospheric phenomenon is not shown in the image?'
p3955
asS'2763601657.jpg'
p3956
(lp3957
S'What type of leisure is present in the image?'
p3958
aS'Choose the type of locomotion present in the image?'
p3959
aS'What type of causal agent is not shown in the image?'
p3960
asS'260370720.jpg'
p3961
(lp3962
S'What type of angiosperm is present in the image?'
p3963
aS'Choose the type of substance present in the image?'
p3964
asS'2273650537.jpg'
p3965
(lp3966
S'What type of instrumentality is present in the image?'
p3967
aS'Choose the type of collection present in the image?'
p3968
asS'4527012288.jpg'
p3969
(lp3970
S'What type of group is present in the image?'
p3971
aS'Choose the type of gathering present in the image?'
p3972
aS'What type of creation is not shown in the image?'
p3973
asS'511186815.jpg'
p3974
(lp3975
S'What type of container is present in the image?'
p3976
asS'4846892973.jpg'
p3977
(lp3978
S'What type of leisure is present in the image?'
p3979
aS'Choose the type of body of water present in the image?'
p3980
aS'What type of conveyance is not shown in the image?'
p3981
asS'4609789441.jpg'
p3982
(lp3983
S'What type of diversion is present in the image?'
p3984
aS'Choose the type of activity present in the image?'
p3985
aS'What type of wheeled vehicle is not shown in the image?'
p3986
asS'2247889670.jpg'
p3987
(lp3988
S'What type of body of water is present in the image?'
p3989
asS'2113996953.jpg'
p3990
(lp3991
S'What type of vessel is present in the image?'
p3992
aS'Choose the type of water travel present in the image?'
p3993
aS'What type of boat is not shown in the image?'
p3994
asS'14107151.jpg'
p3995
(lp3996
S'What type of instrumentality is present in the image?'
p3997
aS'Choose the type of causal agent present in the image?'
p3998
aS'What type of conveyance is not shown in the image?'
p3999
asS'209274114.jpg'
p4000
(lp4001
S'What type of concave shape is present in the image?'
p4002
aS'Choose the type of tract present in the image?'
p4003
asS'2891715589.jpg'
p4004
(lp4005
S'What type of municipality is present in the image?'
p4006
aS'Choose the type of gathering present in the image?'
p4007
aS'What type of building is not shown in the image?'
p4008
asS'311104290.jpg'
p4009
(lp4010
S'What type of causal agent is present in the image?'
p4011
aS'Choose the type of group present in the image?'
p4012
aS'What type of furnishing is not shown in the image?'
p4013
asS'7324774408.jpg'
p4014
(lp4015
S'What type of linear unit is present in the image?'
p4016
aS'Choose the type of paving present in the image?'
p4017
aS'What type of path is not shown in the image?'
p4018
asS'5496383084.jpg'
p4019
(lp4020
S'What type of show is present in the image?'
p4021
aS'Choose the type of creation present in the image?'
p4022
aS'What type of art is not shown in the image?'
p4023
asS'3135317718.jpg'
p4024
(lp4025
S'What type of juvenile is present in the image?'
p4026
aS'Choose the type of angiosperm present in the image?'
p4027
aS'What type of child is not shown in the image?'
p4028
asS'1577667570.jpg'
p4029
(lp4030
S'What type of room is present in the image?'
p4031
aS'Choose the type of movable barrier present in the image?'
p4032
asS'4717657834.jpg'
p4033
(lp4034
S'What type of objection is present in the image?'
p4035
aS'Choose the type of causal agent present in the image?'
p4036
aS'What type of group is not shown in the image?'
p4037
asS'86112875.jpg'
p4038
(lp4039
S'What type of sculpture is present in the image?'
p4040
aS'Choose the type of workplace present in the image?'
p4041
asS'1295669416.jpg'
p4042
(lp4043
S'What type of consumer goods is present in the image?'
p4044
aS'Choose the type of angiosperm present in the image?'
p4045
aS'What type of attire is not shown in the image?'
p4046
asS'2687891662.jpg'
p4047
(lp4048
S'What type of tract is present in the image?'
p4049
aS'Choose the type of footrace present in the image?'
p4050
asS'549639456.jpg'
p4051
(lp4052
S'What type of deceive is present in the image?'
p4053
aS'Choose the type of diversion present in the image?'
p4054
aS'What type of outline is not shown in the image?'
p4055
asS'3701226275.jpg'
p4056
(lp4057
S'What type of speech act is present in the image?'
p4058
asS'5319238490.jpg'
p4059
(lp4060
S'What type of season is present in the image?'
p4061
aS'Choose the type of animal skin present in the image?'
p4062
aS'What type of diversion is not shown in the image?'
p4063
asS'230269912.jpg'
p4064
(lp4065
S'What type of vertebrate is present in the image?'
p4066
aS'Choose the type of cattle present in the image?'
p4067
aS'What type of mammal family is not shown in the image?'
p4068
asS'3389037189.jpg'
p4069
(lp4070
sS'4625392581.jpg'
p4071
(lp4072
S'What type of contestant is present in the image?'
p4073
aS'Choose the type of diversion present in the image?'
p4074
aS'What type of musician is not shown in the image?'
p4075
asS'2540689088.jpg'
p4076
(lp4077
S'What type of area is present in the image?'
p4078
aS'Choose the type of nutriment present in the image?'
p4079
asS'2333712689.jpg'
p4080
(lp4081
S'What type of creation is present in the image?'
p4082
aS'Choose the type of performance present in the image?'
p4083
asS'4855045103.jpg'
p4084
(lp4085
S'What type of clothing is present in the image?'
p4086
aS'Choose the type of causal agent present in the image?'
p4087
aS'What type of stringed instrument is not shown in the image?'
p4088
asS'4913629043.jpg'
p4089
(lp4090
S'What type of object is present in the image?'
p4091
aS'Choose the type of plastic art present in the image?'
p4092
asS'3777739107.jpg'
p4093
(lp4094
S'What type of quality is present in the image?'
p4095
aS'Choose the type of basin present in the image?'
p4096
aS'What type of natural depression is not shown in the image?'
p4097
asS'4876517154.jpg'
p4098
(lp4099
S'What type of consumer goods is present in the image?'
p4100
aS'Choose the type of causal agent present in the image?'
p4101
aS'What type of headdress is not shown in the image?'
p4102
asS'3046431231.jpg'
p4103
(lp4104
S'What type of consumer goods is present in the image?'
p4105
aS'Choose the type of attire present in the image?'
p4106
aS'What type of dancer is not shown in the image?'
p4107
asS'293879742.jpg'
p4108
(lp4109
S'What type of canine is present in the image?'
p4110
aS'Choose the type of equine present in the image?'
p4111
aS'What type of horse is not shown in the image?'
p4112
asS'5938204995.jpg'
p4113
(lp4114
S'What type of creator is present in the image?'
p4115
aS'Choose the type of show present in the image?'
p4116
aS'What type of art is not shown in the image?'
p4117
asS'3532412342.jpg'
p4118
(lp4119
S'What type of hoop is present in the image?'
p4120
aS'Choose the type of conveyance present in the image?'
p4121
aS'What type of motor vehicle is not shown in the image?'
p4122
asS'3091673351.jpg'
p4123
(lp4124
S'What type of nutriment is present in the image?'
p4125
asS'7979219683.jpg'
p4126
(lp4127
S'What type of diversion is present in the image?'
p4128
aS'Choose the type of water sport present in the image?'
p4129
asS'2263132077.jpg'
p4130
(lp4131
S'What type of activity is present in the image?'
p4132
aS'Choose the type of leisure present in the image?'
p4133
aS'What type of diversion is not shown in the image?'
p4134
asS'4532354825.jpg'
p4135
(lp4136
S'What type of conveyance is present in the image?'
p4137
aS'Choose the type of motor vehicle present in the image?'
p4138
aS'What type of car is not shown in the image?'
p4139
asS'4326517877.jpg'
p4140
(lp4141
S'What type of painting is present in the image?'
p4142
aS'Choose the type of creation present in the image?'
p4143
aS'What type of commercial enterprise is not shown in the image?'
p4144
asS'1312020846.jpg'
p4145
(lp4146
S'What type of canine is present in the image?'
p4147
aS'Choose the type of chordate present in the image?'
p4148
aS'What type of vertebrate is not shown in the image?'
p4149
asS'3217620013.jpg'
p4150
(lp4151
S'What type of contestant is present in the image?'
p4152
aS'Choose the type of court game present in the image?'
p4153
aS'What type of diversion is not shown in the image?'
p4154
asS'3598128992.jpg'
p4155
(lp4156
S'What type of group is present in the image?'
p4157
aS'Choose the type of conveyance present in the image?'
p4158
asS'135235570.jpg'
p4159
(lp4160
S'What type of diversion is present in the image?'
p4161
aS'Choose the type of contestant present in the image?'
p4162
aS'What type of blow is not shown in the image?'
p4163
asS'3421789737.jpg'
p4164
(lp4165
S'What type of conveyance is present in the image?'
p4166
aS'Choose the type of track and field present in the image?'
p4167
asS'1399295078.jpg'
p4168
(lp4169
S'What type of causal agent is present in the image?'
p4170
aS'Choose the type of speech present in the image?'
p4171
asS'2321094365.jpg'
p4172
(lp4173
S'What type of instrumentality is present in the image?'
p4174
aS'Choose the type of conveyance present in the image?'
p4175
aS'What type of board is not shown in the image?'
p4176
asS'3136404885.jpg'
p4177
(lp4178
S'What type of wit is present in the image?'
p4179
aS'Choose the type of creation present in the image?'
p4180
aS'What type of decoration is not shown in the image?'
p4181
asS'878758390.jpg'
p4182
(lp4183
S'What type of canine is present in the image?'
p4184
aS'Choose the type of chordate present in the image?'
p4185
aS'What type of vertebrate is not shown in the image?'
p4186
asS'3198237818.jpg'
p4187
(lp4188
S'What type of consumer goods is present in the image?'
p4189
aS'Choose the type of leisure present in the image?'
p4190
aS'What type of contestant is not shown in the image?'
p4191
asS'2936590102.jpg'
p4192
(lp4193
S'What type of diversion is present in the image?'
p4194
asS'2230206919.jpg'
p4195
(lp4196
S'What type of attire is present in the image?'
p4197
asS'3483071906.jpg'
p4198
(lp4199
S'What type of juvenile is present in the image?'
p4200
aS'Choose the type of gathering present in the image?'
p4201
aS'What type of group is not shown in the image?'
p4202
asS'3657016761.jpg'
p4203
(lp4204
S'What type of diversion is present in the image?'
p4205
aS'Choose the type of dramatic composition present in the image?'
p4206
aS'What type of activity is not shown in the image?'
p4207
asS'4696008519.jpg'
p4208
(lp4209
S'What type of diversion is present in the image?'
p4210
aS'Choose the type of contestant present in the image?'
p4211
aS'What type of contestant is not shown in the image?'
p4212
asS'2939371251.jpg'
p4213
(lp4214
S'What type of diversion is present in the image?'
p4215
aS'Choose the type of lineman present in the image?'
p4216
asS'4078134904.jpg'
p4217
(lp4218
S'What type of causal agent is present in the image?'
p4219
aS'Choose the type of group present in the image?'
p4220
aS'What type of performer is not shown in the image?'
p4221
asS'3229898555.jpg'
p4222
(lp4223
S'What type of feline is present in the image?'
p4224
aS'Choose the type of dramatic composition present in the image?'
p4225
asS'2247645547.jpg'
p4226
(lp4227
S'What type of performer is present in the image?'
p4228
aS'Choose the type of nutriment present in the image?'
p4229
asS'1472550839.jpg'
p4230
(lp4231
S'What type of commercial enterprise is present in the image?'
p4232
aS'Choose the type of illumination present in the image?'
p4233
aS'What type of time period is not shown in the image?'
p4234
asS'3338082262.jpg'
p4235
(lp4236
S'What type of conflagration is present in the image?'
p4237
aS'Choose the type of happening present in the image?'
p4238
aS'What type of causal agent is not shown in the image?'
p4239
asS'488518506.jpg'
p4240
(lp4241
S'What type of life science is present in the image?'
p4242
aS'Choose the type of body of water present in the image?'
p4243
aS'What type of waterway is not shown in the image?'
p4244
asS'3472703856.jpg'
p4245
(lp4246
S'What type of causal agent is present in the image?'
p4247
aS'Choose the type of limb present in the image?'
p4248
aS'What type of diversion is not shown in the image?'
p4249
asS'3094752171.jpg'
p4250
(lp4251
S'What type of signboard is present in the image?'
p4252
aS'Choose the type of promotion present in the image?'
p4253
aS'What type of way is not shown in the image?'
p4254
asS'2120512339.jpg'
p4255
(lp4256
S'What type of diversion is present in the image?'
p4257
aS'Choose the type of track and field present in the image?'
p4258
asS'4947861901.jpg'
p4259
(lp4260
S'What type of section is present in the image?'
p4261
aS'Choose the type of woody plant present in the image?'
p4262
aS'What type of position is not shown in the image?'
p4263
asS'4839553740.jpg'
p4264
(lp4265
S'What type of vertebrate is present in the image?'
p4266
aS'Choose the type of mouth present in the image?'
p4267
aS'What type of chordate is not shown in the image?'
p4268
as.