(dp0
S'slope'
p1
I202
sS'dance'
p2
I1
sS'ceramic'
p3
I2
sS'skin'
p4
I3
sS'woody'
p5
I4
sS'hunting'
p6
I6
sS'presentation'
p7
I7
sS'division'
p8
I8
sS'protective'
p9
I9
sS'rescue'
p10
I10
sS'rise'
p11
I11
sS'artwork'
p12
I12
sS'transmission'
p13
I13
sS'car'
p14
I14
sS'small'
p15
I15
sS'mammal'
p16
I16
sS'upper'
p17
I17
sS'force'
p18
I18
sS'collage'
p19
I19
sS'sign'
p20
I20
sS'street'
p21
I21
sS'depression'
p22
I22
sS'material'
p23
I114
sS'procurator'
p24
I23
sS'section'
p25
I24
sS'cooking'
p26
I25
sS'attire'
p27
I26
sS'bird'
p28
I221
sS'body'
p29
I28
sS'estate'
p30
I29
sS'commercial'
p31
I30
sS'water'
p32
I31
sS'path'
p33
I32
sS'combatant'
p34
I33
sS'chordophone'
p35
I34
sS'substance'
p36
I35
sS'soldier'
p37
I36
sS'pictorial'
p38
I37
sS'locomotion'
p39
I298
sS'climb'
p40
I39
sS'family'
p41
I40
sS'wit'
p42
I41
sS'motor'
p43
I42
sS'limb'
p44
I43
sS'illumination'
p45
I44
sS'chemoreceptor'
p46
I388
sS'causal'
p47
I45
sS'unit'
p48
I46
sS'plot'
p49
I47
sS'figure'
p50
I48
sS'consumption'
p51
I49
sS'warship'
p52
I50
sS'percept'
p53
I51
sS'music'
p54
I52
sS'vehicle'
p55
I53
sS'type'
p56
I54
sS'musician'
p57
I55
sS'clue'
p58
I56
sS'visual'
p59
I57
sS'encouragement'
p60
I58
sS'disfavor'
p61
I59
sS'ware'
p62
I60
sS'equine'
p63
I147
sS'graphic'
p64
I61
sS'word'
p65
I62
sS'room'
p66
I63
sS'hour'
p67
I64
sS'science'
p68
I65
sS'athlete'
p69
I66
sS'male'
p70
I67
sS'performer'
p71
I68
sS'sandbank'
p72
I69
sS'stream'
p73
I70
sS'process'
p74
I71
sS'agent'
p75
I72
sS'stroke'
p76
I73
sS'woman'
p77
I74
sS'airplane'
p78
I75
sS'clothing'
p79
I76
sS'ceremony'
p80
I77
sS'court'
p81
I78
sS'skirt'
p82
I79
sS'travel'
p83
I80
sS'comfort'
p84
I81
sS'forest'
p85
I82
sS'animal'
p86
I83
sS'plant'
p87
I132
sS'farm'
p88
I85
sS'spot'
p89
I86
sS'movable'
p90
I87
sS'collection'
p91
I88
sS'ruminant'
p92
I90
sS'horizontal'
p93
I91
sS'headdress'
p94
I92
sS'man'
p95
I93
sS'organization'
p96
I94
sS'natural'
p97
I95
sS'outline'
p98
I96
sS'commodity'
p99
I97
sS'shore'
p100
I98
sS'deceive'
p101
I99
sS'representation'
p102
I100
sS'order'
p103
I101
sS'What'
p104
I102
sS'office'
p105
I103
sS'keyboard'
p106
I104
sS'pointer'
p107
I105
sS'worship'
p108
I106
sS'dirtiness'
p109
I107
sS'group'
p110
I108
sS'auditory'
p111
I109
sS'production'
p112
I110
sS'enlisted'
p113
I111
sS'food'
p114
I112
sS'signboard'
p115
I113
sS'killer'
p116
I300
sS'chromatic'
p117
I115
sS'framework'
p118
I116
sS'compound'
p119
I117
sS'not'
p120
I308
sS'preschool'
p121
I119
sS'wagon'
p122
I120
sS'undertaking'
p123
I121
sS'concave'
p124
I122
sS'slide'
p125
I123
sS'bowling'
p126
I124
sS'meal'
p127
I125
sS'instrumentality'
p128
I126
sS'turtle'
p129
I127
sS'burial'
p130
I128
sS'square'
p131
I129
sS'garment'
p132
I130
sS'fish'
p133
I131
sS'product'
p134
I84
sS'marital'
p135
I133
sS'living'
p136
I134
sS'shown'
p137
I135
sS'container'
p138
I136
sS'alcohol'
p139
I137
sS'stringed'
p140
I138
sS'noisemaker'
p141
I139
sS'linear'
p142
I140
sS'barrier'
p143
I141
sS'actinic'
p144
I142
sS'orthopterous'
p145
I143
sS'formation'
p146
I144
sS'footrace'
p147
I145
sS'yard'
p148
I146
sS'district'
p149
I89
sS'gramineous'
p150
I148
sS"woman's"
p151
I149
sS'motion'
p152
I150
sS'thing'
p153
I151
sS'place'
p154
I152
sS'footwear'
p155
I153
sS'promotion'
p156
I154
sS'piciform'
p157
I155
sS'dwelling'
p158
I156
sS'hoop'
p159
I157
sS'municipality'
p160
I158
sS'traveler'
p161
I159
sS'quality'
p162
I160
sS'city'
p163
I161
sS'horse'
p164
I162
sS'sheet'
p165
I163
sS'service'
p166
I164
sS'festival'
p167
I165
sS'plastic'
p168
I166
sS'percussion'
p169
I167
sS'store'
p170
I168
sS'bowed'
p171
I169
sS'season'
p172
I170
sS'artifact'
p173
I171
sS'optical'
p174
I5
sS'kabob'
p175
I173
sS'newlywed'
p176
I174
sS'grocery'
p177
I215
sS'iron'
p178
I176
sS'sculpture'
p179
I177
sS'and'
p180
I178
sS'bridge'
p181
I179
sS'gathering'
p182
I180
sS'runner'
p183
I181
sS'mechanism'
p184
I182
sS'equipment'
p185
I183
sS'paraprofessional'
p186
I184
sS'performance'
p187
I185
sS'vegetation'
p188
I331
sS'play'
p189
I187
sS'track'
p190
I188
sS'object'
p191
I189
sS'mouth'
p192
I190
sS'tract'
p193
I191
sS'device'
p194
I192
sS'partition'
p195
I193
sS'metal'
p196
I194
sS'dog'
p197
I195
sS'musical'
p198
I196
sS'prickly'
p199
I197
sS'aerosol'
p200
I198
sS'enterprise'
p201
I199
sS'grassland'
p202
I200
sS'painting'
p203
I201
sS'shop'
p204
I0
sS'affair'
p205
I203
sS'atmosphere'
p206
I204
sS'golf'
p207
I205
sS'phenomenon'
p208
I206
sS'show'
p209
I207
sS'chicken'
p210
I208
sS'completion'
p211
I209
sS'outbuilding'
p212
I210
sS'arthropod'
p213
I211
sS'wood'
p214
I212
sS'achromatic'
p215
I213
sS'shepherd'
p216
I214
sS'photograph'
p217
I175
sS'leisure'
p218
I216
sS'bar'
p219
I217
sS'covering'
p220
I218
sS'nutriment'
p221
I219
sS'motorboat'
p222
I220
sS'public'
p223
I27
sS'activity'
p224
I222
sS'view'
p225
I223
sS'art'
p226
I224
sS'creator'
p227
I225
sS'excavation'
p228
I226
sS'canine'
p229
I227
sS'cattle'
p230
I228
sS'sport'
p231
I229
sS'feline'
p232
I230
sS'occupational'
p233
I231
sS'guitar'
p234
I232
sS'hypothesis'
p235
I233
sS'conflagration'
p236
I234
sS'lineman'
p237
I313
sS'residence'
p238
I236
sS'region'
p239
I237
sS'workplace'
p240
I238
sS'railway'
p241
I239
sS'genus'
p242
I240
sS'expression'
p243
I241
sS'point'
p244
I315
sS'percussionist'
p245
I243
sS'period'
p246
I244
sS'community'
p247
I245
sS'walk'
p248
I246
sS'dancer'
p249
I247
sS'consideration'
p250
I248
sS'vessel'
p251
I249
sS'boat'
p252
I250
sS'belt'
p253
I251
sS'conference'
p254
I252
sS'cycling'
p255
I253
sS'mobilization'
p256
I254
sS'vertebrate'
p257
I255
sS'vacation'
p258
I256
sS'basic'
p259
I257
sS'linguistic'
p260
I258
sS'basin'
p261
I259
sS'meeting'
p262
I260
sS'exhibition'
p263
I319
sS'life'
p264
I262
sS'fire'
p265
I263
sS'angiosperm'
p266
I264
sS'worker'
p267
I265
sS'dramatic'
p268
I266
sS'external'
p269
I267
sS'child'
p270
I268
sS'masonry'
p271
I269
sS'wheeled'
p272
I270
sS'present'
p273
I271
sS'sound'
p274
I272
sS'atmospheric'
p275
I273
sS'solid'
p276
I274
sS'plain'
p277
I275
sS'conveyance'
p278
I276
sS'property'
p279
I277
sS'canoe'
p280
I278
sS'soil'
p281
I279
sS'is'
p282
I280
sS'surface'
p283
I281
sS'decoration'
p284
I282
sS'in'
p285
I283
sS'waterway'
p286
I284
sS'binary'
p287
I285
sS'descent'
p288
I286
sS'radiation'
p289
I287
sS'fragment'
p290
I288
sS'complex'
p291
I289
sS'speech'
p292
I290
sS'descend'
p293
I291
sS'composition'
p294
I292
sS'european'
p295
I293
sS'status'
p296
I294
sS'ball'
p297
I295
sS'diversion'
p298
I296
sS'paving'
p299
I297
sS'military'
p300
I38
sS'brome'
p301
I299
sS'person'
p302
I301
sS'cheer'
p303
I302
sS'contact'
p304
I303
sS'position'
p305
I304
sS'the'
p306
I305
sS'drawing'
p307
I306
sS'outdoor'
p308
I307
sS'front'
p309
I118
sS'shape'
p310
I309
sS'part'
p311
I172
sS'blow'
p312
I310
sS'biome'
p313
I311
sS'spectacles'
p314
I312
sS'cur'
p315
I235
sS'residential'
p316
I314
sS'supply'
p317
I242
sS'geological'
p318
I316
sS'grounder'
p319
I317
sS'instrument'
p320
I318
sS'board'
p321
I261
sS'contestant'
p322
I320
sS'elevation'
p323
I321
sS'government'
p324
I322
sS'game'
p325
I323
sS'facial'
p326
I324
sS'railroad'
p327
I325
sS'precipitation'
p328
I326
sS'color'
p329
I327
sS'cognitive'
p330
I328
sS'chordate'
p331
I329
sS'chamber'
p332
I330
sS'channel'
p333
I186
sS'popular'
p334
I332
sS'output'
p335
I333
sS'tower'
p336
I334
sS'adversity'
p337
I335
sS'old'
p338
I336
sS'verbal'
p339
I337
sS'creation'
p340
I338
sS'dead'
p341
I339
sS'hair'
p342
I340
sS'martial'
p343
I341
sS'Choose'
p344
I343
sS'transport'
p345
I344
sS'shrub'
p346
I345
sS'soft-finned'
p347
I346
sS'religion'
p348
I347
sS'fog'
p349
I348
sS'?'
p350
I349
sS'conveyer'
p351
I350
sS'thoroughfare'
p352
I351
sS'rock'
p353
I352
sS'expansion'
p354
I353
sS'goods'
p355
I354
sS'working'
p356
I355
sS'of'
p357
I356
sS'coral'
p358
I357
sS'swimmer'
p359
I358
sS'dinner'
p360
I359
sS'act'
p361
I360
sS'swimming'
p362
I361
sS'facility'
p363
I362
sS'communication'
p364
I363
sS'image'
p365
I364
sS'skilled'
p366
I365
sS'craft'
p367
I400
sS'furnishing'
p368
I366
sS'area'
p369
I367
sS'pool'
p370
I394
sS'way'
p371
I369
sS'house'
p372
I370
sS'valley'
p373
I371
sS'reef'
p374
I373
sS'line'
p375
I374
sS'buying'
p376
I375
sS'gallinaceous'
p377
I376
sS'reproductive'
p378
I377
sS'extremity'
p379
I378
sS'skating'
p380
I379
sS'juvenile'
p381
I380
sS'education'
p382
I381
sS'physical'
p383
I382
sS'objection'
p384
I383
sS'field'
p385
I384
sS'other'
p386
I385
sS'branch'
p387
I386
sS'picture'
p388
I387
sS'trouser'
p389
I342
sS'shelter'
p390
I389
sS'football'
p391
I390
sS'pear'
p392
I391
sS'helping'
p393
I392
sS'insect'
p394
I393
sS'structure'
p395
I368
sS'building'
p396
I395
sS'land'
p397
I396
sS'happening'
p398
I397
sS'consumer'
p399
I398
sS'curve'
p400
I399
sS'beverage'
p401
I372
sS'time'
p402
I401
sS'adult'
p403
I402
s.