(dp0
S'shop'
p1
I0
sS'slope'
p2
I1
sS'What'
p3
I2
sS'feline'
p4
I114
sS'golf'
p5
I4
sS'phenomenon'
p6
I5
sS'affair'
p7
I42
sS'sound'
p8
I239
sS'artwork'
p9
I8
sS'atmosphere'
p10
I9
sS'area'
p11
I200
sS'shape'
p12
I10
sS'keyboard'
p13
I12
sS'woody'
p14
I13
sS'pointer'
p15
I14
sS'line'
p16
I233
sS'figure'
p17
I261
sS'dirtiness'
p18
I18
sS'biome'
p19
I19
sS'animal'
p20
I293
sS'position'
p21
I336
sS'group'
p22
I20
sS'cur'
p23
I21
sS'hunting'
p24
I22
sS'outbuilding'
p25
I23
sS'residential'
p26
I24
sS'dramatic'
p27
I331
sS'show'
p28
I6
sS'geological'
p29
I27
sS'newlywed'
p30
I236
sS'arthropod'
p31
I29
sS'instrument'
p32
I30
sS'production'
p33
I31
sS'present'
p34
I237
sS'contestant'
p35
I34
sS'achromatic'
p36
I35
sS'hoop'
p37
I177
sS'forest'
p38
I292
sS'shepherd'
p39
I220
sS'protective'
p40
I40
sS'elevation'
p41
I41
sS'rescue'
p42
I16
sS'fragment'
p43
I43
sS'signboard'
p44
I179
sS'rise'
p45
I45
sS'photograph'
p46
I241
sS'leisure'
p47
I47
sS'chromatic'
p48
I48
sS'aerosol'
p49
I332
sS'framework'
p50
I49
sS'game'
p51
I50
sS'facial'
p52
I52
sS'compound'
p53
I53
sS'front'
p54
I54
sS'word'
p55
I243
sS'diversion'
p56
I310
sS'precipitation'
p57
I57
sS'paraprofessional'
p58
I249
sS'preschool'
p59
I59
sS'gallinaceous'
p60
I244
sS'service'
p61
I281
sS'wagon'
p62
I62
sS'child'
p63
I231
sS'cognitive'
p64
I65
sS'covering'
p65
I66
sS'transmission'
p66
I67
sS'chordate'
p67
I69
sS'nutriment'
p68
I70
sS'concave'
p69
I71
sS'public'
p70
I120
sS'extremity'
p71
I246
sS'wit'
p72
I183
sS'channel'
p73
I297
sS'enterprise'
p74
I335
sS'activity'
p75
I76
sS'popular'
p76
I77
sS'output'
p77
I78
sS'tower'
p78
I79
sS'european'
p79
I298
sS'meal'
p80
I81
sS'Select'
p81
I82
sS'view'
p82
I83
sS'burial'
p83
I84
sS'square'
p84
I85
sS'force'
p85
I80
sS'hour'
p86
I245
sS'verbal'
p87
I87
sS'creator'
p88
I88
sS'collage'
p89
I89
sS'garment'
p90
I90
sS'fish'
p91
I91
sS'creation'
p92
I92
sS'traveler'
p93
I187
sS'plant'
p94
I301
sS'dead'
p95
I94
sS'marital'
p96
I95
sS'hair'
p97
I96
sS'martial'
p98
I97
sS'street'
p99
I51
sS'Choose'
p100
I99
sS'Which'
p101
I100
sS'cattle'
p102
I101
sS'sport'
p103
I103
sS'transport'
p104
I104
sS'conveyer'
p105
I126
sS'basic'
p106
I212
sS'shown'
p107
I106
sS'container'
p108
I107
sS'thoroughfare'
p109
I127
sS'procurator'
p110
I58
sS'stringed'
p111
I111
sS'promotion'
p112
I333
sS'soft-finned'
p113
I11
sS'cooking'
p114
I3
sS'religion'
p115
I115
sS'unit'
p116
I191
sS'attire'
p117
I118
sS'instrumentality'
p118
I168
sS'railway'
p119
I318
sS'occupational'
p120
I119
sS'bird'
p121
I72
sS'?'
p122
I121
sS'body'
p123
I122
sS'object'
p124
I306
sS'linear'
p125
I105
sS'barrier'
p126
I108
sS'city'
p127
I194
sS'organization'
p128
I322
sS'actinic'
p129
I130
sS'rock'
p130
I131
sS'commercial'
p131
I132
sS'horse'
p132
I133
sS'science'
p133
I247
sS'water'
p134
I134
sS'small'
p135
I135
sS'orthopterous'
p136
I136
sS'hypothesis'
p137
I125
sS'collection'
p138
I309
sS'conflagration'
p139
I138
sS'mammal'
p140
I139
sS'represented'
p141
I140
sS'consideration'
p142
I141
sS'chordophone'
p143
I143
sS'by'
p144
I144
sS'lineman'
p145
I145
sS'substance'
p146
I110
sS'yard'
p147
I149
sS'equine'
p148
I150
sS'gramineous'
p149
I151
sS'of'
p150
I152
sS'region'
p151
I153
sS'auditory'
p152
I112
sS'house'
p153
I155
sS'motion'
p154
I157
sS'soldier'
p155
I158
sS'dinner'
p156
I159
sS'upper'
p157
I160
sS'footwear'
p158
I162
sS'pictorial'
p159
I163
sS'act'
p160
I164
sS'skin'
p161
I165
sS'military'
p162
I129
sS'climb'
p163
I167
sS'genus'
p164
I68
sS'expression'
p165
I169
sS'other'
p166
I290
sS'swimming'
p167
I170
sS'adversity'
p168
I171
sS'dwelling'
p169
I172
sS'family'
p170
I173
sS'point'
p171
I26
sS'percussionist'
p172
I63
sS'communication'
p173
I176
sS'image'
p174
I37
sS'skilled'
p175
I178
sS'municipality'
p176
I44
sS'period'
p177
I161
sS'community'
p178
I181
sS'walk'
p179
I182
sS'facility'
p180
I174
sS'color'
p181
I175
sS'dancer'
p182
I74
sS'furnishing'
p183
I184
sS'motor'
p184
I185
sS'limb'
p185
I186
sS'illumination'
p186
I36
sS'chemoreceptor'
p187
I188
sS'quality'
p188
I189
sS'causal'
p189
I190
sS'boat'
p190
I117
sS'belt'
p191
I192
sS'conference'
p192
I193
sS'plot'
p193
I128
sS'art'
p194
I86
sS'cycling'
p195
I197
sS'stream'
p196
I198
sS'district'
p197
I199
sS'swimmer'
p198
I109
sS'festival'
p199
I201
sS'vertebrate'
p200
I202
sS'vacation'
p201
I203
sS'consumption'
p202
I204
sS'plastic'
p203
I205
sS'equipment'
p204
I206
sS'percussion'
p205
I207
sS'wood'
p206
I208
sS'music'
p207
I209
sS'headdress'
p208
I146
sS'way'
p209
I211
sS'vehicle'
p210
I39
sS'material'
p211
I213
sS'basin'
p212
I214
sS'valley'
p213
I215
sS'type'
p214
I216
sS'store'
p215
I217
sS'field'
p216
I288
sS'bowed'
p217
I219
sS'fire'
p218
I221
sS'season'
p219
I222
sS'musician'
p220
I102
sS'worker'
p221
I224
sS'artifact'
p222
I225
sS'clue'
p223
I226
sS'visual'
p224
I228
sS'optical'
p225
I17
sS'canine'
p226
I156
sS'goods'
p227
I148
sS'disfavor'
p228
I232
sS'masonry'
p229
I15
sS'sign'
p230
I234
sS'kabob'
p231
I235
sS'wheeled'
p232
I28
sS'buying'
p233
I33
sS'happening'
p234
I324
sS'angiosperm'
p235
I223
sS'grocery'
p236
I46
sS'graphic'
p237
I242
sS'atmospheric'
p238
I55
sS'room'
p239
I60
sS'reproductive'
p240
I210
sS'solid'
p241
I73
sS'plain'
p242
I218
sS'athlete'
p243
I248
sS'mouth'
p244
I311
sS'conveyance'
p245
I250
sS'iron'
p246
I252
sS'male'
p247
I32
sS'sculpture'
p248
I255
sS'juvenile'
p249
I259
sS'skating'
p250
I147
sS'bridge'
p251
I258
sS'warship'
p252
I154
sS'performer'
p253
I260
sS'estate'
p254
I64
sS'canoe'
p255
I262
sS'process'
p256
I263
sS'soil'
p257
I264
sS'is'
p258
I265
sS'life'
p259
I266
sS'agent'
p260
I123
sS'decoration'
p261
I268
sS'stroke'
p262
I269
sS'woman'
p263
I270
sS'tract'
p264
I313
sS'in'
p265
I271
sS'craft'
p266
I272
sS'waterway'
p267
I273
sS'property'
p268
I254
sS'clothing'
p269
I275
sS'gathering'
p270
I180
sS'physical'
p271
I276
sS'ceremony'
p272
I277
sS'binary'
p273
I278
sS'education'
p274
I274
sS'ruminant'
p275
I279
sS'descent'
p276
I280
sS'objection'
p277
I282
sS'skirt'
p278
I283
sS'travel'
p279
I284
sS'comfort'
p280
I285
sS'radiation'
p281
I286
sS'shore'
p282
I330
sS'external'
p283
I340
sS'food'
p284
I7
sS'old'
p285
I289
sS'beverage'
p286
I142
sS'speech'
p287
I291
sS'descend'
p288
I38
sS'supply'
p289
I227
sS'meeting'
p290
I294
sS'performance'
p291
I295
sS'composition'
p292
I296
sS'vegetation'
p293
I75
sS'workplace'
p294
I196
sS'status'
p295
I299
sS'mobilization'
p296
I256
sS'play'
p297
I93
sS'trouser'
p298
I98
sS'vessel'
p299
I303
sS'chamber'
p300
I304
sS'shelter'
p301
I253
sS'football'
p302
I124
sS'spot'
p303
I307
sS'movable'
p304
I308
sS'ball'
p305
I302
sS'and'
p306
I257
sS'insect'
p307
I61
sS'track'
p308
I305
sS'paving'
p309
I312
sS'structure'
p310
I319
sS'locomotion'
p311
I166
sS'device'
p312
I314
sS'court'
p313
I315
sS'horizontal'
p314
I316
sS'brome'
p315
I317
sS'killer'
p316
I195
sS'pool'
p317
I116
sS'man'
p318
I320
sS'building'
p319
I321
sS'picture'
p320
I300
sS'land'
p321
I240
sS'natural'
p322
I323
sS'outline'
p323
I238
sS'consumer'
p324
I338
sS'footrace'
p325
I229
sS'partition'
p326
I326
sS'curve'
p327
I327
sS'dog'
p328
I328
sS'musical'
p329
I339
sS'person'
p330
I329
sS'cheer'
p331
I287
sS'part'
p332
I56
sS'formation'
p333
I137
sS'deceive'
p334
I334
sS'time'
p335
I251
sS'representation'
p336
I25
sS'the'
p337
I337
sS'painting'
p338
I325
sS'section'
p339
I113
sS'surface'
p340
I267
sS'adult'
p341
I230
s.