(lp0
S'What type of nutriment is present in the image ?'
p1
aS'Select the container represented by the image ?'
p2
aS'What type of plot is present in the image ?'
p3
aS'Select the angiosperm represented by the image ?'
p4
aS'What type of water travel is present in the image ?'
p5
aS'Select the paraprofessional represented by the image ?'
p6
aS'What type of motor vehicle is present in the image ?'
p7
aS'Select the conveyance represented by the image ?'
p8
aS'What type of municipality is present in the image ?'
p9
aS'Select the activity represented by the image ?'
p10
aS'What type of contestant is present in the image ?'
p11
aS'Select the diversion represented by the image ?'
p12
aS'What type of instrumentality is present in the image ?'
p13
aS'Select the commercial enterprise represented by the image ?'
p14
aS'What type of locomotion is present in the image ?'
p15
aS'Select the disfavor represented by the image ?'
p16
aS'What type of group is present in the image ?'
p17
aS'What type of artwork is present in the image ?'
p18
aS'Select the collection represented by the image ?'
p19
aS'What type of life science is present in the image ?'
p20
aS'Select the nutriment represented by the image ?'
p21
aS'What type of consumer goods is present in the image ?'
p22
aS'Select the achromatic color represented by the image ?'
p23
aS'What type of diversion is present in the image ?'
p24
aS'Select the contestant represented by the image ?'
p25
ag24
aS'Select the field game represented by the image ?'
p26
aS'What type of causal agent is present in the image ?'
p27
aS'Select the juvenile represented by the image ?'
p28
aS'What type of horizontal surface is present in the image ?'
p29
aS'Select the building material represented by the image ?'
p30
ag13
aS'Select the public transport represented by the image ?'
p31
aS'What type of way is present in the image ?'
p32
aS'Select the adult represented by the image ?'
p33
aS'What type of musician is present in the image ?'
p34
aS'Select the stringed instrument represented by the image ?'
p35
ag11
ag25
ag24
aS'Select the sport represented by the image ?'
p36
aS'What type of conveyance is present in the image ?'
p37
aS'Select the device represented by the image ?'
p38
ag27
aS'Select the group represented by the image ?'
p39
aS'What type of artifact is present in the image ?'
p40
aS'Select the municipality represented by the image ?'
p41
aS'What type of food is present in the image ?'
p42
aS'Select the woody plant represented by the image ?'
p43
ag27
ag33
ag11
ag12
ag32
aS'Select the thoroughfare represented by the image ?'
p44
aS'What type of chromatic color is present in the image ?'
p45
aS'Select the gramineous plant represented by the image ?'
p46
aS'What type of track and field is present in the image ?'
p47
ag8
ag11
ag12
ag27
ag39
ag9
aS'Select the chromatic color represented by the image ?'
p48
ag27
ag39
aS'What type of traveler is present in the image ?'
p49
aS'Select the city district represented by the image ?'
p50
ag32
aS'Select the street represented by the image ?'
p51
aS'What type of show is present in the image ?'
p52
aS'Select the creation represented by the image ?'
p53
ag13
aS'Select the motor vehicle represented by the image ?'
p54
ag45
aS'Select the objection represented by the image ?'
p55
aS'What type of external body part is present in the image ?'
p56
aS'What type of representation is present in the image ?'
p57
aS'Select the causal agent represented by the image ?'
p58
ag24
aS'What type of animal is present in the image ?'
p59
aS'Select the canine represented by the image ?'
p60
ag27
ag33
ag24
aS'Select the wheeled vehicle represented by the image ?'
p61
aS'What type of activity is present in the image ?'
p62
ag41
ag32
aS'Select the bridge represented by the image ?'
p63
aS'What type of clothing is present in the image ?'
p64
aS'Select the seat represented by the image ?'
p65
ag9
ag41
aS'What type of yard is present in the image ?'
p66
aS'Select the dramatic composition represented by the image ?'
p67
ag24
aS'Select the skating represented by the image ?'
p68
ag17
aS'Select the track and field represented by the image ?'
p69
aS'What type of juvenile is present in the image ?'
p70
ag22
aS'Select the way represented by the image ?'
p71
ag62
aS'What type of geological formation is present in the image ?'
p72
aS'Select the body of water represented by the image ?'
p73
ag59
ag60
aS'What type of commercial enterprise is present in the image ?'
p74
aS'What type of lineman is present in the image ?'
p75
ag12
aS'What type of objection is present in the image ?'
p76
ag39
ag24
ag25
ag9
ag41
aS'What type of public transport is present in the image ?'
p77
aS'Select the instrumentality represented by the image ?'
p78
aS'What type of room is present in the image ?'
p79
ag19
ag59
ag60
ag24
ag68
aS'What type of gathering is present in the image ?'
p80
ag58
aS'What type of building is present in the image ?'
p81
ag21
ag27
aS'Select the occupational group represented by the image ?'
p82
ag59
aS'Select the organism represented by the image ?'
p83
ag27
aS'Select the performer represented by the image ?'
p84
ag42
ag4
ag27
ag8
ag17
aS'Select the gathering represented by the image ?'
p85
aS'What type of dramatic composition is present in the image ?'
p86
aS'Select the cloth covering represented by the image ?'
p87
ag86
aS'Select the field represented by the image ?'
p88
ag45
aS'Select the representation represented by the image ?'
p89
ag1
aS'Select the meal represented by the image ?'
p90
ag24
aS'Select the lineman represented by the image ?'
p91
ag7
ag8
ag24
aS'Select the play represented by the image ?'
p92
aS'What type of body of water is present in the image ?'
p93
aS'Select the leisure represented by the image ?'
p94
aS'What type of paving is present in the image ?'
p95
ag8
ag70
aS'Select the facial expression represented by the image ?'
p96
aS'What type of happening is present in the image ?'
p97
aS'Select the process represented by the image ?'
p98
ag86
ag53
ag59
ag60
aS'What type of adult is present in the image ?'
p99
aS'Select the chemoreceptor represented by the image ?'
p100
aS'What type of canine is present in the image ?'
p101
aS'Select the dog represented by the image ?'
p102
ag24
ag25
ag24
aS'Select the undertaking represented by the image ?'
p103
ag24
ag68
ag37
aS'Select the consideration represented by the image ?'
p104
ag37
aS'Select the warship represented by the image ?'
p105
ag101
aS'Select the chordate represented by the image ?'
p106
ag27
ag50
ag37
ag24
ag25
ag9
ag41
aS'What type of leisure is present in the image ?'
p107
ag73
ag24
ag58
ag5
ag73
aS'What type of furnishing is present in the image ?'
p108
ag7
ag8
aS'What type of performer is present in the image ?'
p109
ag9
aS'What type of percussion instrument is present in the image ?'
p110
aS'Select the percussionist represented by the image ?'
p111
ag22
ag48
aS'What type of arthropod genus is present in the image ?'
p112
ag8
ag24
ag52
aS'Select the athlete represented by the image ?'
p113
aS'What type of masonry is present in the image ?'
p114
aS'Select the paving represented by the image ?'
p115
ag13
ag39
aS'What type of estate is present in the image ?'
p116
aS'Select the area represented by the image ?'
p117
ag24
ag32
ag115
ag52
ag12
aS'What type of facility is present in the image ?'
p118
ag39
ag17
ag29
aS'Select the horizontal surface represented by the image ?'
p119
ag27
ag33
ag27
ag21
aS'What type of word picture is present in the image ?'
p120
ag27
ag24
aS'Select the descent represented by the image ?'
p121
ag17
aS'Select the traveler represented by the image ?'
p122
ag101
aS'Select the life represented by the image ?'
p123
ag27
ag39
ag37
ag24
aS'Select the other represented by the image ?'
p124
aS'What type of quality is present in the image ?'
p125
ag12
aS'What type of structure is present in the image ?'
p126
ag12
ag107
ag73
ag24
ag69
aS'What type of deceive is present in the image ?'
p127
ag32
ag44
ag70
ag58
ag27
ag39
aS'What type of person is present in the image ?'
p128
aS'Select the participant represented by the image ?'
p129
aS"What type of woman's clothing is present in the image ?"
p130
ag129
aS'What type of pictorial representation is present in the image ?'
p131
aS'Select the person represented by the image ?'
p132
ag11
ag58
ag52
aS'Select the musical performance represented by the image ?'
p133
ag11
ag12
ag17
aS'Select the affair represented by the image ?'
p134
ag93
aS'Select the supply represented by the image ?'
p135
ag57
aS'Select the graphic art represented by the image ?'
p136
ag37
ag54
ag17
ag59
ag60
aS'What type of sport is present in the image ?'
p137
ag61
ag24
aS'Select the water sport represented by the image ?'
p138
ag80
ag39
aS'What type of barrier is present in the image ?'
p139
ag12
ag64
ag4
aS'What type of shore is present in the image ?'
p140
ag10
ag107
ag58
aS'What type of walk is present in the image ?'
p141
ag71
aS'What type of position is present in the image ?'
p142
aS'Select the public square represented by the image ?'
p143
ag11
ag12
ag37
aS'Select the force represented by the image ?'
p144
ag59
ag60
ag59
ag60
ag101
ag67
aS'What type of course is present in the image ?'
p145
aS'Select the block represented by the image ?'
p146
ag93
ag104
aS'What type of binary compound is present in the image ?'
p147
ag1
ag2
ag17
aS'Select the building represented by the image ?'
p148
ag24
ag58
ag17
ag134
ag9
ag148
ag24
ag25
ag86
ag28
ag93
ag48
aS'What type of boat is present in the image ?'
p149
aS'Select the water travel represented by the image ?'
p150
ag27
ag8
ag80
ag39
ag27
ag44
ag45
ag73
ag24
ag67
ag17
ag85
ag22
ag33
aS'What type of unit is present in the image ?'
p151
ag12
ag9
ag122
ag24
ag25
ag24
ag69
ag24
aS'Select the canoe represented by the image ?'
p152
ag24
ag12
ag125
ag58
ag81
aS'Select the room represented by the image ?'
p153
ag13
aS'Select the artifact represented by the image ?'
p154
aS'What type of framework is present in the image ?'
p155
aS'Select the curve represented by the image ?'
p156
ag17
ag122
ag24
aS'Select the unit represented by the image ?'
p157
ag93
ag52
aS'Select the art represented by the image ?'
p158
aS'What type of creation is present in the image ?'
p159
aS'What type of doctor is present in the image ?'
p160
ag117
ag24
ag25
ag22
ag48
ag40
aS'Select the machine represented by the image ?'
p161
ag24
ag10
ag13
ag8
ag59
ag83
ag13
aS'Select the painting represented by the image ?'
p162
ag27
ag39
aS'What type of cur is present in the image ?'
p163
aS'Select the mammal family represented by the image ?'
p164
ag37
aS'Select the wagon represented by the image ?'
p165
ag57
ag58
ag101
ag106
ag72
aS'Select the shore represented by the image ?'
p166
ag27
ag27
ag82
ag17
ag99
aS'Select the child represented by the image ?'
p167
aS'What type of precipitation is present in the image ?'
p168
aS'Select the binary compound represented by the image ?'
p169
ag37
ag54
ag24
ag17
ag28
ag27
aS'Select the broadcasting represented by the image ?'
p170
aS'What type of vessel is present in the image ?'
p171
ag150
ag168
aS'Select the clothing represented by the image ?'
p172
aS'What type of time period is present in the image ?'
p173
aS'Select the precipitation represented by the image ?'
p174
ag37
ag165
ag5
ag36
ag37
ag161
ag93
ag8
ag24
ag58
aS'What type of transmission is present in the image ?'
p175
ag19
aS'What type of conference is present in the image ?'
p176
aS'Select the basic cognitive process represented by the image ?'
p177
ag37
ag36
ag147
ag8
ag24
ag59
ag60
ag24
aS'Select the rise represented by the image ?'
p178
ag27
ag39
aS'What type of newlywed is present in the image ?'
p179
ag58
ag37
ag54
ag27
ag33
ag40
aS'Select the system represented by the image ?'
p180
ag17
ag50
ag175
ag95
ag9
ag28
ag24
aS'Select the court game represented by the image ?'
p181
ag168
ag53
aS'What type of ceremony is present in the image ?'
p182
aS'Select the conference represented by the image ?'
p183
ag37
ag81
aS'Select the outline represented by the image ?'
p184
aS'What type of tract is present in the image ?'
p185
aS'Select the biome represented by the image ?'
p186
ag52
aS'Select the time period represented by the image ?'
p187
ag70
ag58
ag32
aS'Select the collage represented by the image ?'
p188
ag52
aS'Select the performance represented by the image ?'
p189
ag159
ag71
aS'What type of collage is present in the image ?'
p190
ag4
ag24
ag25
ag24
aS'Select the geological formation represented by the image ?'
p191
ag86
aS'Select the animal represented by the image ?'
p192
aS'What type of chordate is present in the image ?'
p193
aS'Select the vertebrate represented by the image ?'
p194
ag99
ag33
ag22
ag23
ag66
ag24
aS'Select the contest represented by the image ?'
p195
ag99
ag25
ag79
aS'Select the procurator represented by the image ?'
p196
aS'What type of education is present in the image ?'
p197
ag19
ag32
aS'Select the section represented by the image ?'
p198
ag17
aS'What type of disfavor is present in the image ?'
p199
ag39
aS'What type of meeting is present in the image ?'
p200
ag39
ag70
ag67
ag17
aS'Select the tract represented by the image ?'
p201
ag24
ag10
aS'What type of chordophone is present in the image ?'
p202
ag35
ag80
aS'Select the show represented by the image ?'
p203
ag24
ag192
ag70
ag58
aS'What type of outbuilding is present in the image ?'
p204
ag148
ag24
ag53
ag101
ag106
ag80
ag85
ag5
ag8
ag24
ag13
ag48
ag24
aS'Select the pool represented by the image ?'
p205
ag149
ag8
ag1
ag2
ag13
aS'Select the outbuilding represented by the image ?'
p206
aS'What type of illumination is present in the image ?'
p207
aS'Select the location represented by the image ?'
p208
ag24
ag10
ag37
aS'Select the formation represented by the image ?'
p209
ag32
ag8
ag93
ag191
ag86
ag85
aS'What type of achromatic color is present in the image ?'
p210
aS'Select the body covering represented by the image ?'
p211
ag1
ag45
ag12
aS'What type of bowed stringed instrument is present in the image ?'
p212
aS'Select the musician represented by the image ?'
p213
ag32
ag78
ag24
ag32
ag44
aS'What type of angiosperm is present in the image ?'
p214
aS'Select the festival represented by the image ?'
p215
ag86
ag28
aS'What type of propulsion is present in the image ?'
p216
ag22
ag25
ag52
ag53
ag22
ag172
ag22
ag48
ag17
aS'Select the soil represented by the image ?'
p217
ag59
ag83
ag45
ag104
ag99
ag39
ag24
aS'Select the court represented by the image ?'
p218
ag24
ag67
ag107
ag39
aS'What type of partition is present in the image ?'
p219
ag24
aS'Select the vessel represented by the image ?'
p220
aS'What type of soft-finned fish is present in the image ?'
p221
ag27
ag39
ag27
ag82
ag27
aS'Select the boat represented by the image ?'
p222
ag93
ag191
ag37
ag36
ag70
ag167
aS'What type of container is present in the image ?'
p223
ag21
ag62
ag19
ag72
aS'Select the plain represented by the image ?'
p224
ag37
aS'Select the craft represented by the image ?'
p225
ag27
ag82
ag27
ag39
ag99
ag192
aS'What type of biome is present in the image ?'
p226
aS'Select the scenery represented by the image ?'
p227
aS'What type of woody plant is present in the image ?'
p228
aS'Select the division represented by the image ?'
p229
ag24
ag43
ag32
ag71
ag37
ag54
aS'What type of substance is present in the image ?'
p230
aS'What type of property is present in the image ?'
p231
aS'Select the furnishing represented by the image ?'
p232
ag52
ag187
ag141
aS'What type of motorboat is present in the image ?'
p233
ag71
ag24
ag68
aS'What type of court game is present in the image ?'
p234
ag12
ag93
ag94
ag24
ag25
ag107
ag90
ag15
aS'What type of atmosphere is present in the image ?'
p235
ag12
ag24
ag199
aS'Select the vegetation represented by the image ?'
p236
ag93
ag101
ag106
aS'What type of climb is present in the image ?'
p237
aS'Select the natural elevation represented by the image ?'
p238
ag70
ag67
ag27
ag209
ag17
aS'What type of physical phenomenon is present in the image ?'
p239
aS'Select the structure represented by the image ?'
p240
ag24
ag26
ag13
ag71
ag17
ag107
aS'Select the line represented by the image ?'
p241
ag81
ag104
aS'What type of organism is present in the image ?'
p242
ag194
aS'What type of trouser is present in the image ?'
p243
ag39
ag20
ag8
ag27
ag192
ag59
ag194
ag210
ag58
aS'What type of sculpture is present in the image ?'
p244
ag53
ag40
aS'Select the plant material represented by the image ?'
p245
ag22
ag58
aS'What type of graphic art is present in the image ?'
p246
ag89
aS'What type of auditory communication is present in the image ?'
p247
ag187
ag24
ag25
ag11
ag91
ag168
aS'Select the season represented by the image ?'
p248
ag86
ag124
aS'What type of object is present in the image ?'
p249
ag4
ag24
ag36
ag24
ag25
ag185
ag19
aS'What type of drawing is present in the image ?'
p250
ag28
ag45
ag24
ag181
ag13
ag122
ag70
ag101
ag164
ag27
ag89
ag22
ag89
ag81
ag13
ag8
aS'What type of wheeled vehicle is present in the image ?'
p251
ag36
ag244
ag12
ag17
ag187
ag34
ag84
ag52
ag12
ag17
ag108
ag65
aS'What type of soil is present in the image ?'
p252
ag164
ag27
aS'Select the place of worship represented by the image ?'
p253
aS'What type of equine is present in the image ?'
p254
aS'Select the horse represented by the image ?'
p255
aS'What type of vertebrate is present in the image ?'
p256
aS'Select the cattle represented by the image ?'
p257
ag27
ag39
ag22
ag248
ag107
ag191
ag17
ag4
ag37
aS'Select the car represented by the image ?'
p258
ag32
ag44
ag147
ag150
ag24
ag223
ag13
ag19
aS'What type of undertaking is present in the image ?'
p259
ag178
ag223
ag107
ag73
ag24
ag10
ag59
ag83
ag27
ag48
ag147
ag248
ag27
ag12
ag76
ag58
ag45
ag58
ag244
aS'Select the workplace represented by the image ?'
p260
ag93
ag217
aS'What type of attire is present in the image ?'
p261
ag187
ag249
aS'Select the plastic art represented by the image ?'
p262
ag24
ag36
aS'What type of body covering is present in the image ?'
p263
aS'Select the hair represented by the image ?'
p264
ag59
ag60
ag101
ag106
ag24
ag25
ag24
ag25
ag13
ag8
ag24
ag178
ag101
ag106
ag168
aS'Select the atmospheric phenomenon represented by the image ?'
p265
aS'What type of enterprise is present in the image ?'
p266
ag22
aS'Select the spectacles represented by the image ?'
p267
ag86
ag12
ag261
aS'What type of public square is present in the image ?'
p268
aS'What type of section is present in the image ?'
p269
ag43
ag24
ag138
aS'What type of oscine is present in the image ?'
p270
ag194
ag159
aS'Select the decoration represented by the image ?'
p271
aS'What type of outline is present in the image ?'
p272
ag36
ag62
ag67
ag37
ag220
ag70
ag167
ag13
aS'Select the military service represented by the image ?'
p273
aS'What type of plastic art is present in the image ?'
p274
ag39
aS'What type of device is present in the image ?'
p275
aS'Select the gambling house represented by the image ?'
p276
ag59
ag132
ag235
aS'Select the visual property represented by the image ?'
p277
aS'What type of area is present in the image ?'
p278
ag24
ag240
ag22
ag25
aS'What type of limb is present in the image ?'
p279
aS'Select the extremity represented by the image ?'
p280
ag59
ag60
ag11
ag12
ag1
ag39
ag24
ag257
aS'What type of motor is present in the image ?'
p281
ag38
ag86
ag28
ag24
ag91
ag37
ag214
aS'Select the old man represented by the image ?'
p282
ag27
ag33
ag1
ag39
ag223
ag4
ag159
ag84
aS'What type of spot is present in the image ?'
p283
ag148
ag37
aS'What type of front is present in the image ?'
p284
aS'Select the dwelling represented by the image ?'
p285
aS'What type of machine is present in the image ?'
p286
ag93
ag28
ag1
aS'Select the dinner represented by the image ?'
p287
aS'What type of photograph is present in the image ?'
p288
ag94
ag13
ag45
aS'Select the wit represented by the image ?'
p289
ag173
aS'Select the custom represented by the image ?'
p290
ag24
ag36
ag22
ag211
ag86
aS'Select the yard represented by the image ?'
p291
ag24
ag10
aS'What type of soldier is present in the image ?'
p292
ag238
aS'What type of visual property is present in the image ?'
p293
ag48
ag81
ag21
ag93
ag94
ag13
ag31
ag125
ag248
ag223
ag39
ag107
ag58
ag24
ag73
ag24
ag27
aS'Select the skilled worker represented by the image ?'
p294
ag24
ag25
ag99
aS'Select the marital status represented by the image ?'
p295
ag24
ag92
aS'What type of keyboard instrument is present in the image ?'
p296
ag84
ag22
ag27
ag33
ag27
ag39
ag86
ag142
ag39
ag251
ag8
ag223
aS'Select the substance represented by the image ?'
p297
ag11
ag71
ag159
ag38
ag24
aS'Select the ball game represented by the image ?'
p298
aS'What type of actinic radiation is present in the image ?'
p299
aS'Select the illumination represented by the image ?'
p300
ag81
ag2
aS'What type of life is present in the image ?'
p301
aS'Select the descend represented by the image ?'
p302
aS'What type of field is present in the image ?'
p303
ag115
ag151
ag8
ag17
ag10
ag9
ag71
ag11
ag12
ag59
ag60
aS'What type of meal is present in the image ?'
p304
ag99
ag39
aS'What type of mouth is present in the image ?'
p305
ag106
aS'What type of beverage is present in the image ?'
p306
aS'Select the spot represented by the image ?'
p307
ag214
ag248
ag274
ag13
ag14
aS'What type of dog is present in the image ?'
p308
ag60
ag22
aS'Select the attire represented by the image ?'
p309
ag47
ag70
ag58
ag118
ag99
aS'Select the auditory communication represented by the image ?'
p310
ag137
ag157
ag1
ag39
ag173
ag107
ag73
ag17
ag291
ag40
ag14
ag261
ag278
ag153
ag27
ag28
ag59
ag60
ag17
ag107
ag191
ag24
ag33
ag93
ag12
ag24
ag138
ag32
ag8
ag22
aS'Select the trouser represented by the image ?'
p311
ag17
ag157
ag9
ag198
aS'What type of vine is present in the image ?'
p312
ag12
ag24
ag124
ag24
ag150
ag24
ag187
ag137
ag12
ag24
aS'Select the brome represented by the image ?'
p313
ag101
ag8
ag59
ag194
ag24
ag181
ag37
ag209
aS'What type of consumption is present in the image ?'
p314
ag231
ag43
ag45
ag192
aS'What type of instrument is present in the image ?'
p315
ag262
ag18
aS'Select the ellipse represented by the image ?'
p316
ag101
ag106
ag173
ag27
ag39
ag230
ag2
ag11
ag12
ag70
ag67
ag24
ag99
ag58
ag27
ag39
ag24
ag61
ag59
ag60
ag45
ag48
aS'What type of festival is present in the image ?'
p317
ag158
ag109
ag213
ag45
ag73
ag27
ag8
ag9
ag58
ag80
ag12
ag283
aS'Select the popular music represented by the image ?'
p318
ag59
ag60
ag120
ag217
ag24
ag36
ag147
ag123
ag27
ag122
ag274
ag17
ag80
ag39
ag24
ag181
ag27
ag39
ag45
ag8
ag80
ag71
ag27
ag28
ag256
ag83
aS'What type of formation is present in the image ?'
p319
ag27
ag144
ag59
ag60
ag37
ag61
ag249
ag10
ag24
aS'Select the board represented by the image ?'
p320
ag59
ag194
ag27
aS'Select the locomotion represented by the image ?'
p321
ag24
ag218
ag11
aS'Select the rescue equipment represented by the image ?'
p322
ag86
ag28
ag45
ag58
ag251
ag8
ag86
aS'Select the environment represented by the image ?'
p323
ag70
ag192
ag29
aS'Select the wood represented by the image ?'
p324
ag17
ag117
ag278
ag153
ag24
ag217
aS'What type of criminal is present in the image ?'
p325
aS'Select the consumer goods represented by the image ?'
p326
ag9
ag50
ag173
ag22
ag71
ag37
aS'Select the motor represented by the image ?'
p327
ag17
ag85
ag22
ag48
ag80
ag85
ag49
ag71
ag75
ag25
ag17
ag4
ag11
ag12
ag29
ag119
ag27
ag39
ag223
ag297
aS'What type of dirtiness is present in the image ?'
p328
aS'Select the output represented by the image ?'
p329
ag22
aS"Select the woman's clothing represented by the image ?"
p330
ag261
ag187
ag101
ag106
ag37
ag73
ag185
ag27
ag304
ag27
ag94
ag59
ag60
ag17
ag19
ag1
aS'Select the speech represented by the image ?'
p331
aS'What type of land is present in the image ?'
p332
aS'Select the wetland represented by the image ?'
p333
ag269
ag71
ag17
ag8
ag107
aS'Select the community represented by the image ?'
p334
ag47
aS'What type of season is present in the image ?'
p335
ag174
ag24
ag25
ag27
ag278
ag21
ag9
aS'Select the path represented by the image ?'
p336
ag24
ag12
ag27
aS'Select the woman represented by the image ?'
p337
ag24
ag181
ag52
ag310
aS'What type of hour is present in the image ?'
p338
ag20
aS'What type of natural elevation is present in the image ?'
p339
ag238
ag24
ag178
ag22
ag277
ag64
ag36
ag93
ag169
ag27
ag67
ag101
ag106
aS'What type of geological phenomenon is present in the image ?'
p340
aS'Select the adversity represented by the image ?'
p341
ag64
ag44
ag99
ag192
ag230
aS'Select the ruminant represented by the image ?'
p342
aS'What type of art is present in the image ?'
p343
ag12
ag228
ag148
ag70
ag58
aS'What type of footwear is present in the image ?'
p344
ag12
ag101
ag248
ag107
ag191
ag27
ag39
aS'What type of gramineous plant is present in the image ?'
p345
ag12
ag24
aS'Select the martial art represented by the image ?'
p346
ag24
ag46
ag27
ag39
ag24
ag25
aS'What type of wit is present in the image ?'
p347
ag39
aS'What type of headdress is present in the image ?'
p348
ag326
ag11
ag12
ag22
ag203
ag252
ag73
ag62
ag41
ag93
ag217
ag32
ag44
ag24
ag25
ag24
ag181
ag27
ag59
ag60
ag339
ag61
ag45
ag187
ag70
ag4
ag343
ag303
ag48
ag226
ag224
ag109
aS'Select the music represented by the image ?'
p349
ag11
ag12
ag27
aS'Select the life science represented by the image ?'
p350
ag13
aS'Select the railway represented by the image ?'
p351
ag24
ag67
ag37
ag257
aS'What type of gun is present in the image ?'
p352
ag84
ag251
ag71
ag256
aS'Select the gallinaceous bird represented by the image ?'
p353
ag24
ag174
ag64
ag1
ag99
aS'Select the newlywed represented by the image ?'
p354
ag223
ag21
ag32
ag41
ag293
ag71
ag24
aS'Select the orthopterous insect represented by the image ?'
p355
ag22
ag172
ag24
ag58
ag137
ag187
ag17
ag28
ag125
ag248
ag24
ag181
ag70
ag167
ag249
aS'Select the comfort represented by the image ?'
p356
ag79
aS'Select the movable barrier represented by the image ?'
p357
ag80
ag122
aS'What type of painting is present in the image ?'
p358
ag198
ag86
ag28
ag24
ag25
ag37
ag187
ag27
ag82
ag252
aS'Select the verbal creation represented by the image ?'
p359
ag249
ag43
ag59
ag60
ag251
ag27
ag39
ag52
ag189
ag34
ag35
ag168
ag248
ag37
ag54
ag24
ag25
ag24
ag152
ag80
ag187
ag59
ag194
ag47
aS'Select the fragment represented by the image ?'
p360
ag70
ag337
ag251
ag59
ag60
ag142
ag143
ag24
ag27
ag28
ag274
aS'Select the sculpture represented by the image ?'
p361
ag74
ag234
ag12
ag27
ag203
ag9
ag71
ag74
ag336
ag45
ag39
ag86
aS'Select the dirtiness represented by the image ?'
p362
aS'What type of promotion is present in the image ?'
p363
ag187
ag149
ag150
ag24
ag39
ag352
ag109
ag58
ag93
ag94
ag37
ag61
ag263
ag264
ag11
ag12
ag343
ag48
ag37
ag61
aS'What type of conveyer belt is present in the image ?'
p364
ag201
ag1
ag67
ag99
ag132
ag24
aS'Select the hypothesis represented by the image ?'
p365
ag1
ag148
aS'What type of path is present in the image ?'
p366
aS'Select the walk represented by the image ?'
p367
ag1
ag2
ag72
ag94
aS'What type of brome is present in the image ?'
p368
ag10
ag13
ag31
ag22
ag58
ag251
ag12
ag99
ag17
ag22
ag309
ag107
ag73
ag52
ag187
ag52
ag53
ag45
ag238
ag210
ag83
ag80
ag41
ag27
aS'What type of city district is present in the image ?'
p369
aS'Select the buying represented by the image ?'
p370
ag251
ag12
ag317
ag187
aS'What type of child is present in the image ?'
p371
ag297
ag27
ag12
aS'What type of other is present in the image ?'
p372
ag25
ag5
ag73
ag101
ag194
ag22
ag124
ag223
ag297
aS'What type of swimming stroke is present in the image ?'
p373
ag12
ag137
ag12
ag70
aS'Select the bedroom furniture represented by the image ?'
p374
ag59
ag60
ag59
ag60
ag27
ag39
ag52
ag53
ag37
ag73
ag32
ag41
ag27
aS'What type of hotel is present in the image ?'
p375
ag201
aS'What type of dancer is present in the image ?'
p376
ag39
aS'What type of atmospheric phenomenon is present in the image ?'
p377
ag174
ag301
ag194
ag22
aS'Select the property represented by the image ?'
p378
ag328
ag88
ag37
ag73
ag75
ag12
ag372
ag73
ag109
ag17
ag9
ag198
ag24
ag86
ag45
ag78
ag199
ag236
ag126
ag240
ag24
ag203
ag328
ag4
ag17
ag109
ag203
ag24
ag346
aS'What type of production is present in the image ?'
p379
ag109
ag203
aS'What type of dead person is present in the image ?'
p380
ag45
ag33
ag45
ag307
ag1
ag148
ag168
ag8
ag52
ag53
ag251
ag12
ag27
aS'Select the limb represented by the image ?'
p381
ag93
ag191
ag24
ag355
ag343
ag12
ag101
aS'Select the european represented by the image ?'
p382
ag214
ag43
ag24
ag346
ag223
ag297
ag37
ag54
ag173
ag300
ag27
ag39
ag70
ag58
ag9
ag39
ag45
ag71
ag107
ag48
ag22
ag58
ag101
aS'Select the shepherd dog represented by the image ?'
p383
ag17
aS'Select the solid represented by the image ?'
p384
aS'What type of horseman is present in the image ?'
p385
ag36
ag17
ag41
ag52
ag53
ag59
ag109
ag213
aS'What type of sign is present in the image ?'
p386
ag240
ag17
ag45
ag53
ag24
aS'Select the male horse represented by the image ?'
p387
ag17
ag85
ag173
ag93
ag256
ag83
ag17
ag58
ag131
ag89
ag29
aS'Select the road represented by the image ?'
p388
ag45
aS'Select the building complex represented by the image ?'
p389
ag93
ag217
ag24
ag27
ag39
aS'What type of speech act is present in the image ?'
p390
ag335
aS'Select the animal skin represented by the image ?'
p391
ag256
ag257
ag11
ag12
ag52
ag189
ag80
ag48
ag93
ag73
ag125
aS'Select the basin represented by the image ?'
p392
ag24
ag101
aS'Select the equine represented by the image ?'
p393
ag80
ag187
ag27
ag82
ag358
ag53
ag11
ag181
ag17
ag8
aS'What type of water sport is present in the image ?'
p394
ag12
ag256
ag83
ag24
ag67
ag24
ag25
ag24
ag58
aS'What type of system is present in the image ?'
p395
aS'Select the creating from raw materials represented by the image ?'
p396
ag27
ag39
ag274
ag74
ag300
aS'What type of float is present in the image ?'
p397
ag20
ag73
ag159
ag14
ag27
ag367
ag22
ag309
ag17
aS'Select the burial chamber represented by the image ?'
p398
ag182
ag39
ag109
ag89
ag24
ag25
ag339
ag73
ag24
ag191
ag118
ag262
ag22
ag23
ag27
ag39
ag40
aS'Select the tower represented by the image ?'
p399
ag80
ag71
ag13
ag8
ag13
ag41
ag24
ag174
ag17
aS'What type of force is present in the image ?'
p400
ag39
ag27
ag27
ag12
aS'What type of point of view is present in the image ?'
p401
ag95
ag71
ag27
ag117
ag93
ag73
ag27
aS'Select the bowed stringed instrument represented by the image ?'
p402
ag17
ag157
ag251
ag71
aS'What type of martial art is present in the image ?'
p403
ag12
ag24
ag124
ag80
ag362
ag37
ag24
ag109
ag39
ag17
ag58
ag366
ag367
aS'What type of chemoreceptor is present in the image ?'
p404
ag264
ag24
ag69
ag27
ag12
ag24
ag172
ag99
ag264
ag278
ag12
ag24
ag46
ag40
ag232
ag263
ag264
ag173
ag45
ag89
ag151
ag82
aS'What type of creating from raw materials is present in the image ?'
p405
aS'Select the hoop represented by the image ?'
p406
ag107
ag58
ag37
ag70
ag27
ag39
ag251
ag71
ag109
ag213
aS'What type of creator is present in the image ?'
p407
ag158
ag32
ag44
ag24
ag220
aS'What type of product is present in the image ?'
p408
ag109
ag58
ag45
aS'Select the optical instrument represented by the image ?'
p409
ag278
ag153
ag79
ag27
ag365
ag27
ag381
ag137
ag39
ag168
ag248
ag339
ag238
ag49
ag11
ag12
aS'What type of workplace is present in the image ?'
p410
ag28
ag32
ag119
ag101
ag251
ag36
ag159
ag136
ag27
ag19
ag9
ag48
ag27
ag12
aS'What type of channel is present in the image ?'
p411
ag73
ag107
ag24
ag25
ag47
aS'Select the garment represented by the image ?'
p412
ag76
ag85
ag37
ag148
ag13
ag8
ag24
ag66
ag24
ag101
aS'Select the facial hair represented by the image ?'
p413
ag24
aS'Select the football play represented by the image ?'
p414
ag11
ag237
ag238
ag125
ag88
ag24
ag8
ag59
ag60
ag130
aS'Select the appearance represented by the image ?'
p415
ag22
ag53
ag110
aS'Select the bass represented by the image ?'
p416
ag274
ag27
ag39
ag52
ag53
ag24
ag10
ag101
ag106
ag223
ag297
ag80
ag67
ag86
ag28
ag93
ag73
ag263
ag33
ag17
ag85
ag168
ag39
ag45
ag4
ag37
aS'Select the small boat represented by the image ?'
p417
ag256
ag83
aS'What type of slope is present in the image ?'
p418
aS'Select the valley represented by the image ?'
p419
ag263
ag264
ag27
ag272
aS'Select the pictorial representation represented by the image ?'
p420
ag1
ag28
ag29
ag119
ag1
ag297
ag80
ag58
ag263
ag264
ag29
ag262
ag80
ag125
ag236
ag17
ag94
ag234
ag12
ag24
ag36
ag37
ag165
ag109
ag12
ag27
ag28
ag45
ag73
ag17
ag28
ag86
ag28
ag45
ag215
ag22
ag309
ag22
ag28
ag45
ag420
ag45
ag208
ag24
ag25
ag24
ag25
aS'What type of facial expression is present in the image ?'
p421
ag58
ag168
ag248
ag101
ag24
aS'Select the game represented by the image ?'
p422
ag24
ag222
ag141
ag58
ag1
ag148
ag59
ag52
ag53
ag159
ag39
ag101
ag17
ag37
ag77
ag78
ag45
ag48
ag171
ag150
ag101
ag106
ag37
ag61
ag45
ag43
ag101
ag159
ag361
aS'What type of protective covering is present in the image ?'
p423
aS'Select the religion represented by the image ?'
p424
ag86
ag150
ag27
ag39
ag45
ag71
ag423
ag88
ag22
ag58
ag214
ag234
ag12
ag86
ag47
ag12
ag24
aS'Select the mobilization represented by the image ?'
p425
ag27
ag39
ag27
aS'Select the horseman represented by the image ?'
p426
ag22
ag211
ag147
ag150
ag24
ag25
ag59
ag60
ag24
ag181
aS'What type of stream is present in the image ?'
p427
ag43
ag24
ag320
aS'What type of gymnastic apparatus is present in the image ?'
p428
ag58
aS'What type of outdoor game is present in the image ?'
p429
ag88
aS'What type of line is present in the image ?'
p430
ag224
ag24
ag86
ag88
ag173
ag267
ag263
ag58
ag214
ag43
ag22
ag48
ag142
ag71
aS'What type of consideration is present in the image ?'
p431
ag73
ag394
aS'Select the piece of cloth represented by the image ?'
p432
ag93
ag191
ag27
aS'Select the army unit represented by the image ?'
p433
ag93
ag191
ag24
ag26
ag27
ag39
ag252
ag101
ag106
ag86
ag60
ag80
ag41
ag24
ag181
ag17
ag14
ag261
ag22
ag58
ag24
ag69
ag24
ag36
ag247
ag84
ag64
ag50
ag109
ag38
ag22
ag267
ag70
ag27
ag39
ag20
ag177
ag159
ag12
ag27
ag33
ag107
ag73
ag101
ag224
ag278
ag206
ag1
ag90
ag5
ag69
ag22
ag33
ag59
ag60
ag75
ag25
ag17
ag73
ag299
aS'Select the framework represented by the image ?'
p434
ag24
ag196
ag24
ag157
ag228
aS'Select the reproductive structure represented by the image ?'
p435
ag11
ag48
ag86
ag58
ag59
ag60
aS'What type of upper surface is present in the image ?'
p436
ag173
ag203
ag59
ag60
ag24
ag173
ag84
aS'What type of even-toed ungulate is present in the image ?'
p437
ag227
ag24
ag25
ag199
aS'What type of environment is present in the image ?'
p438
aS'Select the ridge represented by the image ?'
p439
ag159
aS'Select the outdoor sport represented by the image ?'
p440
ag93
ag17
ag24
ag107
ag248
ag288
ag326
aS'What type of collection is present in the image ?'
p441
ag4
ag303
ag362
ag24
ag320
ag168
aS'What type of cooking is present in the image ?'
p442
ag125
ag73
ag24
aS'Select the natural object represented by the image ?'
p443
ag22
ag4
ag343
ag203
ag27
aS'Select the doctor represented by the image ?'
p444
ag37
aS'Select the golf stroke represented by the image ?'
p445
ag22
ag58
ag17
ag357
ag27
ag28
aS'What type of pointer is present in the image ?'
p446
ag60
ag254
ag217
ag131
ag53
aS'What type of dish is present in the image ?'
p447
aS'Select the food represented by the image ?'
p448
ag251
ag8
ag24
ag22
ag58
aS'What type of canopy is present in the image ?'
p449
ag174
ag24
ag313
ag24
ag69
ag11
ag58
ag101
ag106
ag59
ag337
ag59
ag60
ag57
ag58
ag256
ag192
ag27
aS'Select the speech act represented by the image ?'
p450
ag197
ag17
ag58
ag59
ag60
ag24
ag58
ag147
ag73
ag40
ag14
ag107
ag138
ag22
ag71
ag11
ag113
ag13
ag8
ag37
ag148
ag22
ag94
ag376
ag309
ag99
ag39
ag256
ag83
ag107
ag73
ag147
ag28
ag9
ag41
aS'What type of gully is present in the image ?'
p451
ag103
ag37
ag12
aS'What type of fire iron is present in the image ?'
p452
ag12
ag24
ag13
ag8
aS'What type of pachyderm is present in the image ?'
p453
ag194
ag37
aS'Select the tractor represented by the image ?'
p454
ag394
ag12
ag59
ag36
ag212
ag203
ag27
ag33
ag109
ag8
ag13
ag8
ag24
ag9
aS'Select the residential district represented by the image ?'
p455
ag37
ag220
ag86
ag12
ag101
ag106
ag32
ag44
ag335
ag43
ag59
ag60
ag27
ag28
ag159
ag12
ag219
ag421
ag415
ag24
ag25
ag254
ag60
ag24
aS'Select the cricketer represented by the image ?'
p456
ag9
ag10
ag49
aS'What type of preschool is present in the image ?'
p457
ag223
aS'Select the enterprise represented by the image ?'
p458
ag27
ag53
ag80
ag39
ag101
ag9
ag10
ag32
ag48
ag139
ag296
ag38
ag22
ag48
ag59
ag194
ag80
ag328
ag93
ag94
ag24
ag68
ag101
ag194
ag27
ag370
ag190
ag173
ag217
ag24
ag24
ag181
ag59
ag60
ag27
ag248
ag93
ag94
ag9
ag297
ag22
ag415
ag400
ag326
ag59
ag60
ag173
ag300
ag397
ag93
ag12
ag24
aS'Select the transport represented by the image ?'
p459
ag159
ag84
ag13
ag240
ag24
ag222
ag131
ag53
ag59
aS'Select the plant organ represented by the image ?'
p460
ag343
ag53
ag173
ag44
aS'What type of mammal family is present in the image ?'
p461
aS'Select the hunting dog represented by the image ?'
p462
ag27
ag136
aS'What type of building complex is present in the image ?'
p463
ag43
ag1
ag345
ag43
ag37
ag209
ag168
ag248
ag24
ag10
ag395
ag157
ag72
ag73
ag70
ag67
ag168
ag336
ag24
ag12
ag182
ag19
ag27
ag405
ag180
ag27
ag53
ag247
ag84
ag128
ag58
ag9
aS'Select the protective covering represented by the image ?'
p464
ag70
ag67
ag197
ag27
ag39
aS'What type of buying is present in the image ?'
p465
ag458
ag17
ag12
ag219
ag396
ag13
ag59
ag60
ag27
ag173
ag85
ag93
ag191
ag80
ag39
ag37
ag225
ag345
ag88
ag27
ag28
ag125
ag10
ag101
ag1
ag409
ag228
aS'Select the shelter represented by the image ?'
p466
ag107
ag277
ag99
ag84
aS'What type of tower is present in the image ?'
p467
ag148
ag70
ag58
ag86
ag39
ag49
ag24
ag381
ag24
ag425
ag27
ag82
ag305
ag60
ag107
ag201
aS'What type of vacation is present in the image ?'
p468
aS'Select the linear unit represented by the image ?'
p469
ag24
ag181
ag24
ag58
ag274
ag192
ag214
aS'What type of free-reed instrument is present in the image ?'
p470
ag27
ag273
ag80
aS'Select the forest represented by the image ?'
p471
ag173
ag85
aS'What type of skilled worker is present in the image ?'
p472
aS'Select the kabob represented by the image ?'
p473
ag317
ag39
ag62
aS'Select the shop represented by the image ?'
p474
ag1
ag2
ag27
ag2
ag27
ag172
ag463
ag448
ag93
ag8
ag275
ag303
ag46
ag249
ag28
ag24
ag36
ag24
ag36
ag27
ag24
ag53
ag93
ag94
ag231
aS'Select the house represented by the image ?'
p475
ag22
ag211
ag22
ag309
ag27
ag192
ag234
ag12
ag441
ag71
ag251
ag8
aS'What type of killer is present in the image ?'
p476
ag22
ag48
ag45
ag53
ag107
ag321
ag45
ag71
ag27
ag192
ag13
ag58
ag27
ag28
ag9
ag85
ag27
ag39
aS'What type of linear unit is present in the image ?'
p477
ag115
ag5
ag28
ag24
ag119
ag185
aS'Select the footrace represented by the image ?'
p478
ag93
ag94
ag37
ag54
ag29
ag119
ag24
ag321
ag159
ag189
ag80
ag58
ag22
ag58
ag45
ag154
ag45
ag43
ag407
ag203
aS'What type of hoop is present in the image ?'
p479
ag8
ag57
ag71
ag9
ag71
aS'What type of carnivore is present in the image ?'
p480
ag194
ag347
ag53
ag22
ag94
ag37
ag78
ag37
aS'Select the hose represented by the image ?'
p481
ag168
ag248
ag32
ag39
ag24
ag91
ag99
ag12
ag40
aS'Select the upper surface represented by the image ?'
p482
ag27
ag39
ag107
ag211
ag52
ag53
ag1
ag2
ag37
ag19
ag66
ag469
ag24
ag36
ag27
ag39
ag137
ag8
ag17
ag467
aS'Select the physical phenomenon represented by the image ?'
p483
ag99
aS'Select the ceremony represented by the image ?'
p484
ag80
ag58
ag37
ag54
ag17
ag28
ag22
ag71
ag42
ag297
ag99
ag203
ag17
ag460
ag256
ag192
ag32
ag12
ag256
ag60
ag42
ag389
ag42
ag41
ag24
ag58
ag22
ag415
ag47
ag291
ag24
ag103
ag59
ag60
ag107
ag45
ag179
ag33
ag301
aS'Select the land represented by the image ?'
p485
ag13
ag277
ag147
ag12
ag93
ag12
ag70
ag28
ag59
ag60
ag301
ag43
aS'What type of feline is present in the image ?'
p486
ag67
aS'What type of plant organ is present in the image ?'
p487
ag4
ag80
ag187
ag137
ag8
aS'What type of building material is present in the image ?'
p488
ag464
ag22
ag48
ag27
ag261
ag27
ag28
ag13
ag8
ag142
ag399
ag80
ag41
ag301
ag16
ag24
aS'Select the waterway represented by the image ?'
p489
ag24
ag10
ag17
ag85
ag99
ag33
ag99
ag58
ag22
ag48
ag52
ag252
aS'What type of occupational group is present in the image ?'
p490
ag58
ag173
aS'What type of thoroughfare is present in the image ?'
p491
ag266
ag21
ag34
ag213
ag24
ag46
ag256
ag83
ag228
aS'Select the bird family represented by the image ?'
p492
ag173
ag108
ag17
aS'What type of figure is present in the image ?'
p493
aS'Select the promotion represented by the image ?'
p494
ag107
ag109
ag310
ag27
aS'Select the religious represented by the image ?'
p495
ag251
ag203
ag80
ag86
ag167
ag47
ag154
ag17
ag85
ag411
aS'Select the stream represented by the image ?'
p496
ag37
ag31
ag70
ag39
ag17
ag361
ag24
ag25
ag27
ag39
ag17
ag21
ag27
ag12
ag40
ag441
ag455
ag93
ag73
aS'What type of field game is present in the image ?'
p497
ag12
ag27
ag33
ag107
ag148
ag256
aS'Select the mouth represented by the image ?'
p498
ag261
ag1
ag2
ag24
ag181
ag306
ag58
ag86
ag299
ag300
ag27
ag39
ag335
ag45
ag71
aS'What type of decoration is present in the image ?'
p499
ag53
ag93
ag220
ag70
ag58
ag109
ag58
ag254
ag387
ag303
ag8
ag45
ag67
ag22
aS'Select the stage dancing represented by the image ?'
p500
ag45
ag262
aS'What type of cattle is present in the image ?'
p501
ag122
ag99
ag354
ag80
ag39
ag114
ag399
ag446
ag60
ag17
ag85
ag251
ag8
ag52
ag187
ag22
ag309
ag13
ag58
ag147
ag27
aS'Select the motion represented by the image ?'
p502
ag22
aS'Select the skirt represented by the image ?'
p503
ag59
ag60
ag99
ag70
ag290
ag343
ag53
ag214
ag330
aS'What type of body part is present in the image ?'
p504
ag7
ag8
ag394
ag12
ag99
ag39
aS'What type of glass is present in the image ?'
p505
ag8
ag27
ag82
ag13
ag73
ag339
ag94
ag303
ag192
ag80
ag58
aS'What type of cycling is present in the image ?'
p506
ag8
ag17
ag41
ag24
aS'Select the barrier represented by the image ?'
p507
ag74
ag148
ag37
ag225
aS'What type of rock is present in the image ?'
p508
aS'Select the climb represented by the image ?'
p509
ag246
ag14
ag22
ag48
ag70
ag67
ag210
ag169
aS'What type of completion is present in the image ?'
p510
aS'Select the psychological feature represented by the image ?'
p511
ag93
ag191
ag27
ag25
ag59
ag194
ag411
ag8
ag131
ag409
ag45
ag48
ag173
aS'Select the actinic radiation represented by the image ?'
p512
ag17
ag58
ag107
ag39
ag37
ag54
ag335
ag12
ag22
ag309
ag13
aS'Select the article represented by the image ?'
p513
ag27
ag196
ag76
ag85
ag24
ag73
ag93
ag191
ag107
ag39
ag256
ag83
ag52
ag85
aS'What type of spectacles is present in the image ?'
p514
ag409
ag45
ag12
ag251
aS'Select the deceive represented by the image ?'
p515
ag27
aS'Select the percussion instrument represented by the image ?'
p516
ag340
ag341
ag252
ag58
ag27
ag196
ag81
ag2
ag101
ag106
ag11
ag19
ag32
ag39
ag24
ag69
ag24
aS'Select the contact sport represented by the image ?'
p517
ag24
aS'Select the sound property represented by the image ?'
p518
ag147
ag28
ag22
ag187
ag24
ag61
ag32
ag51
ag9
ag39
ag125
ag277
ag304
ag21
ag27
ag39
ag101
ag106
ag118
ag266
aS'Select the grocery store represented by the image ?'
p519
ag22
ag28
ag24
ag157
ag45
ag71
ag27
ag33
ag27
ag12
ag27
ag39
ag24
ag367
ag59
ag60
aS'What type of animal skin is present in the image ?'
p520
ag263
ag132
ag59
ag60
ag93
ag28
ag45
ag203
ag52
ag310
ag24
aS'Select the cheer represented by the image ?'
p521
ag24
ag494
ag22
ag58
aS'What type of aerosol is present in the image ?'
p522
ag123
ag506
ag8
ag22
ag309
ag64
ag58
ag249
ag61
ag24
ag157
ag159
aS'Select the visual communication represented by the image ?'
p523
ag27
ag35
ag24
ag25
ag99
ag192
ag93
ag8
ag24
ag25
aS'What type of outdoor sport is present in the image ?'
p524
ag8
ag9
aS'Select the position represented by the image ?'
p525
ag24
ag10
ag64
ag12
ag52
ag58
ag24
ag25
ag52
ag53
ag70
ag58
ag24
ag222
ag24
ag174
ag17
ag4
ag22
ag291
ag27
ag48
ag125
ag73
ag20
ag440
ag109
ag213
ag86
ag69
ag107
aS'What type of plumbing fixture is present in the image ?'
p526
aS'What type of conflagration is present in the image ?'
p527
aS'Select the happening represented by the image ?'
p528
ag37
ag122
ag228
ag108
ag24
ag17
aS'Select the organization represented by the image ?'
p529
ag7
ag61
ag468
ag27
ag84
ag27
ag24
ag298
ag7
ag8
ag32
ag122
ag228
ag232
ag11
ag12
ag59
ag194
ag228
ag88
ag491
aS'Select the clue represented by the image ?'
p530
ag99
ag58
aS'What type of signboard is present in the image ?'
p531
ag494
ag1
ag2
ag107
ag73
ag386
ag297
ag93
ag8
ag173
ag300
ag37
ag284
ag494
ag45
ag67
ag64
ag262
ag99
aS'Select the hour represented by the image ?'
p532
aS'What type of hair is present in the image ?'
p533
ag337
ag22
ag309
ag251
ag27
ag82
ag49
ag1
aS'Select the education represented by the image ?'
p534
ag343
ag58
ag24
ag181
ag24
ag27
aS'Select the feat represented by the image ?'
p535
ag45
ag208
ag101
ag194
ag70
ag80
ag39
ag37
ag384
ag293
ag48
ag305
ag194
ag223
ag297
ag159
ag187
ag369
ag143
ag34
ag35
ag24
ag298
ag109
aS'Select the musical organization represented by the image ?'
p536
ag17
ag240
ag24
ag181
aS'What type of car is present in the image ?'
p537
ag54
ag37
ag154
aS'What type of swimmer is present in the image ?'
p538
ag138
ag173
ag251
ag271
ag231
ag88
ag45
aS'Select the partition represented by the image ?'
p539
ag34
ag512
ag223
ag21
ag24
ag25
ag32
ag19
ag70
ag534
ag24
ag10
ag332
ag238
ag1
ag2
ag37
ag54
ag159
ag22
ag172
aS'What type of optical instrument is present in the image ?'
p540
ag220
ag52
ag187
ag109
ag189
ag95
ag119
ag24
ag67
ag149
ag8
ag339
ag509
ag27
ag33
ag173
ag8
ag1
ag458
ag15
aS'Select the course represented by the image ?'
p541
ag13
ag27
ag89
ag24
ag181
ag27
ag82
ag24
aS'Select the cycling represented by the image ?'
p542
ag137
ag12
ag263
ag264
ag24
ag138
ag24
ag393
ag256
ag83
ag27
ag381
ag470
ag213
aS'What type of plain is present in the image ?'
p543
ag19
ag254
aS'Select the farm represented by the image ?'
p544
ag22
ag53
ag11
ag12
aS'What type of hypothesis is present in the image ?'
p545
ag33
ag230
ag21
aS'What type of motion is present in the image ?'
p546
ag232
ag168
ag248
ag431
aS'What type of region is present in the image ?'
p547
ag539
ag27
ag55
ag59
ag60
ag24
ag328
ag329
ag22
aS'Select the dancer represented by the image ?'
p548
ag32
ag41
ag45
ag48
ag17
ag337
ag214
ag237
ag174
ag283
ag337
ag256
ag83
ag70
ag67
ag101
ag106
aS'What type of athlete is present in the image ?'
p549
ag337
ag59
ag119
ag22
ag48
ag24
ag178
ag37
ag39
ag32
ag198
ag251
ag8
ag22
ag67
ag531
ag494
ag17
ag85
ag159
ag187
ag37
ag66
ag148
ag27
ag309
ag59
ag60
ag22
ag381
ag59
ag209
ag24
ag27
ag331
ag59
ag60
ag293
ag48
ag173
aS'What type of digit is present in the image ?'
p550
aS'Select the articulator represented by the image ?'
p551
ag182
ag450
ag93
ag192
ag59
ag60
ag37
ag157
ag59
ag60
ag32
ag51
ag159
ag27
aS'Select the writing represented by the image ?'
p552
ag27
ag512
aS'What type of portable computer is present in the image ?'
p553
ag359
ag32
ag122
ag27
ag381
ag37
ag262
ag32
ag44
ag24
ag58
ag249
ag73
ag37
ag54
ag13
ag8
ag24
ag61
ag80
ag187
ag223
ag52
ag53
ag34
ag84
ag263
ag264
ag17
ag59
ag60
ag24
ag320
ag37
ag61
ag259
ag73
ag263
ag264
ag32
ag8
ag24
ag45
ag58
ag11
ag12
ag228
ag94
ag27
ag38
ag254
ag194
ag99
ag58
ag80
ag39
ag17
ag134
ag27
ag39
ag24
ag298
ag27
ag39
ag159
ag440
ag45
ag71
ag93
ag191
ag214
ag297
ag99
ag409
ag86
ag154
ag13
ag39
ag32
ag44
aS'What type of concave shape is present in the image ?'
p554
ag201
ag159
ag512
ag147
ag123
ag27
ag82
ag66
ag94
ag24
ag91
ag22
ag4
ag1
ag2
ag24
ag25
ag127
ag12
ag59
ag60
ag37
ag209
ag266
ag27
ag82
ag185
ag389
ag17
ag99
ag192
ag109
ag159
ag84
ag1
aS'What type of performance is present in the image ?'
p555
ag203
ag62
ag94
ag524
ag53
ag80
ag58
aS'What type of movable barrier is present in the image ?'
p556
ag24
ag36
ag37
ag69
ag5
ag8
ag24
ag86
ag46
ag27
ag48
ag70
ag85
ag159
ag12
ag1
ag2
ag109
ag21
ag386
ag494
ag32
ag44
ag151
ag12
ag59
ag60
ag363
ag458
a.