(lp0
S'What is the person in the image wearing and What is the type of scene present in the image ?'
p1
aS'What is the type of scene present in the image and Which of the following is present in the image ?'
p2
aS'Select the type of scene present in the image and Which of the following is present in the image ?'
p3
aS'Which of the following is present in the image and How many people are present in the image ?'
p4
aS'Which of the following is present in the image and How many people are present in the image ?'
p5
aS'How many people are present in the image and Which of the following is present in the image ?'
p6
aS'Which of the following is present in the image and What is the type of scene present in the image ?'
p7
aS'Which of the following is present in the image and What is the type of scene present in the image ?'
p8
aS'Which of the following is present in the image and What is the type of scene present in the image ?'
p9
aS'Which of the following is present in the image and What is the type of scene present in the image ?'
p10
aS'What is the type of scene present in the image and Which of the following is present in the image ?'
p11
aS'Which of the following is present in the image and Select the type of scene present in the image ?'
p12
aS'Which of the following is present in the image and Select the type of scene present in the image ?'
p13
aS'Which of the following is present in the image and Select the type of scene present in the image ?'
p14
aS'Select the type of scene present in the image and What is the person in the image wearing ?'
p15
aS'What is the person in the image wearing and Which of the following is present in the image ?'
p16
aS'Which of the following is present in the image and What is the type of scene present in the image ?'
p17
aS'Which of the following is present in the image and What is the type of scene present in the image ?'
p18
aS'What is the type of scene present in the image and Which of the following is present in the image ?'
p19
aS'Which of the following is present in the image and Select the type of scene present in the image ?'
p20
aS'Select the type of scene present in the image and What is the person in the image wearing ?'
p21
aS'What is the person in the image wearing and Which of the following is present in the image ?'
p22
aS'Which of the following is present in the image and Which type of vehicle(s) are present in the image ?'
p23
aS'Which type of vehicle(s) are present in the image and What is the person in the image wearing ?'
p24
aS'What is the person in the image wearing and Which of the following is present in the image ?'
p25
aS'Which of the following is present in the image and What is the type of scene present in the image ?'
p26
aS'What is the type of scene present in the image and What is the person in the image wearing ?'
p27
aS'What is the person in the image wearing and Which of the following is present in the image ?'
p28
aS'Which of the following is present in the image and What is the person in the image wearing ?'
p29
aS'Which of the following is present in the image and What is the person in the image wearing ?'
p30
aS'Which of the following is present in the image and What is the person in the image wearing ?'
p31
aS'Which of the following is present in the image and What is the person in the image wearing ?'
p32
aS'What is the person in the image wearing and Which of the following is present in the image ?'
p33
aS'Which of the following is present in the image and Select the type of scene present in the image ?'
p34
aS'Which of the following is present in the image and Select the type of scene present in the image ?'
p35
aS'Select the type of scene present in the image and Which of the following is present in the image ?'
p36
aS'Which of the following is present in the image and What is the type of scene present in the image ?'
p37
aS'What is the type of scene present in the image and Which of the following is present in the image ?'
p38
aS'Which of the following is present in the image and Select the type of scene present in the image ?'
p39
aS'Which of the following is present in the image and Select the type of scene present in the image ?'
p40
aS'Which of the following is present in the image and Select the type of scene present in the image ?'
p41
aS'Select the type of scene present in the image and Which of the following is present in the image ?'
p42
aS'What is the type of scene present in the image and Which of the following is present in the image ?'
p43
aS'Which of the following is present in the image and How many people are present in the image ?'
p44
aS'Which of the following is present in the image and How many people are present in the image ?'
p45
aS'Which of the following is present in the image and How many people are present in the image ?'
p46
aS'How many people are present in the image and Select the type of scene present in the image ?'
p47
aS'Select the type of scene present in the image and Which of the following is present in the image ?'
p48
aS'Which of the following is present in the image and What is the type of scene present in the image ?'
p49
aS'What is the type of scene present in the image and Which of the following is present in the image ?'
p50
aS'Which of the following is present in the image and What is the person in the image wearing ?'
p51
aS'What is the person in the image wearing and Which type of vehicle(s) are present in the image ?'
p52
aS'Which type of vehicle(s) are present in the image and Select the type of scene present in the image ?'
p53
aS'Select the type of scene present in the image and Which of the following is present in the image ?'
p54
aS'Which of the following is present in the image and Which type of vehicle(s) are present in the image ?'
p55
aS'Which of the following is present in the image and Which type of vehicle(s) are present in the image ?'
p56
aS'Which of the following is present in the image and Which type of vehicle(s) are present in the image ?'
p57
aS'Which type of vehicle(s) are present in the image and What is the type of scene present in the image ?'
p58
aS'What is the type of scene present in the image and What is the person in the image wearing ?'
p59
aS'What is the person in the image wearing and Which of the following is present in the image ?'
p60
aS'Which of the following is present in the image and Select the type of scene present in the image ?'
p61
aS'Which of the following is present in the image and Select the type of scene present in the image ?'
p62
aS'Which of the following is present in the image and Select the type of scene present in the image ?'
p63
aS'Which of the following is present in the image and Select the type of scene present in the image ?'
p64
aS'Which of the following is present in the image and Select the type of scene present in the image ?'
p65
aS'Which of the following is present in the image and Select the type of scene present in the image ?'
p66
aS'Which of the following is present in the image and Select the type of scene present in the image ?'
p67
aS'Select the type of scene present in the image and Which of the following is present in the image ?'
p68
aS'Which of the following is present in the image and What is the person in the image wearing ?'
p69
aS'What is the person in the image wearing and Which of the following is present in the image ?'
p70
aS'Which of the following is present in the image and What is the person in the image wearing ?'
p71
aS'What is the person in the image wearing and Which of the following is present in the image ?'
p72
aS'Which of the following is present in the image and What is the person in the image wearing ?'
p73
aS'What is the person in the image wearing and Which of the following is present in the image ?'
p74
aS'Which of the following is present in the image and What is the type of scene present in the image ?'
p75
aS'Which of the following is present in the image and What is the type of scene present in the image ?'
p76
aS'Which of the following is present in the image and What is the type of scene present in the image ?'
p77
aS'What is the type of scene present in the image and Which of the following is present in the image ?'
p78
aS'Which of the following is present in the image and What is the person in the image wearing ?'
p79
aS'What is the person in the image wearing and Select the type of scene present in the image ?'
p80
aS'Select the type of scene present in the image and Which of the following is present in the image ?'
p81
aS'Which of the following is present in the image and How many people are present in the image ?'
p82
aS'How many people are present in the image and Which of the following is present in the image ?'
p83
aS'Which of the following is present in the image and What is the person in the image wearing ?'
p84
aS'What is the person in the image wearing and How many people are present in the image ?'
p85
aS'What is the person in the image wearing and How many people are present in the image ?'
p86
aS'How many people are present in the image and Which of the following is present in the image ?'
p87
aS'Which of the following is present in the image and What is the type of scene present in the image ?'
p88
aS'What is the type of scene present in the image and Select the type of bodyparts present in the image ?'
p89
aS'Select the type of scene present in the image and Select the type of bodyparts present in the image ?'
p90
aS'What is the type of scene present in the image and Select the type of bodyparts present in the image ?'
p91
aS'Select the type of bodyparts present in the image and What is the person in the image wearing ?'
p92
aS'What is the person in the image wearing and Which of the following is present in the image ?'
p93
aS'What is the person in the image wearing and Which of the following is present in the image ?'
p94
aS'Which of the following is present in the image and What is the type of bodyparts present in the image ?'
p95
aS'What is the type of bodyparts present in the image and Select the type of scene present in the image ?'
p96
aS'Select the type of scene present in the image and What is the person in the image wearing ?'
p97
aS'What is the person in the image wearing and What is the type of scene present in the image ?'
p98
aS'What is the type of scene present in the image and Which of the following is present in the image ?'
p99
aS'Which of the following is present in the image and How many people are present in the image ?'
p100
aS'Which of the following is present in the image and How many people are present in the image ?'
p101
aS'How many people are present in the image and Select the type of scene present in the image ?'
p102
aS'Select the type of scene present in the image and Which of the following is present in the image ?'
p103
aS'Which of the following is present in the image and What is the person in the image wearing ?'
p104
aS'Which of the following is present in the image and What is the person in the image wearing ?'
p105
aS'Which of the following is present in the image and What is the person in the image wearing ?'
p106
aS'Which of the following is present in the image and What is the person in the image wearing ?'
p107
aS'What is the person in the image wearing and What is the type of scene present in the image ?'
p108
aS'What is the type of scene present in the image and What is the person in the image wearing ?'
p109
aS'What is the person in the image wearing and How many people are present in the image ?'
p110
aS'How many people are present in the image and Select the type of scene present in the image ?'
p111
aS'Select the type of scene present in the image and Which of the following is present in the image ?'
p112
aS'What is the type of scene present in the image and Which of the following is present in the image ?'
p113
aS'Which of the following is present in the image and What is the person in the image wearing ?'
p114
aS'What is the person in the image wearing and Which of the following is present in the image ?'
p115
aS'Which of the following is present in the image and Select the type of scene present in the image ?'
p116
aS'Select the type of scene present in the image and What is the person in the image wearing ?'
p117
aS'What is the type of scene present in the image and What is the person in the image wearing ?'
p118
aS'What is the person in the image wearing and Which of the following is present in the image ?'
p119
aS'Which of the following is present in the image and Select the type of scene present in the image ?'
p120
aS'Which of the following is present in the image and Select the type of scene present in the image ?'
p121
aS'Select the type of scene present in the image and Which of the following is present in the image ?'
p122
aS'Which of the following is present in the image and What is the person in the image wearing ?'
p123
aS'What is the person in the image wearing and Which of the following is present in the image ?'
p124
aS'What is the person in the image wearing and Which of the following is present in the image ?'
p125
aS'What is the person in the image wearing and Which of the following is present in the image ?'
p126
aS'Which of the following is present in the image and What is the person in the image wearing ?'
p127
aS'Which of the following is present in the image and What is the person in the image wearing ?'
p128
aS'Which of the following is present in the image and What is the person in the image wearing ?'
p129
aS'What is the person in the image wearing and Which of the following is present in the image ?'
p130
aS'Which of the following is present in the image and What is the type of scene present in the image ?'
p131
aS'Which of the following is present in the image and What is the type of scene present in the image ?'
p132
aS'What is the type of scene present in the image and Which of the following is present in the image ?'
p133
aS'Which of the following is present in the image and Select the type of scene present in the image ?'
p134
aS'Select the type of scene present in the image and Which of the following is present in the image ?'
p135
aS'What is the type of scene present in the image and Which of the following is present in the image ?'
p136
aS'Which of the following is present in the image and What is the person in the image wearing ?'
p137
aS'What is the person in the image wearing and Which of the following is present in the image ?'
p138
aS'Which of the following is present in the image and What is the person in the image wearing ?'
p139
aS'Which of the following is present in the image and What is the person in the image wearing ?'
p140
aS'What is the person in the image wearing and Which of the following is present in the image ?'
p141
aS'Which of the following is present in the image and Which type of vehicle(s) are present in the image ?'
p142
aS'Which type of vehicle(s) are present in the image and How many people are present in the image ?'
p143
aS'Which type of vehicle(s) are present in the image and How many people are present in the image ?'
p144
aS'How many people are present in the image and Which of the following is present in the image ?'
p145
aS'Which of the following is present in the image and How many people are present in the image ?'
p146
aS'How many people are present in the image and Which of the following is present in the image ?'
p147
aS'Which of the following is present in the image and Select the type of scene present in the image ?'
p148
aS'Select the type of scene present in the image and How many people are present in the image ?'
p149
aS'What is the type of scene present in the image and How many people are present in the image ?'
p150
aS'How many people are present in the image and Which of the following is present in the image ?'
p151
aS'Which of the following is present in the image and What is the person in the image wearing ?'
p152
aS'What is the person in the image wearing and Which of the following is present in the image ?'
p153
aS'Which of the following is present in the image and What is the person in the image wearing ?'
p154
aS'Which of the following is present in the image and What is the person in the image wearing ?'
p155
aS'What is the person in the image wearing and Which of the following is present in the image ?'
p156
aS'Which of the following is present in the image and Select the type of scene present in the image ?'
p157
aS'Select the type of scene present in the image and What is the person in the image wearing ?'
p158
aS'What is the type of scene present in the image and What is the person in the image wearing ?'
p159
aS'What is the person in the image wearing and Select the type of scene present in the image ?'
p160
aS'Select the type of scene present in the image and Which of the following is present in the image ?'
p161
aS'Which of the following is present in the image and What is the type of scene present in the image ?'
p162
aS'Which of the following is present in the image and What is the type of scene present in the image ?'
p163
aS'Which of the following is present in the image and What is the type of scene present in the image ?'
p164
aS'Which of the following is present in the image and What is the type of scene present in the image ?'
p165
aS'What is the type of scene present in the image and Which of the following is present in the image ?'
p166
aS'Which of the following is present in the image and What is the person in the image wearing ?'
p167
aS'What is the person in the image wearing and Which of the following is present in the image ?'
p168
aS'Which of the following is present in the image and What is the person in the image wearing ?'
p169
aS'What is the person in the image wearing and Which of the following is present in the image ?'
p170
aS'Which of the following is present in the image and Select the type of bodyparts present in the image ?'
p171
aS'Select the type of bodyparts present in the image and Which of the following is present in the image ?'
p172
aS'Which of the following is present in the image and What is the type of scene present in the image ?'
p173
aS'Which of the following is present in the image and What is the type of scene present in the image ?'
p174
aS'Which of the following is present in the image and What is the type of scene present in the image ?'
p175
aS'What is the type of scene present in the image and What is the person in the image wearing ?'
p176
aS'What is the person in the image wearing and Which of the following is present in the image ?'
p177
aS'Which of the following is present in the image and Select the type of bodyparts present in the image ?'
p178
aS'Select the type of bodyparts present in the image and What is the type of scene present in the image ?'
p179
aS'What is the type of scene present in the image and Select the type of instruments present in the image ?'
p180
aS'Select the type of instruments present in the image and What is the person in the image wearing ?'
p181
aS'What is the person in the image wearing and Which of the following is present in the image ?'
p182
aS'Which of the following is present in the image and What is the person in the image wearing ?'
p183
aS'Which of the following is present in the image and What is the person in the image wearing ?'
p184
aS'What is the person in the image wearing and Which of the following is present in the image ?'
p185
aS'Which of the following is present in the image and What is the person in the image wearing ?'
p186
aS'What is the person in the image wearing and Which of the following is present in the image ?'
p187
aS'Which of the following is present in the image and What is the type of scene present in the image ?'
p188
aS'Which of the following is present in the image and What is the type of scene present in the image ?'
p189
aS'Which of the following is present in the image and What is the type of scene present in the image ?'
p190
aS'Which of the following is present in the image and What is the type of scene present in the image ?'
p191
aS'What is the type of scene present in the image and Which of the following is present in the image ?'
p192
aS'Select the type of scene present in the image and Which of the following is present in the image ?'
p193
aS'Which of the following is present in the image and What is the person in the image wearing ?'
p194
aS'What is the person in the image wearing and Which type of vehicle(s) are present in the image ?'
p195
aS'Which type of vehicle(s) are present in the image and Which of the following is present in the image ?'
p196
aS'Which of the following is present in the image and What is the person in the image wearing ?'
p197
aS'Which of the following is present in the image and What is the person in the image wearing ?'
p198
aS'What is the person in the image wearing and Which of the following is present in the image ?'
p199
aS'Which of the following is present in the image and What is the person in the image wearing ?'
p200
aS'What is the person in the image wearing and What is the type of scene present in the image ?'
p201
aS'What is the person in the image wearing and What is the type of scene present in the image ?'
p202
aS'What is the type of scene present in the image and Which of the following is present in the image ?'
p203
aS'Which of the following is present in the image and What is the person in the image wearing ?'
p204
aS'Which of the following is present in the image and What is the person in the image wearing ?'
p205
aS'Which of the following is present in the image and What is the person in the image wearing ?'
p206
aS'Which of the following is present in the image and What is the person in the image wearing ?'
p207
aS'Which of the following is present in the image and What is the person in the image wearing ?'
p208
aS'What is the person in the image wearing and Which of the following is present in the image ?'
p209
aS'Which of the following is present in the image and What is the person in the image wearing ?'
p210
aS'What is the person in the image wearing and Which of the following is present in the image ?'
p211
aS'Which of the following is present in the image and Select the type of scene present in the image ?'
p212
aS'Which of the following is present in the image and Select the type of scene present in the image ?'
p213
aS'Which of the following is present in the image and Select the type of scene present in the image ?'
p214
aS'Which of the following is present in the image and Select the type of scene present in the image ?'
p215
aS'Select the type of scene present in the image and What is the person in the image wearing ?'
p216
aS'What is the type of scene present in the image and What is the person in the image wearing ?'
p217
aS'What is the person in the image wearing and Which of the following is present in the image ?'
p218
aS'Which of the following is present in the image and Select the type of instruments present in the image ?'
p219
aS'Which of the following is present in the image and Select the type of instruments present in the image ?'
p220
aS'Select the type of instruments present in the image and What is the type of scene present in the image ?'
p221
aS'What is the type of scene present in the image and What is the person in the image wearing ?'
p222
aS'What is the person in the image wearing and Which of the following is present in the image ?'
p223
aS'Which of the following is present in the image and What is the person in the image wearing ?'
p224
aS'Which of the following is present in the image and What is the person in the image wearing ?'
p225
aS'What is the person in the image wearing and Which of the following is present in the image ?'
p226
aS'What is the person in the image wearing and Which of the following is present in the image ?'
p227
aS'Which of the following is present in the image and Select the type of scene present in the image ?'
p228
aS'Which of the following is present in the image and Select the type of scene present in the image ?'
p229
aS'Which of the following is present in the image and Select the type of scene present in the image ?'
p230
aS'Select the type of scene present in the image and Which of the following is present in the image ?'
p231
aS'Which of the following is present in the image and What is the type of scene present in the image ?'
p232
aS'What is the type of scene present in the image and Which of the following is present in the image ?'
p233
aS'Which of the following is present in the image and Select the type of instruments present in the image ?'
p234
aS'Which of the following is present in the image and Select the type of instruments present in the image ?'
p235
aS'Which of the following is present in the image and Select the type of instruments present in the image ?'
p236
aS'Select the type of instruments present in the image and Which of the following is present in the image ?'
p237
aS'Which of the following is present in the image and What is the type of scene present in the image ?'
p238
aS'Which of the following is present in the image and What is the type of scene present in the image ?'
p239
aS'What is the type of scene present in the image and Which of the following is present in the image ?'
p240
aS'Which of the following is present in the image and What is the person in the image wearing ?'
p241
aS'What is the person in the image wearing and Select the type of bodyparts present in the image ?'
p242
aS'Select the type of bodyparts present in the image and What is the type of scene present in the image ?'
p243
aS'What is the type of scene present in the image and What is the type of instruments present in the image ?'
p244
aS'Select the type of scene present in the image and What is the type of instruments present in the image ?'
p245
aS'What is the type of instruments present in the image and Select the type of scene present in the image ?'
p246
aS'Select the type of scene present in the image and What is the type of bodyparts present in the image ?'
p247
aS'What is the type of bodyparts present in the image and Which of the following is present in the image ?'
p248
aS'Which of the following is present in the image and Select the type of scene present in the image ?'
p249
aS'Select the type of scene present in the image and Select the type of bodyparts present in the image ?'
p250
aS'What is the type of scene present in the image and Select the type of bodyparts present in the image ?'
p251
aS'Select the type of bodyparts present in the image and Which type of vehicle(s) are present in the image ?'
p252
aS'Which type of vehicle(s) are present in the image and Which of the following is present in the image ?'
p253
aS'Which of the following is present in the image and What is the person in the image wearing ?'
p254
aS'What is the person in the image wearing and What is the type of scene present in the image ?'
p255
aS'What is the type of scene present in the image and Which of the following is present in the image ?'
p256
aS'Which of the following is present in the image and Select the type of scene present in the image ?'
p257
aS'Select the type of scene present in the image and Which of the following is present in the image ?'
p258
aS'Which of the following is present in the image and What is the person in the image wearing ?'
p259
aS'What is the person in the image wearing and Which of the following is present in the image ?'
p260
aS'Which of the following is present in the image and What is the type of scene present in the image ?'
p261
aS'Which of the following is present in the image and What is the type of scene present in the image ?'
p262
aS'What is the type of scene present in the image and Which of the following is present in the image ?'
p263
aS'Which of the following is present in the image and Select the type of scene present in the image ?'
p264
aS'Which of the following is present in the image and Select the type of scene present in the image ?'
p265
aS'Select the type of scene present in the image and What is the person in the image wearing ?'
p266
aS'What is the person in the image wearing and Which of the following is present in the image ?'
p267
aS'Which of the following is present in the image and What is the person in the image wearing ?'
p268
aS'Which of the following is present in the image and What is the person in the image wearing ?'
p269
aS'Which of the following is present in the image and What is the person in the image wearing ?'
p270
aS'What is the person in the image wearing and Which of the following is present in the image ?'
p271
aS'Which of the following is present in the image and What is the type of scene present in the image ?'
p272
aS'Which of the following is present in the image and What is the type of scene present in the image ?'
p273
aS'Which of the following is present in the image and What is the type of scene present in the image ?'
p274
aS'Which of the following is present in the image and What is the type of scene present in the image ?'
p275
aS'Which of the following is present in the image and What is the type of scene present in the image ?'
p276
aS'What is the type of scene present in the image and Which of the following is present in the image ?'
p277
aS'Which of the following is present in the image and What is the person in the image wearing ?'
p278
aS'What is the person in the image wearing and Select the type of scene present in the image ?'
p279
aS'Select the type of scene present in the image and What is the person in the image wearing ?'
p280
aS'What is the person in the image wearing and Which type of vehicle(s) are present in the image ?'
p281
aS'Which type of vehicle(s) are present in the image and What is the person in the image wearing ?'
p282
aS'What is the person in the image wearing and Which of the following is present in the image ?'
p283
aS'Which of the following is present in the image and How many people are present in the image ?'
p284
aS'How many people are present in the image and What is the type of scene present in the image ?'
p285
aS'What is the type of scene present in the image and How many animals are present in the image ?'
p286
aS'How many animals are present in the image and How many people are present in the image ?'
p287
aS'How many people are present in the image and Select the type of scene present in the image ?'
p288
aS'Select the type of scene present in the image and What is the type of bodyparts present in the image ?'
p289
aS'What is the type of bodyparts present in the image and What is the person in the image wearing ?'
p290
aS'What is the person in the image wearing and Which of the following is present in the image ?'
p291
aS'Which of the following is present in the image and Select the type of scene present in the image ?'
p292
aS'Which of the following is present in the image and Select the type of scene present in the image ?'
p293
aS'Which of the following is present in the image and Select the type of scene present in the image ?'
p294
aS'Which of the following is present in the image and Select the type of scene present in the image ?'
p295
aS'Select the type of scene present in the image and Which type of vehicle(s) are present in the image ?'
p296
aS'Which type of vehicle(s) are present in the image and Which of the following is present in the image ?'
p297
aS'Which of the following is present in the image and What is the type of scene present in the image ?'
p298
aS'Which of the following is present in the image and What is the type of scene present in the image ?'
p299
aS'What is the type of scene present in the image and Which of the following is present in the image ?'
p300
aS'Which of the following is present in the image and Select the type of scene present in the image ?'
p301
aS'Select the type of scene present in the image and Which of the following is present in the image ?'
p302
aS'What is the type of scene present in the image and Which of the following is present in the image ?'
p303
aS'Which of the following is present in the image and What is the person in the image wearing ?'
p304
aS'Which of the following is present in the image and What is the person in the image wearing ?'
p305
aS'Which of the following is present in the image and What is the person in the image wearing ?'
p306
aS'Which of the following is present in the image and What is the person in the image wearing ?'
p307
aS'Which of the following is present in the image and What is the person in the image wearing ?'
p308
aS'Which of the following is present in the image and What is the person in the image wearing ?'
p309
aS'What is the person in the image wearing and Select the type of scene present in the image ?'
p310
aS'Select the type of scene present in the image and Which of the following is present in the image ?'
p311
aS'Which of the following is present in the image and What is the type of scene present in the image ?'
p312
aS'Which of the following is present in the image and What is the type of scene present in the image ?'
p313
aS'What is the type of scene present in the image and What is the person in the image wearing ?'
p314
aS'What is the person in the image wearing and Which of the following is present in the image ?'
p315
aS'What is the person in the image wearing and Which of the following is present in the image ?'
p316
aS'Which of the following is present in the image and Select the type of scene present in the image ?'
p317
aS'Select the type of scene present in the image and Which type of vehicle(s) are present in the image ?'
p318
aS'Which type of vehicle(s) are present in the image and Which of the following is present in the image ?'
p319
aS'Which of the following is present in the image and What is the person in the image wearing ?'
p320
aS'What is the person in the image wearing and Which of the following is present in the image ?'
p321
aS'Which of the following is present in the image and What is the person in the image wearing ?'
p322
aS'What is the person in the image wearing and Which of the following is present in the image ?'
p323
aS'Which of the following is present in the image and What is the person in the image wearing ?'
p324
aS'Which of the following is present in the image and What is the person in the image wearing ?'
p325
aS'Which of the following is present in the image and What is the person in the image wearing ?'
p326
aS'Which of the following is present in the image and What is the person in the image wearing ?'
p327
aS'What is the person in the image wearing and Which type of vehicle(s) are present in the image ?'
p328
aS'Which type of vehicle(s) are present in the image and What is the type of scene present in the image ?'
p329
aS'What is the type of scene present in the image and What is the person in the image wearing ?'
p330
aS'What is the person in the image wearing and Which of the following is present in the image ?'
p331
aS'What is the person in the image wearing and Which of the following is present in the image ?'
p332
aS'Which of the following is present in the image and How many people are present in the image ?'
p333
aS'Which of the following is present in the image and How many people are present in the image ?'
p334
aS'Which of the following is present in the image and How many people are present in the image ?'
p335
aS'Which of the following is present in the image and How many people are present in the image ?'
p336
aS'Which of the following is present in the image and How many people are present in the image ?'
p337
aS'Which of the following is present in the image and How many people are present in the image ?'
p338
aS'Which of the following is present in the image and How many people are present in the image ?'
p339
aS'How many people are present in the image and Select the type of scene present in the image ?'
p340
aS'Select the type of scene present in the image and What is the type of instruments present in the image ?'
p341
aS'What is the type of instruments present in the image and Which of the following is present in the image ?'
p342
aS'Which of the following is present in the image and Select the type of scene present in the image ?'
p343
aS'Which of the following is present in the image and Select the type of scene present in the image ?'
p344
aS'Which of the following is present in the image and Select the type of scene present in the image ?'
p345
aS'Select the type of scene present in the image and Which of the following is present in the image ?'
p346
aS'What is the type of scene present in the image and Which of the following is present in the image ?'
p347
aS'Which of the following is present in the image and Select the type of scene present in the image ?'
p348
aS'Select the type of scene present in the image and Which of the following is present in the image ?'
p349
aS'What is the type of scene present in the image and Which of the following is present in the image ?'
p350
aS'Select the type of scene present in the image and Which of the following is present in the image ?'
p351
aS'Which of the following is present in the image and What is the person in the image wearing ?'
p352
aS'Which of the following is present in the image and What is the person in the image wearing ?'
p353
aS'Which of the following is present in the image and What is the person in the image wearing ?'
p354
aS'Which of the following is present in the image and What is the person in the image wearing ?'
p355
aS'What is the person in the image wearing and What is the type of bodyparts present in the image ?'
p356
aS'What is the type of bodyparts present in the image and Select the type of scene present in the image ?'
p357
aS'Select the type of scene present in the image and Which of the following is present in the image ?'
p358
aS'Which of the following is present in the image and What is the type of scene present in the image ?'
p359
aS'Which of the following is present in the image and What is the type of scene present in the image ?'
p360
aS'What is the type of scene present in the image and Which of the following is present in the image ?'
p361
aS'Which of the following is present in the image and Select the type of scene present in the image ?'
p362
aS'Which of the following is present in the image and Select the type of scene present in the image ?'
p363
aS'Which of the following is present in the image and Select the type of scene present in the image ?'
p364
aS'Which of the following is present in the image and Select the type of scene present in the image ?'
p365
aS'Select the type of scene present in the image and How many people are present in the image ?'
p366
aS'How many people are present in the image and What is the type of scene present in the image ?'
p367
aS'What is the type of scene present in the image and Which type of vehicle(s) are present in the image ?'
p368
aS'Which type of vehicle(s) are present in the image and Select the type of scene present in the image ?'
p369
aS'Select the type of scene present in the image and What is the person in the image wearing ?'
p370
aS'What is the person in the image wearing and Which of the following is present in the image ?'
p371
aS'Which of the following is present in the image and What is the person in the image wearing ?'
p372
aS'What is the person in the image wearing and Which of the following is present in the image ?'
p373
aS'Which of the following is present in the image and What is the person in the image wearing ?'
p374
aS'What is the person in the image wearing and Which of the following is present in the image ?'
p375
aS'What is the person in the image wearing and Which of the following is present in the image ?'
p376
aS'Which of the following is present in the image and What is the type of bodyparts present in the image ?'
p377
aS'What is the type of bodyparts present in the image and Which of the following is present in the image ?'
p378
aS'Which of the following is present in the image and What is the person in the image wearing ?'
p379
aS'Which of the following is present in the image and What is the person in the image wearing ?'
p380
aS'Which of the following is present in the image and What is the person in the image wearing ?'
p381
aS'Which of the following is present in the image and What is the person in the image wearing ?'
p382
aS'Which of the following is present in the image and What is the person in the image wearing ?'
p383
aS'What is the person in the image wearing and Select the type of bodyparts present in the image ?'
p384
aS'Select the type of bodyparts present in the image and What is the person in the image wearing ?'
p385
aS'What is the person in the image wearing and What is the type of scene present in the image ?'
p386
aS'What is the type of scene present in the image and Which of the following is present in the image ?'
p387
aS'Select the type of scene present in the image and Which of the following is present in the image ?'
p388
aS'Which of the following is present in the image and What is the type of scene present in the image ?'
p389
aS'Which of the following is present in the image and What is the type of scene present in the image ?'
p390
aS'Which of the following is present in the image and What is the type of scene present in the image ?'
p391
aS'Which of the following is present in the image and What is the type of scene present in the image ?'
p392
aS'Which of the following is present in the image and What is the type of scene present in the image ?'
p393
aS'Which of the following is present in the image and What is the type of scene present in the image ?'
p394
aS'What is the type of scene present in the image and What is the person in the image wearing ?'
p395
aS'What is the person in the image wearing and Which of the following is present in the image ?'
p396
aS'Which of the following is present in the image and What is the person in the image wearing ?'
p397
aS'What is the person in the image wearing and Select the type of scene present in the image ?'
p398
aS'Select the type of scene present in the image and Which of the following is present in the image ?'
p399
aS'What is the type of scene present in the image and Which of the following is present in the image ?'
p400
aS'Which of the following is present in the image and What is the person in the image wearing ?'
p401
aS'Which of the following is present in the image and What is the person in the image wearing ?'
p402
aS'What is the person in the image wearing and Select the type of bodyparts present in the image ?'
p403
aS'Select the type of bodyparts present in the image and What is the type of scene present in the image ?'
p404
aS'What is the type of scene present in the image and Which type of vehicle(s) are present in the image ?'
p405
aS'Select the type of scene present in the image and Which type of vehicle(s) are present in the image ?'
p406
aS'Which type of vehicle(s) are present in the image and Which of the following is present in the image ?'
p407
aS'Which of the following is present in the image and What is the type of scene present in the image ?'
p408
aS'Which of the following is present in the image and What is the type of scene present in the image ?'
p409
aS'What is the type of scene present in the image and Which of the following is present in the image ?'
p410
aS'Which of the following is present in the image and Which type of vehicle(s) are present in the image ?'
p411
aS'Which of the following is present in the image and Which type of vehicle(s) are present in the image ?'
p412
aS'Which type of vehicle(s) are present in the image and What is the person in the image wearing ?'
p413
aS'What is the person in the image wearing and Select the type of bodyparts present in the image ?'
p414
aS'What is the person in the image wearing and Select the type of bodyparts present in the image ?'
p415
aS'Select the type of bodyparts present in the image and Which of the following is present in the image ?'
p416
aS'Which of the following is present in the image and How many people are present in the image ?'
p417
aS'How many people are present in the image and What is the type of scene present in the image ?'
p418
aS'How many people are present in the image and What is the type of scene present in the image ?'
p419
aS'What is the type of scene present in the image and Select the type of bodyparts present in the image ?'
p420
aS'Select the type of bodyparts present in the image and Which of the following is present in the image ?'
p421
aS'Which of the following is present in the image and What is the person in the image wearing ?'
p422
aS'Which of the following is present in the image and What is the person in the image wearing ?'
p423
aS'Which of the following is present in the image and What is the person in the image wearing ?'
p424
aS'What is the person in the image wearing and What is the type of bodyparts present in the image ?'
p425
aS'What is the type of bodyparts present in the image and Which of the following is present in the image ?'
p426
aS'Which of the following is present in the image and How many people are present in the image ?'
p427
aS'Which of the following is present in the image and How many people are present in the image ?'
p428
aS'How many people are present in the image and Which of the following is present in the image ?'
p429
aS'Which of the following is present in the image and Select the type of scene present in the image ?'
p430
aS'Which of the following is present in the image and Select the type of scene present in the image ?'
p431
aS'Select the type of scene present in the image and Which of the following is present in the image ?'
p432
aS'Which of the following is present in the image and What is the type of bodyparts present in the image ?'
p433
aS'Which of the following is present in the image and What is the type of bodyparts present in the image ?'
p434
aS'Which of the following is present in the image and What is the type of bodyparts present in the image ?'
p435
aS'Which of the following is present in the image and What is the type of bodyparts present in the image ?'
p436
aS'What is the type of bodyparts present in the image and What is the person in the image wearing ?'
p437
aS'What is the person in the image wearing and Which of the following is present in the image ?'
p438
aS'Which of the following is present in the image and What is the person in the image wearing ?'
p439
aS'Which of the following is present in the image and What is the person in the image wearing ?'
p440
aS'Which of the following is present in the image and What is the person in the image wearing ?'
p441
aS'What is the person in the image wearing and Which of the following is present in the image ?'
p442
aS'Which of the following is present in the image and Select the type of scene present in the image ?'
p443
aS'Which of the following is present in the image and Select the type of scene present in the image ?'
p444
aS'Select the type of scene present in the image and Which of the following is present in the image ?'
p445
aS'Which of the following is present in the image and What is the person in the image wearing ?'
p446
aS'Which of the following is present in the image and What is the person in the image wearing ?'
p447
aS'Which of the following is present in the image and What is the person in the image wearing ?'
p448
aS'What is the person in the image wearing and Which of the following is present in the image ?'
p449
aS'Which of the following is present in the image and What is the type of bodyparts present in the image ?'
p450
aS'Which of the following is present in the image and What is the type of bodyparts present in the image ?'
p451
aS'What is the type of bodyparts present in the image and Which of the following is present in the image ?'
p452
aS'Which of the following is present in the image and Select the type of scene present in the image ?'
p453
aS'Which of the following is present in the image and Select the type of scene present in the image ?'
p454
aS'Which of the following is present in the image and Select the type of scene present in the image ?'
p455
aS'Which of the following is present in the image and Select the type of scene present in the image ?'
p456
aS'Select the type of scene present in the image and Which of the following is present in the image ?'
p457
aS'Which of the following is present in the image and What is the person in the image wearing ?'
p458
aS'Which of the following is present in the image and What is the person in the image wearing ?'
p459
aS'What is the person in the image wearing and How many people are present in the image ?'
p460
aS'What is the person in the image wearing and How many people are present in the image ?'
p461
aS'What is the person in the image wearing and How many people are present in the image ?'
p462
aS'How many people are present in the image and Which of the following is present in the image ?'
p463
aS'How many people are present in the image and Which of the following is present in the image ?'
p464
aS'Which of the following is present in the image and What is the type of scene present in the image ?'
p465
aS'What is the type of scene present in the image and What is the person in the image wearing ?'
p466
aS'Select the type of scene present in the image and What is the person in the image wearing ?'
p467
aS'What is the type of scene present in the image and What is the person in the image wearing ?'
p468
aS'Select the type of scene present in the image and What is the person in the image wearing ?'
p469
aS'What is the person in the image wearing and What is the type of scene present in the image ?'
p470
aS'What is the type of scene present in the image and Which of the following is present in the image ?'
p471
aS'Which of the following is present in the image and Which type of vehicle(s) are present in the image ?'
p472
aS'Which of the following is present in the image and Which type of vehicle(s) are present in the image ?'
p473
aS'Which type of vehicle(s) are present in the image and What is the person in the image wearing ?'
p474
aS'What is the person in the image wearing and Which of the following is present in the image ?'
p475
aS'Which of the following is present in the image and Which type of vehicle(s) are present in the image ?'
p476
aS'Which of the following is present in the image and Which type of vehicle(s) are present in the image ?'
p477
aS'Which of the following is present in the image and Which type of vehicle(s) are present in the image ?'
p478
aS'Which of the following is present in the image and Which type of vehicle(s) are present in the image ?'
p479
aS'Which of the following is present in the image and Which type of vehicle(s) are present in the image ?'
p480
aS'Which type of vehicle(s) are present in the image and Which of the following is present in the image ?'
p481
aS'Which of the following is present in the image and What is the person in the image wearing ?'
p482
aS'What is the person in the image wearing and Select the type of scene present in the image ?'
p483
aS'Select the type of scene present in the image and What is the person in the image wearing ?'
p484
aS'What is the person in the image wearing and What is the type of scene present in the image ?'
p485
aS'What is the person in the image wearing and What is the type of scene present in the image ?'
p486
aS'What is the type of scene present in the image and What is the type of bodyparts present in the image ?'
p487
aS'Select the type of scene present in the image and What is the type of bodyparts present in the image ?'
p488
aS'What is the type of bodyparts present in the image and Which of the following is present in the image ?'
p489
aS'Which of the following is present in the image and Select the type of scene present in the image ?'
p490
aS'Which of the following is present in the image and Select the type of scene present in the image ?'
p491
aS'Which of the following is present in the image and Select the type of scene present in the image ?'
p492
aS'Which of the following is present in the image and Select the type of scene present in the image ?'
p493
aS'Select the type of scene present in the image and What is the type of bodyparts present in the image ?'
p494
aS'What is the type of bodyparts present in the image and Which of the following is present in the image ?'
p495
aS'Which of the following is present in the image and Select the type of scene present in the image ?'
p496
aS'Which of the following is present in the image and Select the type of scene present in the image ?'
p497
aS'Which of the following is present in the image and Select the type of scene present in the image ?'
p498
aS'Which of the following is present in the image and Select the type of scene present in the image ?'
p499
aS'Select the type of scene present in the image and Which of the following is present in the image ?'
p500
aS'Which of the following is present in the image and What is the person in the image wearing ?'
p501
aS'Which of the following is present in the image and What is the person in the image wearing ?'
p502
aS'What is the person in the image wearing and Which of the following is present in the image ?'
p503
aS'Which of the following is present in the image and What is the person in the image wearing ?'
p504
aS'Which of the following is present in the image and What is the person in the image wearing ?'
p505
aS'Which of the following is present in the image and What is the person in the image wearing ?'
p506
aS'What is the person in the image wearing and Which of the following is present in the image ?'
p507
aS'Which of the following is present in the image and What is the person in the image wearing ?'
p508
aS'Which of the following is present in the image and What is the person in the image wearing ?'
p509
aS'What is the person in the image wearing and Which of the following is present in the image ?'
p510
aS'Which of the following is present in the image and Which type of vehicle(s) are present in the image ?'
p511
aS'Which of the following is present in the image and Which type of vehicle(s) are present in the image ?'
p512
aS'Which of the following is present in the image and Which type of vehicle(s) are present in the image ?'
p513
aS'Which type of vehicle(s) are present in the image and What is the person in the image wearing ?'
p514
aS'What is the person in the image wearing and Which of the following is present in the image ?'
p515
aS'Which of the following is present in the image and What is the type of scene present in the image ?'
p516
aS'What is the type of scene present in the image and Which of the following is present in the image ?'
p517
aS'Which of the following is present in the image and Select the type of scene present in the image ?'
p518
aS'Which of the following is present in the image and Select the type of scene present in the image ?'
p519
aS'Which of the following is present in the image and Select the type of scene present in the image ?'
p520
aS'Select the type of scene present in the image and Which of the following is present in the image ?'
p521
aS'Which of the following is present in the image and What is the type of scene present in the image ?'
p522
aS'What is the type of scene present in the image and What is the person in the image wearing ?'
p523
aS'What is the person in the image wearing and Which of the following is present in the image ?'
p524
aS'What is the person in the image wearing and Which of the following is present in the image ?'
p525
aS'What is the person in the image wearing and Which of the following is present in the image ?'
p526
aS'Which of the following is present in the image and What is the person in the image wearing ?'
p527
aS'What is the person in the image wearing and Which of the following is present in the image ?'
p528
aS'What is the person in the image wearing and Which of the following is present in the image ?'
p529
aS'Which of the following is present in the image and How many people are present in the image ?'
p530
aS'Which of the following is present in the image and How many people are present in the image ?'
p531
aS'Which of the following is present in the image and How many people are present in the image ?'
p532
aS'How many people are present in the image and Which of the following is present in the image ?'
p533
aS'Which of the following is present in the image and What is the person in the image wearing ?'
p534
aS'What is the person in the image wearing and Select the type of scene present in the image ?'
p535
aS'Select the type of scene present in the image and What is the person in the image wearing ?'
p536
aS'What is the person in the image wearing and Which type of vehicle(s) are present in the image ?'
p537
aS'Which type of vehicle(s) are present in the image and What is the person in the image wearing ?'
p538
aS'What is the person in the image wearing and Which of the following is present in the image ?'
p539
aS'Which of the following is present in the image and What is the person in the image wearing ?'
p540
aS'Which of the following is present in the image and What is the person in the image wearing ?'
p541
aS'Which of the following is present in the image and What is the person in the image wearing ?'
p542
aS'What is the person in the image wearing and Which of the following is present in the image ?'
p543
aS'Which of the following is present in the image and What is the person in the image wearing ?'
p544
aS'Which of the following is present in the image and What is the person in the image wearing ?'
p545
aS'What is the person in the image wearing and Which of the following is present in the image ?'
p546
aS'Which of the following is present in the image and What is the person in the image wearing ?'
p547
aS'What is the person in the image wearing and Which of the following is present in the image ?'
p548
aS'What is the person in the image wearing and Which of the following is present in the image ?'
p549
aS'Which of the following is present in the image and What is the type of scene present in the image ?'
p550
aS'Which of the following is present in the image and What is the type of scene present in the image ?'
p551
aS'What is the type of scene present in the image and Which of the following is present in the image ?'
p552
aS'Which of the following is present in the image and What is the person in the image wearing ?'
p553
aS'Which of the following is present in the image and What is the person in the image wearing ?'
p554
aS'Which of the following is present in the image and What is the person in the image wearing ?'
p555
aS'What is the person in the image wearing and Which of the following is present in the image ?'
p556
aS'Which of the following is present in the image and What is the person in the image wearing ?'
p557
aS'What is the person in the image wearing and Which of the following is present in the image ?'
p558
aS'Which of the following is present in the image and What is the person in the image wearing ?'
p559
aS'Which of the following is present in the image and What is the person in the image wearing ?'
p560
aS'Which of the following is present in the image and What is the person in the image wearing ?'
p561
aS'Which of the following is present in the image and What is the person in the image wearing ?'
p562
aS'Which of the following is present in the image and What is the person in the image wearing ?'
p563
aS'Which of the following is present in the image and What is the person in the image wearing ?'
p564
aS'What is the person in the image wearing and Which of the following is present in the image ?'
p565
aS'Which of the following is present in the image and Select the type of scene present in the image ?'
p566
aS'Which of the following is present in the image and Select the type of scene present in the image ?'
p567
aS'Which of the following is present in the image and Select the type of scene present in the image ?'
p568
aS'Select the type of scene present in the image and Which type of vehicle(s) are present in the image ?'
p569
aS'Which type of vehicle(s) are present in the image and Which of the following is present in the image ?'
p570
aS'Which of the following is present in the image and What is the person in the image wearing ?'
p571
aS'Which of the following is present in the image and What is the person in the image wearing ?'
p572
aS'Which of the following is present in the image and What is the person in the image wearing ?'
p573
aS'Which of the following is present in the image and What is the person in the image wearing ?'
p574
aS'Which of the following is present in the image and What is the person in the image wearing ?'
p575
aS'Which of the following is present in the image and What is the person in the image wearing ?'
p576
aS'Which of the following is present in the image and What is the person in the image wearing ?'
p577
aS'What is the person in the image wearing and Which of the following is present in the image ?'
p578
aS'Which of the following is present in the image and How many people are present in the image ?'
p579
aS'Which of the following is present in the image and How many people are present in the image ?'
p580
aS'How many people are present in the image and Which of the following is present in the image ?'
p581
aS'Which of the following is present in the image and What is the type of scene present in the image ?'
p582
aS'Which of the following is present in the image and What is the type of scene present in the image ?'
p583
aS'What is the type of scene present in the image and Which of the following is present in the image ?'
p584
aS'Which of the following is present in the image and Select the type of scene present in the image ?'
p585
aS'Which of the following is present in the image and Select the type of scene present in the image ?'
p586
aS'Which of the following is present in the image and Select the type of scene present in the image ?'
p587
aS'Select the type of scene present in the image and How many people are present in the image ?'
p588
aS'How many people are present in the image and Which of the following is present in the image ?'
p589
aS'Which of the following is present in the image and What is the type of scene present in the image ?'
p590
aS'What is the type of scene present in the image and What is the person in the image wearing ?'
p591
aS'What is the person in the image wearing and Which of the following is present in the image ?'
p592
aS'What is the person in the image wearing and Which of the following is present in the image ?'
p593
aS'Which of the following is present in the image and Select the type of scene present in the image ?'
p594
aS'Which of the following is present in the image and Select the type of scene present in the image ?'
p595
aS'Which of the following is present in the image and Select the type of scene present in the image ?'
p596
aS'Select the type of scene present in the image and Which of the following is present in the image ?'
p597
aS'Which of the following is present in the image and What is the person in the image wearing ?'
p598
aS'Which of the following is present in the image and What is the person in the image wearing ?'
p599
aS'What is the person in the image wearing and Which of the following is present in the image ?'
p600
aS'Which of the following is present in the image and What is the type of scene present in the image ?'
p601
aS'What is the type of scene present in the image and Which of the following is present in the image ?'
p602
aS'Which of the following is present in the image and Select the type of scene present in the image ?'
p603
aS'Which of the following is present in the image and Select the type of scene present in the image ?'
p604
aS'Which of the following is present in the image and Select the type of scene present in the image ?'
p605
aS'Select the type of scene present in the image and What is the person in the image wearing ?'
p606
aS'What is the person in the image wearing and Which of the following is present in the image ?'
p607
aS'What is the person in the image wearing and Which of the following is present in the image ?'
p608
aS'What is the person in the image wearing and Which of the following is present in the image ?'
p609
aS'Which of the following is present in the image and What is the person in the image wearing ?'
p610
aS'What is the person in the image wearing and Which of the following is present in the image ?'
p611
aS'Which of the following is present in the image and What is the type of scene present in the image ?'
p612
aS'Which of the following is present in the image and What is the type of scene present in the image ?'
p613
aS'Which of the following is present in the image and What is the type of scene present in the image ?'
p614
aS'What is the type of scene present in the image and Which of the following is present in the image ?'
p615
aS'Select the type of scene present in the image and Which of the following is present in the image ?'
p616
aS'Which of the following is present in the image and Which type of vehicle(s) are present in the image ?'
p617
aS'Which of the following is present in the image and Which type of vehicle(s) are present in the image ?'
p618
aS'Which type of vehicle(s) are present in the image and What is the person in the image wearing ?'
p619
aS'What is the person in the image wearing and What is the type of scene present in the image ?'
p620
aS'What is the type of scene present in the image and Which of the following is present in the image ?'
p621
aS'Which of the following is present in the image and Select the type of bodyparts present in the image ?'
p622
aS'Which of the following is present in the image and Select the type of bodyparts present in the image ?'
p623
aS'Which of the following is present in the image and Select the type of bodyparts present in the image ?'
p624
aS'Select the type of bodyparts present in the image and What is the type of scene present in the image ?'
p625
aS'What is the type of scene present in the image and Which of the following is present in the image ?'
p626
aS'Which of the following is present in the image and What is the person in the image wearing ?'
p627
aS'What is the person in the image wearing and Which of the following is present in the image ?'
p628
aS'Which of the following is present in the image and Which type of vehicle(s) are present in the image ?'
p629
aS'Which type of vehicle(s) are present in the image and Which of the following is present in the image ?'
p630
aS'Which of the following is present in the image and What is the person in the image wearing ?'
p631
aS'Which of the following is present in the image and What is the person in the image wearing ?'
p632
aS'Which of the following is present in the image and What is the person in the image wearing ?'
p633
aS'What is the person in the image wearing and Select the type of scene present in the image ?'
p634
aS'Select the type of scene present in the image and How many people are present in the image ?'
p635
aS'How many people are present in the image and Which of the following is present in the image ?'
p636
aS'Which of the following is present in the image and What is the person in the image wearing ?'
p637
aS'Which of the following is present in the image and What is the person in the image wearing ?'
p638
aS'Which of the following is present in the image and What is the person in the image wearing ?'
p639
aS'What is the person in the image wearing and What is the type of scene present in the image ?'
p640
aS'What is the type of scene present in the image and What is the person in the image wearing ?'
p641
aS'What is the person in the image wearing and Which of the following is present in the image ?'
p642
aS'Which of the following is present in the image and Select the type of scene present in the image ?'
p643
aS'Select the type of scene present in the image and What is the person in the image wearing ?'
p644
aS'What is the person in the image wearing and What is the type of scene present in the image ?'
p645
aS'What is the type of scene present in the image and Which of the following is present in the image ?'
p646
aS'Which of the following is present in the image and What is the person in the image wearing ?'
p647
aS'What is the person in the image wearing and Select the type of instruments present in the image ?'
p648
aS'What is the person in the image wearing and Select the type of instruments present in the image ?'
p649
aS'What is the person in the image wearing and Select the type of instruments present in the image ?'
p650
aS'Select the type of instruments present in the image and Which of the following is present in the image ?'
p651
aS'Which of the following is present in the image and What is the type of scene present in the image ?'
p652
aS'What is the type of scene present in the image and Which of the following is present in the image ?'
p653
aS'Which of the following is present in the image and How many people are present in the image ?'
p654
aS'Which of the following is present in the image and How many people are present in the image ?'
p655
aS'Which of the following is present in the image and How many people are present in the image ?'
p656
aS'Which of the following is present in the image and How many people are present in the image ?'
p657
aS'Which of the following is present in the image and How many people are present in the image ?'
p658
aS'How many people are present in the image and Which of the following is present in the image ?'
p659
aS'Which of the following is present in the image and What is the person in the image wearing ?'
p660
aS'What is the person in the image wearing and Which of the following is present in the image ?'
p661
aS'What is the person in the image wearing and Which of the following is present in the image ?'
p662
aS'Which of the following is present in the image and Select the type of scene present in the image ?'
p663
aS'Which of the following is present in the image and Select the type of scene present in the image ?'
p664
aS'Which of the following is present in the image and Select the type of scene present in the image ?'
p665
aS'Which of the following is present in the image and Select the type of scene present in the image ?'
p666
aS'Select the type of scene present in the image and What is the type of bodyparts present in the image ?'
p667
aS'What is the type of bodyparts present in the image and Which of the following is present in the image ?'
p668
aS'Which of the following is present in the image and What is the person in the image wearing ?'
p669
aS'Which of the following is present in the image and What is the person in the image wearing ?'
p670
aS'What is the person in the image wearing and Which of the following is present in the image ?'
p671
aS'Which of the following is present in the image and Select the type of scene present in the image ?'
p672
aS'Which of the following is present in the image and Select the type of scene present in the image ?'
p673
aS'Select the type of scene present in the image and Which of the following is present in the image ?'
p674
aS'Which of the following is present in the image and What is the type of scene present in the image ?'
p675
aS'Which of the following is present in the image and What is the type of scene present in the image ?'
p676
aS'What is the type of scene present in the image and Which of the following is present in the image ?'
p677
aS'Which of the following is present in the image and Select the type of bodyparts present in the image ?'
p678
aS'Select the type of bodyparts present in the image and Which of the following is present in the image ?'
p679
aS'Which of the following is present in the image and What is the type of scene present in the image ?'
p680
aS'What is the type of scene present in the image and Which of the following is present in the image ?'
p681
aS'Which of the following is present in the image and What is the person in the image wearing ?'
p682
aS'Which of the following is present in the image and What is the person in the image wearing ?'
p683
aS'Which of the following is present in the image and What is the person in the image wearing ?'
p684
aS'What is the person in the image wearing and Which of the following is present in the image ?'
p685
aS'Which of the following is present in the image and Select the type of scene present in the image ?'
p686
aS'Which of the following is present in the image and Select the type of scene present in the image ?'
p687
aS'Which of the following is present in the image and Select the type of scene present in the image ?'
p688
aS'Which of the following is present in the image and Select the type of scene present in the image ?'
p689
aS'Select the type of scene present in the image and Which of the following is present in the image ?'
p690
aS'Which of the following is present in the image and What is the person in the image wearing ?'
p691
aS'Which of the following is present in the image and What is the person in the image wearing ?'
p692
aS'What is the person in the image wearing and Which of the following is present in the image ?'
p693
aS'Which of the following is present in the image and How many people are present in the image ?'
p694
aS'Which of the following is present in the image and How many people are present in the image ?'
p695
aS'How many people are present in the image and Which of the following is present in the image ?'
p696
aS'Which of the following is present in the image and What is the type of scene present in the image ?'
p697
aS'Which of the following is present in the image and What is the type of scene present in the image ?'
p698
aS'Which of the following is present in the image and What is the type of scene present in the image ?'
p699
aS'What is the type of scene present in the image and Which of the following is present in the image ?'
p700
aS'Select the type of scene present in the image and Which of the following is present in the image ?'
p701
aS'Which of the following is present in the image and What is the type of bodyparts present in the image ?'
p702
aS'What is the type of bodyparts present in the image and Select the type of scene present in the image ?'
p703
aS'Select the type of scene present in the image and Which of the following is present in the image ?'
p704
aS'Which of the following is present in the image and What is the person in the image wearing ?'
p705
aS'Which of the following is present in the image and What is the person in the image wearing ?'
p706
aS'Which of the following is present in the image and What is the person in the image wearing ?'
p707
aS'What is the person in the image wearing and What is the type of scene present in the image ?'
p708
aS'What is the type of scene present in the image and Which of the following is present in the image ?'
p709
aS'Which of the following is present in the image and Select the type of scene present in the image ?'
p710
aS'Which of the following is present in the image and Select the type of scene present in the image ?'
p711
aS'Select the type of scene present in the image and Which of the following is present in the image ?'
p712
aS'Which of the following is present in the image and What is the person in the image wearing ?'
p713
aS'What is the person in the image wearing and What is the type of scene present in the image ?'
p714
aS'What is the type of scene present in the image and Which type of vehicle(s) are present in the image ?'
p715
aS'Select the type of scene present in the image and Which type of vehicle(s) are present in the image ?'
p716
aS'Which type of vehicle(s) are present in the image and Which of the following is present in the image ?'
p717
aS'Which of the following is present in the image and What is the type of scene present in the image ?'
p718
aS'Which of the following is present in the image and What is the type of scene present in the image ?'
p719
aS'What is the type of scene present in the image and Which of the following is present in the image ?'
p720
aS'Select the type of scene present in the image and Which of the following is present in the image ?'
p721
aS'Which of the following is present in the image and What is the type of scene present in the image ?'
p722
aS'What is the type of scene present in the image and Which of the following is present in the image ?'
p723
aS'Which of the following is present in the image and Select the type of scene present in the image ?'
p724
aS'Select the type of scene present in the image and Which of the following is present in the image ?'
p725
aS'What is the type of scene present in the image and Which of the following is present in the image ?'
p726
aS'Which of the following is present in the image and Select the type of scene present in the image ?'
p727
aS'Which of the following is present in the image and Select the type of scene present in the image ?'
p728
aS'Select the type of scene present in the image and Which of the following is present in the image ?'
p729
aS'What is the type of scene present in the image and Which of the following is present in the image ?'
p730
aS'Which of the following is present in the image and What is the person in the image wearing ?'
p731
aS'Which of the following is present in the image and What is the person in the image wearing ?'
p732
aS'Which of the following is present in the image and What is the person in the image wearing ?'
p733
aS'Which of the following is present in the image and What is the person in the image wearing ?'
p734
aS'Which of the following is present in the image and What is the person in the image wearing ?'
p735
aS'Which of the following is present in the image and What is the person in the image wearing ?'
p736
aS'What is the person in the image wearing and Which of the following is present in the image ?'
p737
aS'What is the person in the image wearing and Which of the following is present in the image ?'
p738
aS'What is the person in the image wearing and Which of the following is present in the image ?'
p739
aS'What is the person in the image wearing and Which of the following is present in the image ?'
p740
aS'Which of the following is present in the image and Select the type of bodyparts present in the image ?'
p741
aS'Select the type of bodyparts present in the image and Which of the following is present in the image ?'
p742
aS'Which of the following is present in the image and What is the type of scene present in the image ?'
p743
aS'What is the type of scene present in the image and How many people are present in the image ?'
p744
aS'Select the type of scene present in the image and How many people are present in the image ?'
p745
aS'How many people are present in the image and What is the type of scene present in the image ?'
p746
aS'What is the type of scene present in the image and Which of the following is present in the image ?'
p747
aS'Which of the following is present in the image and How many people are present in the image ?'
p748
aS'How many people are present in the image and What is the person in the image wearing ?'
p749
aS'What is the person in the image wearing and Which of the following is present in the image ?'
p750
aS'What is the person in the image wearing and Which of the following is present in the image ?'
p751
aS'Which of the following is present in the image and Select the type of scene present in the image ?'
p752
aS'Select the type of scene present in the image and How many people are present in the image ?'
p753
aS'How many people are present in the image and What is the type of scene present in the image ?'
p754
aS'What is the type of scene present in the image and Which of the following is present in the image ?'
p755
aS'Which of the following is present in the image and Select the type of scene present in the image ?'
p756
aS'Select the type of scene present in the image and What is the person in the image wearing ?'
p757
aS'What is the person in the image wearing and Which of the following is present in the image ?'
p758
aS'Which of the following is present in the image and What is the person in the image wearing ?'
p759
aS'What is the person in the image wearing and Which of the following is present in the image ?'
p760
aS'Which of the following is present in the image and What is the type of bodyparts present in the image ?'
p761
aS'Which of the following is present in the image and What is the type of bodyparts present in the image ?'
p762
aS'What is the type of bodyparts present in the image and What is the person in the image wearing ?'
p763
aS'What is the person in the image wearing and Select the type of scene present in the image ?'
p764
aS'Select the type of scene present in the image and Which of the following is present in the image ?'
p765
aS'Which of the following is present in the image and What is the person in the image wearing ?'
p766
aS'Which of the following is present in the image and What is the person in the image wearing ?'
p767
aS'What is the person in the image wearing and Which of the following is present in the image ?'
p768
aS'Which of the following is present in the image and What is the type of scene present in the image ?'
p769
aS'What is the type of scene present in the image and How many people are present in the image ?'
p770
aS'How many people are present in the image and Select the type of scene present in the image ?'
p771
aS'Select the type of scene present in the image and What is the person in the image wearing ?'
p772
aS'What is the person in the image wearing and What is the type of scene present in the image ?'
p773
aS'What is the type of scene present in the image and Which of the following is present in the image ?'
p774
aS'Which of the following is present in the image and Select the type of scene present in the image ?'
p775
aS'Which of the following is present in the image and Select the type of scene present in the image ?'
p776
aS'Which of the following is present in the image and Select the type of scene present in the image ?'
p777
aS'Which of the following is present in the image and Select the type of scene present in the image ?'
p778
aS'Select the type of scene present in the image and Which of the following is present in the image ?'
p779
aS'What is the type of scene present in the image and Which of the following is present in the image ?'
p780
aS'Which of the following is present in the image and Select the type of bodyparts present in the image ?'
p781
aS'Which of the following is present in the image and Select the type of bodyparts present in the image ?'
p782
aS'Select the type of bodyparts present in the image and What is the person in the image wearing ?'
p783
aS'What is the person in the image wearing and What is the type of scene present in the image ?'
p784
aS'What is the person in the image wearing and What is the type of scene present in the image ?'
p785
aS'What is the type of scene present in the image and Which of the following is present in the image ?'
p786
aS'Which of the following is present in the image and Select the type of scene present in the image ?'
p787
aS'Select the type of scene present in the image and What is the type of bodyparts present in the image ?'
p788
aS'What is the type of bodyparts present in the image and Which of the following is present in the image ?'
p789
aS'Which of the following is present in the image and What is the person in the image wearing ?'
p790
aS'Which of the following is present in the image and What is the person in the image wearing ?'
p791
aS'Which of the following is present in the image and What is the person in the image wearing ?'
p792
aS'Which of the following is present in the image and What is the person in the image wearing ?'
p793
aS'Which of the following is present in the image and What is the person in the image wearing ?'
p794
aS'What is the person in the image wearing and How many animals are present in the image ?'
p795
aS'How many animals are present in the image and Which of the following is present in the image ?'
p796
aS'Which of the following is present in the image and Which type of vehicle(s) are present in the image ?'
p797
aS'Which of the following is present in the image and Which type of vehicle(s) are present in the image ?'
p798
aS'Which type of vehicle(s) are present in the image and Select the type of scene present in the image ?'
p799
aS'Select the type of scene present in the image and Which of the following is present in the image ?'
p800
aS'Which of the following is present in the image and What is the person in the image wearing ?'
p801
aS'What is the person in the image wearing and Which of the following is present in the image ?'
p802
aS'Which of the following is present in the image and What is the type of scene present in the image ?'
p803
aS'Which of the following is present in the image and What is the type of scene present in the image ?'
p804
aS'Which of the following is present in the image and What is the type of scene present in the image ?'
p805
aS'Which of the following is present in the image and What is the type of scene present in the image ?'
p806
aS'Which of the following is present in the image and What is the type of scene present in the image ?'
p807
aS'What is the type of scene present in the image and Which of the following is present in the image ?'
p808
aS'Select the type of scene present in the image and Which of the following is present in the image ?'
p809
aS'Which of the following is present in the image and What is the type of scene present in the image ?'
p810
aS'What is the type of scene present in the image and Which type of vehicle(s) are present in the image ?'
p811
aS'Which type of vehicle(s) are present in the image and Select the type of scene present in the image ?'
p812
aS'Select the type of scene present in the image and Which of the following is present in the image ?'
p813
aS'Which of the following is present in the image and What is the type of scene present in the image ?'
p814
aS'What is the type of scene present in the image and Which of the following is present in the image ?'
p815
aS'Which of the following is present in the image and Select the type of bodyparts present in the image ?'
p816
aS'Which of the following is present in the image and Select the type of bodyparts present in the image ?'
p817
aS'Select the type of bodyparts present in the image and Which of the following is present in the image ?'
p818
aS'Which of the following is present in the image and How many people are present in the image ?'
p819
aS'How many people are present in the image and Which of the following is present in the image ?'
p820
aS'Which of the following is present in the image and What is the type of bodyparts present in the image ?'
p821
aS'Which of the following is present in the image and What is the type of bodyparts present in the image ?'
p822
aS'What is the type of bodyparts present in the image and Which of the following is present in the image ?'
p823
aS'Which of the following is present in the image and What is the person in the image wearing ?'
p824
aS'What is the person in the image wearing and How many people are present in the image ?'
p825
aS'How many people are present in the image and Which of the following is present in the image ?'
p826
aS'Which of the following is present in the image and Select the type of scene present in the image ?'
p827
aS'Which of the following is present in the image and Select the type of scene present in the image ?'
p828
aS'Which of the following is present in the image and Select the type of scene present in the image ?'
p829
aS'Select the type of scene present in the image and Which of the following is present in the image ?'
p830
aS'Which of the following is present in the image and What is the person in the image wearing ?'
p831
aS'Which of the following is present in the image and What is the person in the image wearing ?'
p832
aS'What is the person in the image wearing and Which of the following is present in the image ?'
p833
aS'Which of the following is present in the image and What is the type of scene present in the image ?'
p834
aS'Which of the following is present in the image and What is the type of scene present in the image ?'
p835
aS'What is the type of scene present in the image and Which of the following is present in the image ?'
p836
aS'Which of the following is present in the image and What is the person in the image wearing ?'
p837
aS'What is the person in the image wearing and Select the type of scene present in the image ?'
p838
aS'Select the type of scene present in the image and Which of the following is present in the image ?'
p839
aS'Which of the following is present in the image and What is the type of scene present in the image ?'
p840
aS'Which of the following is present in the image and What is the type of scene present in the image ?'
p841
aS'Which of the following is present in the image and What is the type of scene present in the image ?'
p842
aS'Which of the following is present in the image and What is the type of scene present in the image ?'
p843
aS'What is the type of scene present in the image and Which of the following is present in the image ?'
p844
aS'Which of the following is present in the image and Which of the following is present in the image ?'
p845
aS'Which of the following is present in the image and Which of the following is present in the image ?'
p846
aS'Which of the following is present in the image and Which of the following is present in the image ?'
p847
aS'Which of the following is present in the image and Which of the following is present in the image ?'
p848
a.