(lp0
S'What is the person in the image wearing ?'
p1
aS'What is the type of clothing present in the image ?'
p2
aS'Select the type of scene present in the image ?'
p3
aS'What is the type of scene present in the image ?'
p4
aS'Which of the following is present in the image ?'
p5
aS'Select the type of other present in the image ?'
p6
ag5
aS'What is the type of other present in the image ?'
p7
aS'How many youngsters are there in the image ?'
p8
aS'Select the type of people present in the image ?'
p9
ag5
ag7
ag5
ag6
ag5
ag7
ag5
ag6
ag4
ag5
ag6
ag5
ag7
ag5
ag6
ag4
ag9
aS'What is the type of people present in the image ?'
p10
ag1
aS'Select the type of clothing present in the image ?'
p11
ag5
ag7
ag5
ag6
ag4
ag5
ag6
ag4
ag1
ag11
ag5
ag7
aS'Select the type of vehicles present in the image ?'
p12
ag1
ag2
ag5
ag6
ag4
ag1
ag11
ag5
ag7
ag5
ag6
ag5
ag7
ag5
ag6
ag10
ag1
ag11
ag10
ag9
ag10
ag5
ag6
ag5
ag7
ag3
ag5
ag7
ag3
ag5
ag7
ag5
ag6
ag5
ag7
ag9
ag4
ag9
ag4
ag5
ag6
ag5
ag7
ag5
ag6
aS'How many roommates are there in the image ?'
p13
ag10
ag3
ag5
ag7
ag3
ag5
ag7
ag1
ag11
aS'What is the type of vehicles present in the image ?'
p14
ag3
ag5
ag7
ag5
ag6
ag5
ag7
ag12
ag4
ag1
ag11
ag5
ag7
ag5
ag6
ag5
ag7
ag5
ag6
ag5
ag7
ag5
ag6
ag10
ag5
ag6
ag4
ag5
ag6
ag1
ag2
ag5
ag6
ag1
ag2
ag5
ag6
ag1
ag2
ag5
ag6
ag5
ag7
ag5
ag6
ag4
ag9
aS'What is the type of animals present in the image ?'
p15
ag9
ag5
ag7
ag1
ag11
ag4
ag5
ag6
aS'How many adolescent girls are there in the image ?'
p16
ag10
ag5
ag6
ag10
ag1
ag11
ag1
ag2
aS'How many older boy scouts are there in the image ?'
p17
ag9
ag5
ag7
ag3
ag4
ag3
aS'What is the type of bodyparts present in the image ?'
p18
ag1
ag11
ag1
ag2
ag5
ag6
ag18
ag9
ag4
ag1
ag11
ag10
ag3
ag5
ag7
ag5
ag6
aS'How many cyclist are there in the image ?'
p19
ag10
ag3
ag5
ag7
ag5
ag6
ag5
ag7
ag5
ag6
ag1
ag2
aS'Select the type of animals present in the image ?'
p20
ag4
ag9
ag1
ag2
aS'How many asian chefs are there in the image ?'
p21
ag9
ag4
ag3
ag5
ag7
ag1
ag11
ag5
ag7
ag3
ag4
ag1
ag11
ag5
ag7
ag5
ag6
ag4
ag5
ag6
ag1
ag2
ag1
ag11
ag1
ag2
ag5
ag6
ag5
ag7
ag5
ag6
ag1
ag2
ag5
ag6
ag5
ag7
ag9
ag4
ag5
ag6
ag4
ag3
ag5
ag7
ag1
ag11
ag10
ag5
ag6
ag5
ag7
ag9
ag1
ag2
ag9
ag5
ag7
ag12
ag14
ag9
ag10
aS'How many kayakers are there in the image ?'
p22
ag9
ag5
ag7
aS'How many person are there in the image ?'
p23
ag9
ag5
ag7
ag9
ag4
ag3
aS'How many chefs are there in the image ?'
p24
ag10
ag9
ag5
ag7
ag9
ag10
ag1
ag11
ag5
ag7
ag9
ag5
ag7
ag1
ag11
ag5
ag7
ag3
ag4
ag9
ag1
ag2
ag9
ag4
ag5
ag6
ag5
ag7
ag5
ag6
ag5
ag7
ag3
ag5
ag7
ag9
ag1
ag2
ag5
ag6
ag1
ag2
ag5
ag6
ag18
ag5
ag6
ag5
ag7
ag5
ag6
ag4
ag1
ag11
ag5
ag7
ag9
ag18
ag9
ag4
aS'Select the type of instruments present in the image ?'
p25
ag10
ag1
ag11
ag5
ag7
ag5
ag6
ag1
ag2
ag5
ag6
ag10
ag1
ag11
ag5
ag7
ag5
ag6
ag5
ag7
ag5
ag6
ag10
ag3
ag4
ag5
ag6
ag1
ag2
ag12
ag5
ag7
ag5
ag6
ag1
ag2
ag5
ag6
ag1
ag2
ag1
ag11
ag4
ag5
ag6
ag10
ag9
ag5
ag7
ag5
ag6
ag5
ag7
ag5
ag6
ag1
ag2
ag5
ag6
ag1
ag2
ag9
ag5
ag7
ag5
ag6
ag5
ag7
ag5
ag6
ag4
ag3
ag1
ag2
ag9
ag5
ag7
ag5
ag6
aS'What is the type of instruments present in the image ?'
p26
ag9
ag4
ag1
ag11
ag5
ag7
ag5
ag6
ag1
ag2
ag1
ag11
ag5
ag7
ag5
ag6
ag5
ag7
ag3
ag5
ag7
ag3
ag5
ag7
ag5
ag6
ag5
ag7
ag25
ag5
ag7
ag5
ag6
ag10
ag3
ag5
ag7
ag1
ag11
ag10
aS'Select the type of bodyparts present in the image ?'
p27
ag4
ag3
ag26
ag3
ag15
ag27
ag5
ag7
ag3
ag4
ag27
ag10
ag9
aS'How many wheeled bikes are present in the image ?'
p28
ag14
ag5
ag6
ag1
ag2
ag3
ag5
ag7
ag3
ag5
ag7
ag1
ag11
ag15
ag5
ag6
ag5
ag7
ag9
ag4
ag5
ag6
ag5
ag7
ag3
ag1
ag2
ag5
ag6
ag5
ag7
ag5
ag6
ag1
ag2
ag9
ag15
ag5
ag6
ag5
ag7
ag5
ag6
ag5
ag7
ag5
ag6
ag4
ag5
ag6
ag1
ag2
ag3
ag1
ag2
ag12
ag1
ag2
ag5
ag6
aS'How many boy are there in the image ?'
p29
ag10
ag3
aS'How many dog are present in the image ?'
p30
ag15
aS'How many veteran guy are there in the image ?'
p31
ag9
ag4
ag27
ag1
ag2
ag5
ag6
ag10
ag5
ag6
ag5
ag7
ag5
ag6
ag4
ag12
ag5
ag7
ag5
ag6
ag4
ag5
ag6
ag10
ag9
ag4
ag9
ag4
ag5
ag6
ag5
ag7
ag9
ag5
ag7
ag5
ag6
ag10
ag5
ag6
ag15
ag5
ag6
ag10
ag1
ag11
ag4
ag5
ag6
ag5
ag7
ag3
ag10
ag1
ag11
ag1
ag2
ag5
ag6
ag4
ag12
ag5
ag7
ag1
ag11
ag5
ag7
ag1
ag11
ag5
ag7
ag5
ag6
ag5
ag7
ag5
ag6
ag15
ag20
ag1
ag2
ag9
ag14
ag20
ag4
ag1
ag11
ag1
ag2
ag5
ag6
ag5
ag7
ag5
ag6
ag5
ag7
ag5
ag6
ag5
ag7
ag5
ag6
aS'How many female are there in the image ?'
p32
ag10
ag3
ag26
ag5
ag6
ag5
ag7
ag5
ag6
ag4
ag3
ag5
ag7
ag3
ag4
ag3
ag5
ag7
ag5
ag6
ag5
ag7
ag5
ag6
ag1
ag2
ag27
ag4
ag5
ag6
ag5
ag7
ag3
ag5
ag7
ag5
ag6
ag5
ag7
ag5
ag6
ag15
ag3
aS'How many women swimmers are there in the image ?'
p33
ag10
ag3
ag14
ag3
ag1
ag2
ag9
ag5
ag7
ag1
ag11
ag5
ag7
ag1
ag11
ag1
ag2
ag5
ag6
ag18
ag5
ag6
ag10
ag5
ag6
ag15
ag9
ag5
ag7
ag5
ag6
ag5
ag7
ag1
ag11
ag18
ag1
ag11
ag4
ag3
ag5
ag7
ag5
ag6
ag5
ag7
ag5
ag6
ag5
ag7
ag5
ag6
ag4
ag1
ag11
ag10
ag5
ag6
ag1
ag2
ag3
ag4
ag5
ag6
ag10
ag5
ag6
ag15
ag1
ag11
ag18
ag3
ag4
ag12
ag5
ag7
ag5
ag6
ag10
ag3
ag5
ag7
ag5
ag6
ag14
ag1
ag11
ag1
ag2
ag27
ag5
ag7
ag9
aS'How many shoulders  children are there in the image ?'
p34
ag10
aS'How many army men are there in the image ?'
p35
ag9
ag10
ag9
ag4
ag27
ag5
ag7
ag9
ag5
ag7
ag5
ag6
ag1
ag2
ag9
ag18
ag5
ag6
ag5
ag7
aS'How many younger child are there in the image ?'
p36
ag9
ag10
ag5
ag6
ag5
ag7
ag3
ag10
ag5
ag6
ag5
ag7
ag5
ag6
ag5
ag7
ag27
ag1
ag2
ag5
ag6
ag5
ag7
ag5
ag6
ag1
ag2
ag9
ag5
ag7
ag5
ag6
ag4
ag5
ag6
ag5
ag7
ag5
ag6
ag10
ag1
ag11
ag5
ag7
ag5
ag6
ag18
ag5
ag6
ag5
ag7
ag5
ag6
ag10
ag5
ag6
ag4
ag5
ag6
ag5
ag7
ag1
ag11
ag1
ag2
ag1
ag11
ag10
ag9
aS'How many guy are there in the image ?'
p37
ag10
aS'How many young siblings are there in the image ?'
p38
ag9
ag5
ag7
ag3
ag4
ag3
ag4
ag1
ag11
ag4
ag5
ag6
ag5
ag7
ag12
ag1
ag2
ag9
ag5
ag7
ag5
ag6
ag5
ag7
ag5
ag6
ag5
ag7
ag12
ag5
ag7
ag1
ag11
ag10
ag3
ag1
ag2
ag1
ag11
ag4
ag3
ag18
ag20
ag5
ag7
ag5
ag6
ag5
ag7
ag5
ag6
ag4
ag27
ag10
ag5
ag6
ag10
ag5
ag6
ag5
ag7
ag9
ag5
ag7
ag9
ag4
ag5
ag6
ag5
ag7
ag1
ag11
ag5
ag7
ag5
ag6
ag5
ag7
ag1
ag11
ag5
ag7
ag5
ag6
ag1
ag2
ag9
ag5
ag7
ag5
ag6
ag5
ag7
ag12
ag1
ag2
ag5
ag6
ag4
ag5
ag6
ag5
ag7
ag5
ag6
ag4
ag5
ag6
ag4
ag9
ag1
ag2
ag1
ag11
ag1
ag2
ag5
ag6
ag1
ag2
ag1
ag11
ag5
ag7
ag9
ag5
ag7
ag5
ag6
aS'How many ambulance workers are there in the image ?'
p39
ag10
ag5
ag6
ag1
ag2
ag9
ag4
ag1
ag11
ag14
ag1
ag11
ag5
ag7
ag5
ag6
ag5
ag7
ag1
ag11
ag15
ag5
ag6
ag5
ag7
ag1
ag11
ag5
ag7
ag1
ag11
ag1
ag2
ag5
ag6
ag5
ag7
ag3
ag5
ag7
ag5
ag6
ag5
ag7
ag1
ag11
ag5
ag7
ag1
ag11
ag10
ag5
ag6
ag5
ag7
ag5
ag6
ag5
ag7
ag5
ag6
ag10
ag20
ag5
ag7
ag1
ag11
ag5
ag7
ag5
ag6
ag10
ag20
ag5
ag7
ag3
ag14
ag5
ag6
ag5
ag7
ag5
ag6
ag5
ag7
ag5
ag6
ag5
ag7
ag5
ag6
ag1
ag2
ag5
ag6
ag5
ag7
aS'How many ballet class  girls are there in the image ?'
p40
ag9
ag5
ag7
ag9
ag5
ag7
ag3
ag5
ag7
ag5
ag6
ag5
ag7
ag3
aS'How many girls are there in the image ?'
p41
ag10
ag5
ag6
ag4
ag1
ag11
ag10
ag9
ag1
ag2
ag5
ag6
ag10
ag5
ag6
ag5
ag7
ag3
ag10
ag5
ag6
ag5
ag7
ag9
ag1
ag2
ag5
ag6
ag4
ag5
ag6
ag10
ag5
ag6
ag5
ag7
ag3
ag1
ag2
ag1
ag11
ag10
ag1
ag11
ag5
ag7
ag20
ag1
ag2
ag9
ag10
ag5
ag6
ag5
ag7
ag5
ag6
ag4
ag3
ag5
ag7
ag5
ag6
ag14
ag1
ag11
ag4
ag20
ag5
ag7
ag9
ag5
ag7
ag5
ag6
ag18
ag3
ag5
ag7
ag1
ag11
ag5
ag7
ag9
ag15
ag12
ag5
ag7
ag5
ag6
ag5
ag7
ag1
ag11
ag10
ag3
aS'How many sounds  men are there in the image ?'
p42
ag10
ag5
ag6
ag10
ag5
ag6
ag5
ag7
ag9
ag10
ag1
ag11
ag4
ag1
ag11
ag5
ag7
ag3
ag1
ag2
ag3
ag5
ag7
ag1
ag11
ag1
ag2
ag1
ag11
ag26
ag5
ag6
ag4
ag5
ag6
ag5
ag7
ag9
ag5
ag7
ag5
ag6
ag5
ag7
ag9
aS'How many sumo wrestlers are there in the image ?'
p43
ag10
ag5
ag6
ag1
ag2
ag1
ag11
ag5
ag7
ag5
ag6
ag5
ag7
ag5
ag6
ag4
ag27
ag5
ag7
ag5
ag6
ag1
ag2
ag5
ag6
ag5
ag7
ag3
ag5
ag7
ag9
ag5
ag7
ag3
ag5
ag7
ag27
ag5
ag7
ag3
ag5
ag7
ag5
ag6
ag10
ag5
ag6
ag1
ag2
ag9
ag5
ag7
ag5
ag6
ag5
ag7
ag5
ag6
ag4
ag9
ag5
ag7
ag9
ag5
ag7
ag1
ag11
ag5
ag7
ag5
ag6
aS'How many young girl are there in the image ?'
p44
ag10
ag5
ag6
ag5
ag7
ag5
ag6
ag4
ag3
ag5
ag7
ag27
ag4
ag5
ag6
ag5
ag7
ag5
ag6
ag1
ag2
ag3
ag5
ag7
ag9
ag5
ag7
ag3
ag5
ag7
ag9
ag1
ag2
ag3
ag4
ag12
ag5
ag7
ag5
ag6
ag4
ag9
ag10
ag3
ag5
ag7
ag3
ag10
ag5
ag6
ag4
ag3
ag5
ag7
ag5
ag6
ag10
ag3
ag4
ag5
ag6
ag5
ag7
ag5
ag6
ag5
ag7
ag5
ag6
ag10
ag5
ag6
ag1
ag2
ag1
ag11
ag1
ag2
ag1
ag11
ag5
ag7
ag27
ag5
ag7
ag3
ag4
aS'How many helmeted men are there in the image ?'
p45
ag9
ag4
ag5
ag6
aS'How many indian boy are there in the image ?'
p46
ag10
ag1
ag11
ag1
ag2
ag5
ag6
ag4
aS'How many middle  men are there in the image ?'
p47
ag9
ag4
ag5
ag6
ag4
ag1
ag11
ag5
ag7
ag20
ag1
ag2
ag5
ag6
ag5
ag7
ag27
ag1
ag2
ag3
ag5
ag7
ag5
ag6
ag1
ag2
ag5
ag6
ag4
aS'How many teens are there in the image ?'
p48
ag9
ag4
ag1
ag11
ag4
ag5
ag6
ag10
ag5
ag6
ag5
ag7
ag5
ag6
ag4
ag3
ag5
ag7
ag5
ag6
ag18
ag9
ag15
ag1
ag11
ag1
ag2
ag3
ag5
ag7
ag3
ag18
ag5
ag6
ag5
ag7
ag5
ag6
ag5
ag7
ag5
ag6
ag1
ag2
aS'How many geese are present in the image ?'
p49
ag20
ag10
ag20
ag5
ag7
ag5
ag6
ag14
ag3
ag5
ag7
ag1
ag11
ag5
ag7
ag5
ag6
ag5
ag7
ag5
ag6
ag5
ag7
ag3
ag4
ag5
ag6
ag10
ag3
ag14
ag3
ag5
ag7
ag3
ag5
ag7
ag9
ag5
ag7
ag9
ag18
ag5
ag6
aS'How many potential customers are there in the image ?'
p50
ag10
ag5
ag6
ag5
ag7
ag27
ag15
ag9
ag10
ag9
ag5
ag7
ag1
ag11
ag10
aS'How many guys are there in the image ?'
p51
ag9
ag5
ag7
ag9
ag5
ag7
ag5
ag6
ag10
ag3
ag5
ag7
ag5
ag6
ag15
ag1
ag11
ag5
ag7
ag5
ag6
ag4
ag5
ag6
ag1
ag2
ag3
ag5
ag7
ag5
ag6
ag5
ag7
ag5
ag6
ag4
ag5
ag6
ag5
ag7
ag5
ag6
ag5
ag7
ag5
ag6
ag1
ag2
ag1
ag11
ag4
ag5
ag6
ag5
ag7
ag9
ag5
ag7
ag5
ag6
ag5
ag7
ag27
ag10
ag3
ag10
ag1
ag11
ag10
ag3
ag1
ag2
ag5
ag6
ag5
ag7
ag5
ag6
ag5
ag7
ag3
ag18
ag5
ag6
ag10
ag5
ag6
ag5
ag7
ag20
ag18
ag9
ag4
ag9
ag10
ag3
ag5
ag7
ag5
ag6
ag4
ag3
ag4
aS'How many workers are there in the image ?'
p52
ag9
ag10
ag5
ag6
ag15
ag5
ag6
ag5
ag7
ag27
ag1
ag2
ag9
ag5
ag7
ag20
ag1
ag2
aS'How many young guys are there in the image ?'
p53
ag9
ag5
ag7
ag5
ag6
ag4
ag1
ag11
ag5
ag7
ag1
ag11
ag14
ag5
ag6
ag1
ag2
ag5
ag6
ag5
ag7
ag5
ag6
ag5
ag7
ag1
ag11
ag5
ag7
ag5
ag6
ag5
ag7
ag5
ag6
ag5
ag7
ag5
ag6
ag4
ag20
ag10
ag5
ag6
ag5
ag7
ag3
ag4
ag5
ag6
ag5
ag7
ag5
ag6
ag5
ag7
ag9
ag5
ag7
ag5
ag6
ag4
ag5
ag6
ag4
ag5
ag6
aS'How many picture  people are there in the image ?'
p54
ag10
ag1
ag11
ag10
ag5
ag6
ag1
ag2
ag1
ag11
ag18
ag5
ag6
ag5
ag7
ag5
ag6
ag5
ag7
ag3
ag1
ag2
ag3
ag5
ag7
ag5
ag6
ag1
ag2
ag25
ag5
ag7
ag1
ag11
ag5
ag7
ag1
ag11
ag5
ag7
ag5
ag6
ag4
ag1
ag11
ag5
ag7
ag5
ag6
ag48
ag10
ag3
ag10
ag5
ag6
ag18
ag9
ag10
aS'How many vehicles are present in the image ?'
p55
ag12
ag5
ag7
ag1
ag11
aS'How many vendors are there in the image ?'
p56
ag10
ag3
ag15
ag5
ag6
ag5
ag7
ag9
ag4
ag1
ag11
ag4
ag20
ag5
ag7
ag1
ag11
ag4
ag1
ag11
ag5
ag7
ag5
ag6
ag4
ag9
ag1
ag2
ag5
ag6
ag4
ag3
ag5
ag7
ag1
ag11
ag10
ag1
ag11
ag1
ag2
ag5
ag6
ag10
ag3
ag1
ag2
ag5
ag6
ag5
ag7
ag5
ag6
ag18
ag5
ag6
ag1
ag2
ag3
ag5
ag7
ag3
ag1
ag2
ag5
ag6
aS'How many contestants are there in the image ?'
p57
ag10
ag5
ag6
ag5
ag7
ag9
ag5
ag7
ag1
ag11
ag5
ag7
ag9
ag4
ag20
ag1
ag2
ag9
ag14
ag5
ag6
ag5
ag7
ag3
ag1
ag2
ag5
ag6
ag4
ag5
ag6
ag5
ag7
ag9
ag5
ag7
ag3
ag5
ag7
ag5
ag6
aS'How many street workman are there in the image ?'
p58
ag10
ag5
ag6
ag4
ag20
ag1
ag2
ag5
ag6
ag5
ag7
ag3
ag5
ag7
ag9
ag5
ag7
ag3
ag4
ag5
ag6
ag5
ag7
ag3
ag14
ag5
ag6
ag10
ag9
ag1
ag2
ag5
ag6
ag5
ag7
ag5
ag6
ag5
ag7
ag3
ag1
ag2
ag3
ag5
ag7
ag3
ag4
ag1
ag11
ag5
ag7
ag5
ag6
ag10
ag27
ag4
ag5
ag6
ag5
ag7
aS'How many dancers are there in the image ?'
p59
ag9
ag4
ag1
ag11
ag4
ag5
ag6
ag4
ag5
ag6
ag10
ag5
ag6
ag10
ag3
ag4
ag5
ag6
ag15
ag5
ag6
ag4
ag5
ag6
ag5
ag7
ag27
ag1
ag2
ag5
ag6
ag5
ag7
ag27
ag1
ag2
ag3
ag10
ag5
ag6
ag4
ag1
ag11
ag10
ag5
ag6
ag4
ag3
ag10
ag27
ag10
ag9
ag5
ag7
ag5
ag6
ag5
ag7
ag20
ag5
ag7
ag5
ag6
ag5
ag7
ag5
ag6
ag1
ag2
ag5
ag6
ag18
ag3
ag5
ag7
ag27
ag1
ag2
ag9
ag5
ag7
ag3
ag5
ag7
ag3
ag5
ag7
ag5
ag6
ag5
ag7
ag5
ag6
ag4
ag5
ag6
ag18
ag5
ag6
ag10
ag1
ag11
ag10
ag5
ag6
ag5
ag7
ag5
ag6
ag5
ag7
ag1
ag11
ag5
ag7
ag5
ag6
ag5
ag7
ag3
ag5
ag7
ag3
ag4
ag3
ag1
ag2
ag5
ag6
ag5
ag7
ag9
ag14
ag9
ag5
ag7
aS'How many soldiers are there in the image ?'
p60
ag9
ag5
ag7
ag5
ag6
aS'How many foot are present in the image ?'
p61
ag14
ag5
ag6
ag5
ag7
ag5
ag6
ag5
ag7
ag5
ag6
ag5
ag7
ag1
ag11
ag10
ag5
ag6
ag18
ag5
ag6
ag18
ag27
ag5
ag7
ag3
ag4
ag5
ag6
ag4
ag3
ag10
ag1
ag11
ag5
ag7
ag27
ag5
ag7
ag1
ag11
ag10
ag5
ag6
ag5
ag7
ag3
ag10
ag5
ag6
ag4
ag25
ag10
ag3
ag1
ag2
aS'How many bikers are there in the image ?'
p62
ag9
ag1
ag2
ag5
ag6
ag5
ag7
ag5
ag6
ag5
ag7
ag5
ag6
ag1
ag2
ag5
ag6
ag5
ag7
ag5
ag6
ag4
ag5
ag6
ag10
ag1
ag11
ag5
ag7
ag20
ag5
ag7
ag5
ag6
ag1
ag2
ag1
ag11
ag5
ag7
ag9
ag14
ag5
ag6
ag5
ag7
ag5
ag6
ag5
ag7
ag5
ag6
ag5
ag7
ag27
ag5
ag7
ag9
ag5
ag7
ag5
ag6
ag5
ag7
ag5
ag6
ag5
ag7
ag5
ag6
ag5
ag7
ag5
ag6
ag10
ag9
ag5
ag7
ag5
ag6
ag10
ag12
ag10
ag5
ag6
ag18
ag12
ag5
ag7
ag5
ag6
ag5
ag7
ag5
ag6
ag5
ag7
ag1
ag11
ag5
ag7
ag5
ag6
ag4
ag9
ag4
ag3
ag5
ag7
ag1
ag11
ag10
ag5
ag6
aS'How many veterans are there in the image ?'
p63
ag10
ag3
ag5
ag7
ag5
ag6
ag15
ag5
ag6
ag1
ag2
ag1
ag11
ag1
ag2
ag5
ag6
ag4
ag5
ag6
ag5
ag7
ag5
ag6
ag5
ag7
ag1
ag11
ag1
ag2
ag5
ag6
ag10
ag5
ag6
ag5
ag7
ag3
ag5
ag7
ag1
ag11
ag5
ag7
ag5
ag6
ag5
ag7
ag5
ag6
ag4
ag5
ag6
ag4
ag5
ag6
ag10
ag5
ag6
ag1
ag2
ag9
ag5
ag7
ag9
ag4
ag5
ag6
ag1
ag2
ag1
ag11
ag1
ag2
ag5
ag6
ag4
ag5
ag6
ag5
ag7
ag5
ag6
ag5
ag7
ag12
ag4
ag5
ag6
ag10
ag5
ag6
ag5
ag7
ag5
ag6
ag10
ag3
ag5
ag7
ag5
ag6
ag5
ag7
ag3
ag4
ag5
ag6
ag5
ag7
ag5
ag6
ag4
ag5
ag6
ag5
ag7
ag5
ag6
ag1
ag2
ag9
ag5
ag7
ag5
ag6
ag4
ag5
ag6
ag1
ag2
ag5
ag6
ag4
ag5
ag6
ag1
ag2
ag9
ag1
ag2
ag5
ag6
ag10
ag9
ag5
ag7
ag5
ag6
ag4
ag9
ag1
ag2
ag5
ag6
ag10
ag27
ag5
ag7
ag27
ag14
ag20
ag5
ag7
ag3
ag14
ag27
ag10
ag3
ag14
ag1
ag11
ag10
ag9
ag1
ag2
ag5
ag6
aS'How many group  girls are there in the image ?'
p64
ag10
ag1
ag11
ag10
ag3
ag5
ag7
ag3
ag4
ag5
ag6
ag1
ag2
ag5
ag6
ag1
ag2
ag3
ag4
ag1
ag11
ag5
ag7
ag5
ag6
ag10
ag1
ag11
ag5
ag7
ag1
ag11
ag1
ag2
ag1
ag11
ag5
ag7
ag5
ag6
ag4
ag5
ag6
ag26
ag5
ag6
ag5
ag7
ag9
ag5
ag7
ag5
ag6
ag4
ag5
ag6
aS'How many students are there in the image ?'
p65
ag10
ag20
ag5
ag7
ag5
ag6
ag5
ag7
ag5
ag6
ag5
ag7
ag5
ag6
ag1
ag2
ag12
ag5
ag7
ag5
ag6
ag5
ag7
ag5
ag6
ag5
ag7
ag5
ag6
ag1
ag2
ag1
ag11
ag5
ag7
ag3
ag10
ag5
ag6
ag5
ag7
ag3
ag1
ag2
ag9
aS'How many passengers are there in the image ?'
p66
ag10
ag5
ag6
ag18
ag5
ag6
ag1
ag2
ag1
ag11
ag5
ag7
ag5
ag6
ag5
ag7
ag5
ag6
ag5
ag7
ag12
ag4
ag3
ag4
ag5
ag6
ag10
ag1
ag11
ag1
ag2
ag1
ag11
ag5
ag7
ag12
ag5
ag7
ag3
ag4
ag1
ag11
ag4
ag5
ag6
ag4
ag5
ag6
ag4
ag3
aS'How many dogs are present in the image ?'
p67
ag15
ag1
ag11
ag1
ag2
ag3
ag5
ag7
ag5
ag6
ag4
ag5
ag6
ag10
ag1
ag11
ag5
ag7
ag27
ag5
ag7
ag5
ag6
ag4
ag1
ag11
ag18
ag5
ag6
ag5
ag7
ag3
ag5
ag7
ag5
ag6
ag4
ag3
ag4
ag5
ag6
ag5
ag7
ag5
ag6
ag5
ag7
ag1
ag11
ag1
ag2
ag5
ag6
aS'How many wheeled vehicle are present in the image ?'
p68
ag14
ag5
ag6
ag5
ag7
ag5
ag6
ag4
ag1
ag11
ag5
ag7
ag9
ag5
ag7
ag5
ag6
ag10
ag5
ag6
ag5
ag7
ag3
aS'How many fireman are there in the image ?'
p69
ag10
ag5
ag6
ag1
ag2
ag5
ag6
ag5
ag7
aS'How many bridesmaids are there in the image ?'
p70
ag9
aS'How many asian people are there in the image ?'
p71
ag10
ag5
ag6
ag5
ag7
ag25
ag5
ag7
ag3
ag5
ag7
ag5
ag6
ag5
ag7
aS'How many casually dressed men are there in the image ?'
p72
ag9
ag5
ag7
ag5
ag6
ag1
ag2
ag5
ag6
ag10
ag5
ag6
ag4
ag3
ag1
ag2
ag3
ag4
ag9
ag10
ag5
ag6
ag10
ag3
ag1
ag2
ag5
ag6
ag4
ag5
ag6
ag1
ag2
ag1
ag11
ag10
ag5
ag6
ag4
ag5
ag6
ag1
ag2
ag5
ag6
ag5
ag7
ag1
ag11
ag5
ag7
ag5
ag6
ag10
ag5
ag6
ag5
ag7
ag27
ag1
ag2
ag5
ag6
ag5
ag7
ag5
ag6
ag5
ag7
ag5
ag6
ag5
ag7
ag5
ag6
ag4
ag20
ag5
ag7
ag1
ag11
ag5
ag7
ag5
ag6
ag5
ag7
ag9
ag5
ag7
ag9
ag5
ag7
ag5
ag6
ag5
ag7
ag5
ag6
ag5
ag7
ag5
ag6
ag5
ag7
ag9
ag5
ag7
ag5
ag6
ag26
ag5
ag6
ag1
ag2
ag5
ag6
ag4
ag9
ag5
ag7
ag5
ag6
ag10
ag5
ag6
ag5
ag7
ag3
ag5
ag7
ag27
ag5
ag7
ag1
ag11
ag5
ag7
ag3
ag10
ag5
ag6
ag1
ag2
ag5
ag6
ag1
ag2
ag1
ag11
ag5
ag7
ag5
ag6
aS'How many #  horse are present in the image ?'
p73
ag15
ag12
ag5
ag7
ag5
ag6
ag4
ag5
ag6
ag1
ag2
ag5
ag6
ag4
ag9
ag10
ag3
ag5
ag7
ag5
ag6
ag5
ag7
ag5
ag6
ag5
ag7
ag3
ag4
ag5
ag6
ag5
ag7
ag5
ag6
ag4
ag3
ag5
ag7
ag5
ag6
ag5
ag7
ag9
ag4
ag5
ag6
ag26
ag3
ag5
ag7
ag9
ag1
ag2
ag1
ag11
ag5
ag7
ag5
ag6
ag15
ag3
ag18
ag12
ag10
ag5
ag6
ag5
ag7
ag5
ag6
ag4
ag3
ag4
ag5
ag6
ag4
ag1
ag11
ag5
ag7
ag20
ag15
ag1
ag11
ag5
ag7
ag9
ag18
ag3
ag15
ag5
ag6
ag1
ag2
ag3
ag4
ag5
ag6
ag18
ag3
ag18
ag5
ag6
ag4
ag20
ag1
ag2
ag9
ag1
ag2
ag3
ag4
ag5
ag6
ag4
ag3
ag5
ag7
ag9
ag4
ag5
ag6
ag1
ag2
ag27
ag1
ag2
ag9
ag4
ag5
ag6
ag5
ag7
ag5
ag6
ag5
ag7
ag1
ag11
ag5
ag7
aS'How many cheeks  men are there in the image ?'
p74
ag9
ag4
ag3
ag5
ag7
ag3
ag5
ag7
ag5
ag6
ag4
ag9
ag5
ag7
ag5
ag6
ag4
ag3
aS'How many younger kids are there in the image ?'
p75
ag10
ag1
ag11
ag4
ag3
ag1
ag2
ag27
ag1
ag2
ag1
ag11
ag5
ag7
ag5
ag6
ag5
ag7
ag1
ag11
ag1
ag2
ag1
ag11
ag1
ag2
ag5
ag6
ag5
ag7
ag5
ag6
ag1
ag2
ag9
ag4
aS'How many man are there in the image ?'
p76
ag9
ag1
ag2
ag5
ag6
ag1
ag2
ag5
ag6
ag18
ag9
ag10
ag12
ag5
ag7
ag5
ag6
ag5
ag7
ag9
ag5
ag7
ag5
ag6
ag5
ag7
ag5
ag6
ag4
aS'How many child are there in the image ?'
p77
ag9
ag15
ag12
ag5
ag7
ag5
ag6
ag14
ag5
ag6
ag5
ag7
ag1
ag11
ag10
ag9
ag4
ag5
ag6
aS'How many pigs are present in the image ?'
p78
ag15
ag3
ag5
ag7
ag5
ag6
ag4
ag3
ag4
ag5
ag6
ag26
ag9
ag5
ag7
ag5
ag6
ag1
ag2
ag5
ag6
ag5
ag7
ag9
aS'How many swimmers are there in the image ?'
p79
ag10
ag5
ag6
ag4
ag5
ag6
ag5
ag7
ag9
ag1
ag2
ag5
ag6
ag5
ag7
ag3
ag4
ag5
ag6
ag5
ag7
ag20
ag1
ag2
ag5
ag6
ag10
ag9
ag5
ag7
ag5
ag6
ag1
ag2
ag5
ag6
aS'How many boys are there in the image ?'
p80
ag10
ag5
ag6
ag5
ag7
ag1
ag11
ag5
ag7
aS'How many group  men are there in the image ?'
p81
ag9
ag4
ag1
ag11
ag5
ag7
ag3
ag5
ag7
ag3
ag4
ag5
ag6
ag5
ag7
ag1
ag11
ag10
ag5
ag6
a.