(lp0
(lp1
I7
aI5
aa(lp2
I5
aI6
aa(lp3
I5
aI6
aa(lp4
I6
aI2
aa(lp5
I6
aI2
aa(lp6
I2
aI6
aa(lp7
I6
aI5
aa(lp8
I6
aI5
aa(lp9
I6
aI5
aa(lp10
I6
aI5
aa(lp11
I5
aI6
aa(lp12
I6
aI5
aa(lp13
I6
aI5
aa(lp14
I6
aI5
aa(lp15
I5
aI7
aa(lp16
I7
aI6
aa(lp17
I6
aI5
aa(lp18
I6
aI5
aa(lp19
I5
aI6
aa(lp20
I6
aI5
aa(lp21
I5
aI7
aa(lp22
I7
aI6
aa(lp23
I6
aI4
aa(lp24
I4
aI7
aa(lp25
I7
aI6
aa(lp26
I6
aI5
aa(lp27
I5
aI7
aa(lp28
I7
aI6
aa(lp29
I6
aI7
aa(lp30
I6
aI7
aa(lp31
I6
aI7
aa(lp32
I6
aI7
aa(lp33
I7
aI6
aa(lp34
I6
aI5
aa(lp35
I6
aI5
aa(lp36
I5
aI6
aa(lp37
I6
aI5
aa(lp38
I5
aI6
aa(lp39
I6
aI5
aa(lp40
I6
aI5
aa(lp41
I6
aI5
aa(lp42
I5
aI6
aa(lp43
I5
aI6
aa(lp44
I6
aI2
aa(lp45
I6
aI2
aa(lp46
I6
aI2
aa(lp47
I2
aI5
aa(lp48
I5
aI6
aa(lp49
I6
aI5
aa(lp50
I5
aI6
aa(lp51
I6
aI7
aa(lp52
I7
aI4
aa(lp53
I4
aI5
aa(lp54
I5
aI6
aa(lp55
I6
aI4
aa(lp56
I6
aI4
aa(lp57
I6
aI4
aa(lp58
I4
aI5
aa(lp59
I5
aI7
aa(lp60
I7
aI6
aa(lp61
I6
aI5
aa(lp62
I6
aI5
aa(lp63
I6
aI5
aa(lp64
I6
aI5
aa(lp65
I6
aI5
aa(lp66
I6
aI5
aa(lp67
I6
aI5
aa(lp68
I5
aI6
aa(lp69
I6
aI7
aa(lp70
I7
aI6
aa(lp71
I6
aI7
aa(lp72
I7
aI6
aa(lp73
I6
aI7
aa(lp74
I7
aI6
aa(lp75
I6
aI5
aa(lp76
I6
aI5
aa(lp77
I6
aI5
aa(lp78
I5
aI6
aa(lp79
I6
aI7
aa(lp80
I7
aI5
aa(lp81
I5
aI6
aa(lp82
I6
aI2
aa(lp83
I2
aI6
aa(lp84
I6
aI7
aa(lp85
I7
aI2
aa(lp86
I7
aI2
aa(lp87
I2
aI6
aa(lp88
I6
aI5
aa(lp89
I5
aI0
aa(lp90
I5
aI0
aa(lp91
I5
aI0
aa(lp92
I0
aI7
aa(lp93
I7
aI6
aa(lp94
I7
aI6
aa(lp95
I6
aI0
aa(lp96
I0
aI5
aa(lp97
I5
aI7
aa(lp98
I7
aI5
aa(lp99
I5
aI6
aa(lp100
I6
aI2
aa(lp101
I6
aI2
aa(lp102
I2
aI5
aa(lp103
I5
aI6
aa(lp104
I6
aI7
aa(lp105
I6
aI7
aa(lp106
I6
aI7
aa(lp107
I6
aI7
aa(lp108
I7
aI5
aa(lp109
I5
aI7
aa(lp110
I7
aI2
aa(lp111
I2
aI5
aa(lp112
I5
aI6
aa(lp113
I5
aI6
aa(lp114
I6
aI7
aa(lp115
I7
aI6
aa(lp116
I6
aI5
aa(lp117
I5
aI7
aa(lp118
I5
aI7
aa(lp119
I7
aI6
aa(lp120
I6
aI5
aa(lp121
I6
aI5
aa(lp122
I5
aI6
aa(lp123
I6
aI7
aa(lp124
I7
aI6
aa(lp125
I7
aI6
aa(lp126
I7
aI6
aa(lp127
I6
aI7
aa(lp128
I6
aI7
aa(lp129
I6
aI7
aa(lp130
I7
aI6
aa(lp131
I6
aI5
aa(lp132
I6
aI5
aa(lp133
I5
aI6
aa(lp134
I6
aI5
aa(lp135
I5
aI6
aa(lp136
I5
aI6
aa(lp137
I6
aI7
aa(lp138
I7
aI6
aa(lp139
I6
aI7
aa(lp140
I6
aI7
aa(lp141
I7
aI6
aa(lp142
I6
aI4
aa(lp143
I4
aI2
aa(lp144
I4
aI2
aa(lp145
I2
aI6
aa(lp146
I6
aI2
aa(lp147
I2
aI6
aa(lp148
I6
aI5
aa(lp149
I5
aI2
aa(lp150
I5
aI2
aa(lp151
I2
aI6
aa(lp152
I6
aI7
aa(lp153
I7
aI6
aa(lp154
I6
aI7
aa(lp155
I6
aI7
aa(lp156
I7
aI6
aa(lp157
I6
aI5
aa(lp158
I5
aI7
aa(lp159
I5
aI7
aa(lp160
I7
aI5
aa(lp161
I5
aI6
aa(lp162
I6
aI5
aa(lp163
I6
aI5
aa(lp164
I6
aI5
aa(lp165
I6
aI5
aa(lp166
I5
aI6
aa(lp167
I6
aI7
aa(lp168
I7
aI6
aa(lp169
I6
aI7
aa(lp170
I7
aI6
aa(lp171
I6
aI0
aa(lp172
I0
aI6
aa(lp173
I6
aI5
aa(lp174
I6
aI5
aa(lp175
I6
aI5
aa(lp176
I5
aI7
aa(lp177
I7
aI6
aa(lp178
I6
aI0
aa(lp179
I0
aI5
aa(lp180
I5
aI3
aa(lp181
I3
aI7
aa(lp182
I7
aI6
aa(lp183
I6
aI7
aa(lp184
I6
aI7
aa(lp185
I7
aI6
aa(lp186
I6
aI7
aa(lp187
I7
aI6
aa(lp188
I6
aI5
aa(lp189
I6
aI5
aa(lp190
I6
aI5
aa(lp191
I6
aI5
aa(lp192
I5
aI6
aa(lp193
I5
aI6
aa(lp194
I6
aI7
aa(lp195
I7
aI4
aa(lp196
I4
aI6
aa(lp197
I6
aI7
aa(lp198
I6
aI7
aa(lp199
I7
aI6
aa(lp200
I6
aI7
aa(lp201
I7
aI5
aa(lp202
I7
aI5
aa(lp203
I5
aI6
aa(lp204
I6
aI7
aa(lp205
I6
aI7
aa(lp206
I6
aI7
aa(lp207
I6
aI7
aa(lp208
I6
aI7
aa(lp209
I7
aI6
aa(lp210
I6
aI7
aa(lp211
I7
aI6
aa(lp212
I6
aI5
aa(lp213
I6
aI5
aa(lp214
I6
aI5
aa(lp215
I6
aI5
aa(lp216
I5
aI7
aa(lp217
I5
aI7
aa(lp218
I7
aI6
aa(lp219
I6
aI3
aa(lp220
I6
aI3
aa(lp221
I3
aI5
aa(lp222
I5
aI7
aa(lp223
I7
aI6
aa(lp224
I6
aI7
aa(lp225
I6
aI7
aa(lp226
I7
aI6
aa(lp227
I7
aI6
aa(lp228
I6
aI5
aa(lp229
I6
aI5
aa(lp230
I6
aI5
aa(lp231
I5
aI6
aa(lp232
I6
aI5
aa(lp233
I5
aI6
aa(lp234
I6
aI3
aa(lp235
I6
aI3
aa(lp236
I6
aI3
aa(lp237
I3
aI6
aa(lp238
I6
aI5
aa(lp239
I6
aI5
aa(lp240
I5
aI6
aa(lp241
I6
aI7
aa(lp242
I7
aI0
aa(lp243
I0
aI5
aa(lp244
I5
aI3
aa(lp245
I5
aI3
aa(lp246
I3
aI5
aa(lp247
I5
aI0
aa(lp248
I0
aI6
aa(lp249
I6
aI5
aa(lp250
I5
aI0
aa(lp251
I5
aI0
aa(lp252
I0
aI4
aa(lp253
I4
aI6
aa(lp254
I6
aI7
aa(lp255
I7
aI5
aa(lp256
I5
aI6
aa(lp257
I6
aI5
aa(lp258
I5
aI6
aa(lp259
I6
aI7
aa(lp260
I7
aI6
aa(lp261
I6
aI5
aa(lp262
I6
aI5
aa(lp263
I5
aI6
aa(lp264
I6
aI5
aa(lp265
I6
aI5
aa(lp266
I5
aI7
aa(lp267
I7
aI6
aa(lp268
I6
aI7
aa(lp269
I6
aI7
aa(lp270
I6
aI7
aa(lp271
I7
aI6
aa(lp272
I6
aI5
aa(lp273
I6
aI5
aa(lp274
I6
aI5
aa(lp275
I6
aI5
aa(lp276
I6
aI5
aa(lp277
I5
aI6
aa(lp278
I6
aI7
aa(lp279
I7
aI5
aa(lp280
I5
aI7
aa(lp281
I7
aI4
aa(lp282
I4
aI7
aa(lp283
I7
aI6
aa(lp284
I6
aI2
aa(lp285
I2
aI5
aa(lp286
I5
aI1
aa(lp287
I1
aI2
aa(lp288
I2
aI5
aa(lp289
I5
aI0
aa(lp290
I0
aI7
aa(lp291
I7
aI6
aa(lp292
I6
aI5
aa(lp293
I6
aI5
aa(lp294
I6
aI5
aa(lp295
I6
aI5
aa(lp296
I5
aI4
aa(lp297
I4
aI6
aa(lp298
I6
aI5
aa(lp299
I6
aI5
aa(lp300
I5
aI6
aa(lp301
I6
aI5
aa(lp302
I5
aI6
aa(lp303
I5
aI6
aa(lp304
I6
aI7
aa(lp305
I6
aI7
aa(lp306
I6
aI7
aa(lp307
I6
aI7
aa(lp308
I6
aI7
aa(lp309
I6
aI7
aa(lp310
I7
aI5
aa(lp311
I5
aI6
aa(lp312
I6
aI5
aa(lp313
I6
aI5
aa(lp314
I5
aI7
aa(lp315
I7
aI6
aa(lp316
I7
aI6
aa(lp317
I6
aI5
aa(lp318
I5
aI4
aa(lp319
I4
aI6
aa(lp320
I6
aI7
aa(lp321
I7
aI6
aa(lp322
I6
aI7
aa(lp323
I7
aI6
aa(lp324
I6
aI7
aa(lp325
I6
aI7
aa(lp326
I6
aI7
aa(lp327
I6
aI7
aa(lp328
I7
aI4
aa(lp329
I4
aI5
aa(lp330
I5
aI7
aa(lp331
I7
aI6
aa(lp332
I7
aI6
aa(lp333
I6
aI2
aa(lp334
I6
aI2
aa(lp335
I6
aI2
aa(lp336
I6
aI2
aa(lp337
I6
aI2
aa(lp338
I6
aI2
aa(lp339
I6
aI2
aa(lp340
I2
aI5
aa(lp341
I5
aI3
aa(lp342
I3
aI6
aa(lp343
I6
aI5
aa(lp344
I6
aI5
aa(lp345
I6
aI5
aa(lp346
I5
aI6
aa(lp347
I5
aI6
aa(lp348
I6
aI5
aa(lp349
I5
aI6
aa(lp350
I5
aI6
aa(lp351
I5
aI6
aa(lp352
I6
aI7
aa(lp353
I6
aI7
aa(lp354
I6
aI7
aa(lp355
I6
aI7
aa(lp356
I7
aI0
aa(lp357
I0
aI5
aa(lp358
I5
aI6
aa(lp359
I6
aI5
aa(lp360
I6
aI5
aa(lp361
I5
aI6
aa(lp362
I6
aI5
aa(lp363
I6
aI5
aa(lp364
I6
aI5
aa(lp365
I6
aI5
aa(lp366
I5
aI2
aa(lp367
I2
aI5
aa(lp368
I5
aI4
aa(lp369
I4
aI5
aa(lp370
I5
aI7
aa(lp371
I7
aI6
aa(lp372
I6
aI7
aa(lp373
I7
aI6
aa(lp374
I6
aI7
aa(lp375
I7
aI6
aa(lp376
I7
aI6
aa(lp377
I6
aI0
aa(lp378
I0
aI6
aa(lp379
I6
aI7
aa(lp380
I6
aI7
aa(lp381
I6
aI7
aa(lp382
I6
aI7
aa(lp383
I6
aI7
aa(lp384
I7
aI0
aa(lp385
I0
aI7
aa(lp386
I7
aI5
aa(lp387
I5
aI6
aa(lp388
I5
aI6
aa(lp389
I6
aI5
aa(lp390
I6
aI5
aa(lp391
I6
aI5
aa(lp392
I6
aI5
aa(lp393
I6
aI5
aa(lp394
I6
aI5
aa(lp395
I5
aI7
aa(lp396
I7
aI6
aa(lp397
I6
aI7
aa(lp398
I7
aI5
aa(lp399
I5
aI6
aa(lp400
I5
aI6
aa(lp401
I6
aI7
aa(lp402
I6
aI7
aa(lp403
I7
aI0
aa(lp404
I0
aI5
aa(lp405
I5
aI4
aa(lp406
I5
aI4
aa(lp407
I4
aI6
aa(lp408
I6
aI5
aa(lp409
I6
aI5
aa(lp410
I5
aI6
aa(lp411
I6
aI4
aa(lp412
I6
aI4
aa(lp413
I4
aI7
aa(lp414
I7
aI0
aa(lp415
I7
aI0
aa(lp416
I0
aI6
aa(lp417
I6
aI2
aa(lp418
I2
aI5
aa(lp419
I2
aI5
aa(lp420
I5
aI0
aa(lp421
I0
aI6
aa(lp422
I6
aI7
aa(lp423
I6
aI7
aa(lp424
I6
aI7
aa(lp425
I7
aI0
aa(lp426
I0
aI6
aa(lp427
I6
aI2
aa(lp428
I6
aI2
aa(lp429
I2
aI6
aa(lp430
I6
aI5
aa(lp431
I6
aI5
aa(lp432
I5
aI6
aa(lp433
I6
aI0
aa(lp434
I6
aI0
aa(lp435
I6
aI0
aa(lp436
I6
aI0
aa(lp437
I0
aI7
aa(lp438
I7
aI6
aa(lp439
I6
aI7
aa(lp440
I6
aI7
aa(lp441
I6
aI7
aa(lp442
I7
aI6
aa(lp443
I6
aI5
aa(lp444
I6
aI5
aa(lp445
I5
aI6
aa(lp446
I6
aI7
aa(lp447
I6
aI7
aa(lp448
I6
aI7
aa(lp449
I7
aI6
aa(lp450
I6
aI0
aa(lp451
I6
aI0
aa(lp452
I0
aI6
aa(lp453
I6
aI5
aa(lp454
I6
aI5
aa(lp455
I6
aI5
aa(lp456
I6
aI5
aa(lp457
I5
aI6
aa(lp458
I6
aI7
aa(lp459
I6
aI7
aa(lp460
I7
aI2
aa(lp461
I7
aI2
aa(lp462
I7
aI2
aa(lp463
I2
aI6
aa(lp464
I2
aI6
aa(lp465
I6
aI5
aa(lp466
I5
aI7
aa(lp467
I5
aI7
aa(lp468
I5
aI7
aa(lp469
I5
aI7
aa(lp470
I7
aI5
aa(lp471
I5
aI6
aa(lp472
I6
aI4
aa(lp473
I6
aI4
aa(lp474
I4
aI7
aa(lp475
I7
aI6
aa(lp476
I6
aI4
aa(lp477
I6
aI4
aa(lp478
I6
aI4
aa(lp479
I6
aI4
aa(lp480
I6
aI4
aa(lp481
I4
aI6
aa(lp482
I6
aI7
aa(lp483
I7
aI5
aa(lp484
I5
aI7
aa(lp485
I7
aI5
aa(lp486
I7
aI5
aa(lp487
I5
aI0
aa(lp488
I5
aI0
aa(lp489
I0
aI6
aa(lp490
I6
aI5
aa(lp491
I6
aI5
aa(lp492
I6
aI5
aa(lp493
I6
aI5
aa(lp494
I5
aI0
aa(lp495
I0
aI6
aa(lp496
I6
aI5
aa(lp497
I6
aI5
aa(lp498
I6
aI5
aa(lp499
I6
aI5
aa(lp500
I5
aI6
aa(lp501
I6
aI7
aa(lp502
I6
aI7
aa(lp503
I7
aI6
aa(lp504
I6
aI7
aa(lp505
I6
aI7
aa(lp506
I6
aI7
aa(lp507
I7
aI6
aa(lp508
I6
aI7
aa(lp509
I6
aI7
aa(lp510
I7
aI6
aa(lp511
I6
aI4
aa(lp512
I6
aI4
aa(lp513
I6
aI4
aa(lp514
I4
aI7
aa(lp515
I7
aI6
aa(lp516
I6
aI5
aa(lp517
I5
aI6
aa(lp518
I6
aI5
aa(lp519
I6
aI5
aa(lp520
I6
aI5
aa(lp521
I5
aI6
aa(lp522
I6
aI5
aa(lp523
I5
aI7
aa(lp524
I7
aI6
aa(lp525
I7
aI6
aa(lp526
I7
aI6
aa(lp527
I6
aI7
aa(lp528
I7
aI6
aa(lp529
I7
aI6
aa(lp530
I6
aI2
aa(lp531
I6
aI2
aa(lp532
I6
aI2
aa(lp533
I2
aI6
aa(lp534
I6
aI7
aa(lp535
I7
aI5
aa(lp536
I5
aI7
aa(lp537
I7
aI4
aa(lp538
I4
aI7
aa(lp539
I7
aI6
aa(lp540
I6
aI7
aa(lp541
I6
aI7
aa(lp542
I6
aI7
aa(lp543
I7
aI6
aa(lp544
I6
aI7
aa(lp545
I6
aI7
aa(lp546
I7
aI6
aa(lp547
I6
aI7
aa(lp548
I7
aI6
aa(lp549
I7
aI6
aa(lp550
I6
aI5
aa(lp551
I6
aI5
aa(lp552
I5
aI6
aa(lp553
I6
aI7
aa(lp554
I6
aI7
aa(lp555
I6
aI7
aa(lp556
I7
aI6
aa(lp557
I6
aI7
aa(lp558
I7
aI6
aa(lp559
I6
aI7
aa(lp560
I6
aI7
aa(lp561
I6
aI7
aa(lp562
I6
aI7
aa(lp563
I6
aI7
aa(lp564
I6
aI7
aa(lp565
I7
aI6
aa(lp566
I6
aI5
aa(lp567
I6
aI5
aa(lp568
I6
aI5
aa(lp569
I5
aI4
aa(lp570
I4
aI6
aa(lp571
I6
aI7
aa(lp572
I6
aI7
aa(lp573
I6
aI7
aa(lp574
I6
aI7
aa(lp575
I6
aI7
aa(lp576
I6
aI7
aa(lp577
I6
aI7
aa(lp578
I7
aI6
aa(lp579
I6
aI2
aa(lp580
I6
aI2
aa(lp581
I2
aI6
aa(lp582
I6
aI5
aa(lp583
I6
aI5
aa(lp584
I5
aI6
aa(lp585
I6
aI5
aa(lp586
I6
aI5
aa(lp587
I6
aI5
aa(lp588
I5
aI2
aa(lp589
I2
aI6
aa(lp590
I6
aI5
aa(lp591
I5
aI7
aa(lp592
I7
aI6
aa(lp593
I7
aI6
aa(lp594
I6
aI5
aa(lp595
I6
aI5
aa(lp596
I6
aI5
aa(lp597
I5
aI6
aa(lp598
I6
aI7
aa(lp599
I6
aI7
aa(lp600
I7
aI6
aa(lp601
I6
aI5
aa(lp602
I5
aI6
aa(lp603
I6
aI5
aa(lp604
I6
aI5
aa(lp605
I6
aI5
aa(lp606
I5
aI7
aa(lp607
I7
aI6
aa(lp608
I7
aI6
aa(lp609
I7
aI6
aa(lp610
I6
aI7
aa(lp611
I7
aI6
aa(lp612
I6
aI5
aa(lp613
I6
aI5
aa(lp614
I6
aI5
aa(lp615
I5
aI6
aa(lp616
I5
aI6
aa(lp617
I6
aI4
aa(lp618
I6
aI4
aa(lp619
I4
aI7
aa(lp620
I7
aI5
aa(lp621
I5
aI6
aa(lp622
I6
aI0
aa(lp623
I6
aI0
aa(lp624
I6
aI0
aa(lp625
I0
aI5
aa(lp626
I5
aI6
aa(lp627
I6
aI7
aa(lp628
I7
aI6
aa(lp629
I6
aI4
aa(lp630
I4
aI6
aa(lp631
I6
aI7
aa(lp632
I6
aI7
aa(lp633
I6
aI7
aa(lp634
I7
aI5
aa(lp635
I5
aI2
aa(lp636
I2
aI6
aa(lp637
I6
aI7
aa(lp638
I6
aI7
aa(lp639
I6
aI7
aa(lp640
I7
aI5
aa(lp641
I5
aI7
aa(lp642
I7
aI6
aa(lp643
I6
aI5
aa(lp644
I5
aI7
aa(lp645
I7
aI5
aa(lp646
I5
aI6
aa(lp647
I6
aI7
aa(lp648
I7
aI3
aa(lp649
I7
aI3
aa(lp650
I7
aI3
aa(lp651
I3
aI6
aa(lp652
I6
aI5
aa(lp653
I5
aI6
aa(lp654
I6
aI2
aa(lp655
I6
aI2
aa(lp656
I6
aI2
aa(lp657
I6
aI2
aa(lp658
I6
aI2
aa(lp659
I2
aI6
aa(lp660
I6
aI7
aa(lp661
I7
aI6
aa(lp662
I7
aI6
aa(lp663
I6
aI5
aa(lp664
I6
aI5
aa(lp665
I6
aI5
aa(lp666
I6
aI5
aa(lp667
I5
aI0
aa(lp668
I0
aI6
aa(lp669
I6
aI7
aa(lp670
I6
aI7
aa(lp671
I7
aI6
aa(lp672
I6
aI5
aa(lp673
I6
aI5
aa(lp674
I5
aI6
aa(lp675
I6
aI5
aa(lp676
I6
aI5
aa(lp677
I5
aI6
aa(lp678
I6
aI0
aa(lp679
I0
aI6
aa(lp680
I6
aI5
aa(lp681
I5
aI6
aa(lp682
I6
aI7
aa(lp683
I6
aI7
aa(lp684
I6
aI7
aa(lp685
I7
aI6
aa(lp686
I6
aI5
aa(lp687
I6
aI5
aa(lp688
I6
aI5
aa(lp689
I6
aI5
aa(lp690
I5
aI6
aa(lp691
I6
aI7
aa(lp692
I6
aI7
aa(lp693
I7
aI6
aa(lp694
I6
aI2
aa(lp695
I6
aI2
aa(lp696
I2
aI6
aa(lp697
I6
aI5
aa(lp698
I6
aI5
aa(lp699
I6
aI5
aa(lp700
I5
aI6
aa(lp701
I5
aI6
aa(lp702
I6
aI0
aa(lp703
I0
aI5
aa(lp704
I5
aI6
aa(lp705
I6
aI7
aa(lp706
I6
aI7
aa(lp707
I6
aI7
aa(lp708
I7
aI5
aa(lp709
I5
aI6
aa(lp710
I6
aI5
aa(lp711
I6
aI5
aa(lp712
I5
aI6
aa(lp713
I6
aI7
aa(lp714
I7
aI5
aa(lp715
I5
aI4
aa(lp716
I5
aI4
aa(lp717
I4
aI6
aa(lp718
I6
aI5
aa(lp719
I6
aI5
aa(lp720
I5
aI6
aa(lp721
I5
aI6
aa(lp722
I6
aI5
aa(lp723
I5
aI6
aa(lp724
I6
aI5
aa(lp725
I5
aI6
aa(lp726
I5
aI6
aa(lp727
I6
aI5
aa(lp728
I6
aI5
aa(lp729
I5
aI6
aa(lp730
I5
aI6
aa(lp731
I6
aI7
aa(lp732
I6
aI7
aa(lp733
I6
aI7
aa(lp734
I6
aI7
aa(lp735
I6
aI7
aa(lp736
I6
aI7
aa(lp737
I7
aI6
aa(lp738
I7
aI6
aa(lp739
I7
aI6
aa(lp740
I7
aI6
aa(lp741
I6
aI0
aa(lp742
I0
aI6
aa(lp743
I6
aI5
aa(lp744
I5
aI2
aa(lp745
I5
aI2
aa(lp746
I2
aI5
aa(lp747
I5
aI6
aa(lp748
I6
aI2
aa(lp749
I2
aI7
aa(lp750
I7
aI6
aa(lp751
I7
aI6
aa(lp752
I6
aI5
aa(lp753
I5
aI2
aa(lp754
I2
aI5
aa(lp755
I5
aI6
aa(lp756
I6
aI5
aa(lp757
I5
aI7
aa(lp758
I7
aI6
aa(lp759
I6
aI7
aa(lp760
I7
aI6
aa(lp761
I6
aI0
aa(lp762
I6
aI0
aa(lp763
I0
aI7
aa(lp764
I7
aI5
aa(lp765
I5
aI6
aa(lp766
I6
aI7
aa(lp767
I6
aI7
aa(lp768
I7
aI6
aa(lp769
I6
aI5
aa(lp770
I5
aI2
aa(lp771
I2
aI5
aa(lp772
I5
aI7
aa(lp773
I7
aI5
aa(lp774
I5
aI6
aa(lp775
I6
aI5
aa(lp776
I6
aI5
aa(lp777
I6
aI5
aa(lp778
I6
aI5
aa(lp779
I5
aI6
aa(lp780
I5
aI6
aa(lp781
I6
aI0
aa(lp782
I6
aI0
aa(lp783
I0
aI7
aa(lp784
I7
aI5
aa(lp785
I7
aI5
aa(lp786
I5
aI6
aa(lp787
I6
aI5
aa(lp788
I5
aI0
aa(lp789
I0
aI6
aa(lp790
I6
aI7
aa(lp791
I6
aI7
aa(lp792
I6
aI7
aa(lp793
I6
aI7
aa(lp794
I6
aI7
aa(lp795
I7
aI1
aa(lp796
I1
aI6
aa(lp797
I6
aI4
aa(lp798
I6
aI4
aa(lp799
I4
aI5
aa(lp800
I5
aI6
aa(lp801
I6
aI7
aa(lp802
I7
aI6
aa(lp803
I6
aI5
aa(lp804
I6
aI5
aa(lp805
I6
aI5
aa(lp806
I6
aI5
aa(lp807
I6
aI5
aa(lp808
I5
aI6
aa(lp809
I5
aI6
aa(lp810
I6
aI5
aa(lp811
I5
aI4
aa(lp812
I4
aI5
aa(lp813
I5
aI6
aa(lp814
I6
aI5
aa(lp815
I5
aI6
aa(lp816
I6
aI0
aa(lp817
I6
aI0
aa(lp818
I0
aI6
aa(lp819
I6
aI2
aa(lp820
I2
aI6
aa(lp821
I6
aI0
aa(lp822
I6
aI0
aa(lp823
I0
aI6
aa(lp824
I6
aI7
aa(lp825
I7
aI2
aa(lp826
I2
aI6
aa(lp827
I6
aI5
aa(lp828
I6
aI5
aa(lp829
I6
aI5
aa(lp830
I5
aI6
aa(lp831
I6
aI7
aa(lp832
I6
aI7
aa(lp833
I7
aI6
aa(lp834
I6
aI5
aa(lp835
I6
aI5
aa(lp836
I5
aI6
aa(lp837
I6
aI7
aa(lp838
I7
aI5
aa(lp839
I5
aI6
aa(lp840
I6
aI5
aa(lp841
I6
aI5
aa(lp842
I6
aI5
aa(lp843
I6
aI5
aa(lp844
I5
aI6
aa(lp845
I6
aI6
aa(lp846
I6
aI6
aa(lp847
I6
aI6
aa(lp848
I6
aI6
aa.