(lp0
S'What is the person in the image wearing ?'
p1
aS'What is the type of clothing present in the image ?'
p2
aS'Select the type of scene present in the image ?'
p3
aS'What is the type of scene present in the image ?'
p4
aS'Which of the following is present in the image ?'
p5
ag5
aS'How many youngsters are there in the image ?'
p6
aS'Select the type of people present in the image ?'
p7
ag5
ag5
ag5
ag5
ag4
ag5
ag5
ag5
ag3
aS'What is the type of people present in the image ?'
p8
ag7
ag1
ag2
ag5
ag5
ag3
ag5
ag4
ag1
aS'Select the type of clothing present in the image ?'
p9
ag5
aS'What is the type of vehicles present in the image ?'
p10
ag1
ag9
ag5
ag4
ag1
ag9
ag5
ag5
ag5
ag5
ag8
ag1
ag9
ag8
ag7
ag8
ag5
ag5
ag3
ag5
ag4
ag5
ag5
ag5
ag7
ag4
ag7
ag4
ag5
ag5
ag5
aS'How many roommates are there in the image ?'
p11
ag7
ag4
ag5
ag3
ag5
ag1
ag2
aS'Select the type of vehicles present in the image ?'
p12
ag4
ag5
ag5
ag5
ag12
ag4
ag1
ag9
ag5
ag5
ag5
ag5
ag5
ag5
ag8
ag5
ag3
ag5
ag1
ag2
ag5
ag1
ag9
ag5
ag1
ag2
ag5
ag5
ag5
ag3
ag8
aS'Select the type of animals present in the image ?'
p13
ag8
ag5
ag1
ag9
ag4
ag5
aS'How many adolescent girls are there in the image ?'
p14
ag7
ag5
ag8
ag1
ag9
ag1
ag2
aS'How many older boy scouts are there in the image ?'
p15
ag7
ag5
ag4
ag3
ag4
aS'Select the type of bodyparts present in the image ?'
p16
ag1
ag2
ag1
ag9
ag5
aS'What is the type of bodyparts present in the image ?'
p17
ag7
ag4
ag1
ag9
ag8
ag3
ag5
ag5
aS'How many cyclist are there in the image ?'
p18
ag8
ag3
ag5
ag5
ag5
ag5
ag1
ag2
ag13
ag4
ag7
ag1
ag2
aS'How many asian chefs are there in the image ?'
p19
ag7
ag4
ag3
ag5
ag1
ag2
ag5
ag3
ag4
ag1
ag9
ag5
ag5
ag4
ag5
ag1
ag9
ag1
ag2
ag1
ag9
ag5
ag5
ag5
ag1
ag2
ag5
ag5
ag7
ag4
ag5
ag3
ag4
ag5
ag1
ag9
ag8
ag5
ag5
ag7
ag1
ag2
ag7
ag5
ag10
ag12
ag8
ag7
aS'How many kayakers are there in the image ?'
p20
ag8
ag5
aS'How many person are there in the image ?'
p21
ag7
ag5
ag8
ag3
ag4
aS'How many chefs are there in the image ?'
p22
ag7
ag8
ag5
ag7
ag8
ag1
ag9
ag5
ag8
ag5
ag1
ag9
ag5
ag4
ag3
ag8
ag1
ag9
ag8
ag3
ag5
ag5
ag5
ag5
ag4
ag5
ag7
ag1
ag2
ag5
ag1
ag9
ag5
ag17
ag5
ag5
ag5
ag3
ag1
ag2
ag5
ag7
ag17
ag7
ag4
aS'Select the type of instruments present in the image ?'
p23
ag8
ag1
ag9
ag5
ag5
ag1
ag2
ag5
ag7
ag1
ag2
ag5
ag5
ag5
ag5
ag7
ag4
ag3
ag5
ag1
ag2
ag12
ag5
ag5
ag1
ag2
ag5
ag1
ag9
ag1
ag2
ag3
ag5
ag8
ag7
ag5
ag5
ag5
ag5
ag1
ag2
ag5
ag1
ag9
ag8
ag5
ag5
ag5
ag5
ag3
ag4
ag1
ag9
ag8
ag5
ag5
ag23
ag8
ag3
ag1
ag2
ag5
ag5
ag1
ag9
ag1
ag2
ag5
ag5
ag5
ag3
ag5
ag4
ag5
ag5
ag5
ag23
ag5
ag5
ag8
ag3
ag5
ag1
ag2
ag7
ag17
ag3
ag4
ag23
ag4
ag13
ag17
ag5
ag3
ag4
ag16
ag8
ag7
aS'How many wheeled bikes are present in the image ?'
p24
ag10
ag5
ag1
ag9
ag4
ag5
ag3
ag5
ag1
ag2
ag13
ag5
ag5
ag8
ag3
ag5
ag5
ag4
ag1
ag9
ag5
ag5
ag5
ag1
ag2
ag7
aS'What is the type of animals present in the image ?'
p25
ag5
ag5
ag5
ag5
ag5
ag3
ag5
ag1
ag2
ag3
ag1
ag2
ag12
ag1
ag2
ag5
aS'How many boy are there in the image ?'
p26
ag7
ag4
aS'How many dog are present in the image ?'
p27
ag13
aS'How many veteran guy are there in the image ?'
p28
ag8
ag3
ag17
ag1
ag9
ag5
ag8
ag5
ag5
ag5
ag3
ag10
ag5
ag5
ag3
ag5
ag8
ag7
ag4
ag7
ag4
ag5
ag5
ag7
ag5
ag5
ag8
ag5
ag13
ag5
ag8
ag1
ag9
ag4
ag5
ag5
ag3
ag8
ag1
ag9
ag1
ag2
ag5
ag3
ag10
ag5
ag1
ag9
ag5
ag1
ag2
ag5
ag5
ag5
ag5
ag13
ag25
ag1
ag9
ag8
ag12
ag25
ag3
ag1
ag2
ag1
ag9
ag5
ag5
ag5
ag5
ag5
ag5
ag5
aS'How many female are there in the image ?'
p29
ag8
ag3
aS'What is the type of instruments present in the image ?'
p30
ag5
ag5
ag5
ag3
ag4
ag5
ag3
ag4
ag3
ag5
ag5
ag5
ag5
ag1
ag2
ag16
ag4
ag5
ag5
ag3
ag5
ag5
ag5
ag5
ag25
ag3
aS'How many women swimmers are there in the image ?'
p31
ag8
ag3
ag10
ag3
ag1
ag2
ag7
ag5
ag1
ag2
ag5
ag1
ag9
ag1
ag2
ag5
ag16
ag5
ag8
ag5
ag13
ag8
ag5
ag5
ag5
ag1
ag9
ag17
ag1
ag9
ag4
ag3
ag5
ag5
ag5
ag5
ag5
ag5
ag4
ag1
ag9
ag8
ag5
ag1
ag9
ag4
ag3
ag5
ag8
ag5
ag13
ag1
ag2
ag16
ag4
ag3
ag10
ag5
ag5
ag7
ag4
ag5
ag5
ag12
ag1
ag2
ag1
ag9
ag17
ag5
ag7
aS'How many shoulders  children are there in the image ?'
p32
ag8
aS'How many army men are there in the image ?'
p33
ag7
ag8
ag7
ag4
ag16
ag5
ag8
ag5
ag5
ag1
ag9
ag8
ag16
ag5
ag5
aS'How many younger child are there in the image ?'
p34
ag8
ag7
ag5
ag5
ag4
ag7
ag5
ag5
ag5
ag5
ag17
ag1
ag9
ag5
ag5
ag5
ag1
ag2
ag7
ag5
ag5
ag4
ag5
ag5
ag5
ag7
ag1
ag2
ag5
ag5
ag16
ag5
ag5
ag5
ag8
ag5
ag3
ag5
ag5
ag1
ag2
ag1
ag9
ag1
ag2
ag7
ag8
aS'How many guy are there in the image ?'
p35
ag7
aS'How many young siblings are there in the image ?'
p36
ag8
ag5
ag3
ag4
ag3
ag4
ag1
ag9
ag4
ag5
ag5
ag12
ag1
ag2
ag7
ag5
ag5
ag5
ag5
ag5
ag10
ag5
ag1
ag9
ag8
ag3
ag1
ag2
ag1
ag9
ag4
ag3
ag17
ag13
ag5
ag5
ag5
ag5
ag4
ag16
ag8
ag5
ag7
ag5
ag5
ag8
ag5
ag7
ag4
ag5
ag5
ag1
ag9
ag5
ag5
ag5
ag1
ag2
ag5
ag5
ag1
ag9
ag8
ag5
ag5
ag5
ag12
ag1
ag2
ag5
ag3
ag5
ag5
ag5
ag4
ag5
ag3
ag8
ag1
ag9
ag1
ag2
ag1
ag9
ag5
ag1
ag2
ag1
ag9
ag5
ag8
ag5
ag5
aS'How many ambulance workers are there in the image ?'
p37
ag7
ag5
ag1
ag2
ag7
ag4
ag1
ag9
ag10
ag1
ag9
ag5
ag5
ag5
ag1
ag2
ag13
ag5
ag5
ag1
ag2
ag5
ag1
ag9
ag1
ag2
ag5
ag5
ag3
ag5
ag5
ag5
ag1
ag2
ag5
ag1
ag9
ag8
ag5
ag5
ag5
ag5
ag5
ag7
ag25
ag5
ag1
ag9
ag5
ag5
ag8
ag13
ag5
ag4
ag12
ag5
ag5
ag5
ag5
ag5
ag5
ag5
ag1
ag2
ag5
ag5
aS'How many ballet class  girls are there in the image ?'
p38
ag7
ag5
ag8
ag5
ag3
ag5
ag5
ag5
ag4
aS'How many girls are there in the image ?'
p39
ag7
ag5
ag4
ag1
ag9
ag8
ag7
ag1
ag2
ag5
ag7
ag5
ag5
ag4
ag7
ag5
ag5
ag8
ag1
ag9
ag5
ag4
ag5
ag7
ag5
ag5
ag4
ag1
ag9
ag1
ag2
ag7
ag1
ag2
ag5
ag13
ag1
ag2
ag7
ag8
ag5
ag5
ag5
ag3
ag4
ag5
ag5
ag12
ag1
ag2
ag3
ag25
ag5
ag7
ag5
ag5
ag17
ag3
ag5
ag1
ag2
ag5
ag7
ag25
ag12
ag5
ag5
ag5
ag1
ag2
ag7
ag4
aS'How many sounds  men are there in the image ?'
p40
ag7
ag5
ag8
ag5
ag5
ag7
ag8
ag1
ag9
ag4
ag1
ag9
ag5
ag4
ag1
ag9
ag4
ag5
ag1
ag9
ag1
ag2
ag1
ag9
ag30
ag5
ag3
ag5
ag5
ag8
ag5
ag5
ag5
ag7
aS'How many sumo wrestlers are there in the image ?'
p41
ag8
ag5
ag1
ag9
ag1
ag2
ag5
ag5
ag5
ag5
ag3
ag17
ag5
ag5
ag1
ag9
ag5
ag5
ag4
ag5
ag7
ag5
ag4
ag5
ag16
ag5
ag4
ag5
ag5
ag7
ag5
ag1
ag2
ag7
ag5
ag5
ag5
ag5
ag4
ag7
ag5
ag8
ag5
ag1
ag9
ag5
ag5
aS'How many young girl are there in the image ?'
p42
ag8
ag5
ag5
ag5
ag3
ag4
ag5
ag16
ag4
ag5
ag5
ag5
ag1
ag9
ag4
ag5
ag7
ag5
ag4
ag5
ag7
ag1
ag2
ag3
ag4
ag12
ag5
ag5
ag4
ag7
ag8
ag3
ag5
ag4
ag7
ag5
ag4
ag3
ag5
ag5
ag8
ag3
ag4
ag5
ag5
ag5
ag5
ag5
ag7
ag5
ag1
ag2
ag1
ag9
ag1
ag2
ag1
ag9
ag5
ag17
ag5
ag3
ag4
aS'How many helmeted men are there in the image ?'
p43
ag7
ag4
ag5
aS'How many indian boy are there in the image ?'
p44
ag7
ag1
ag2
ag1
ag9
ag5
ag4
aS'How many middle  men are there in the image ?'
p45
ag7
ag4
ag5
ag3
ag1
ag2
ag5
ag13
ag1
ag2
ag5
ag5
ag16
ag1
ag2
ag3
ag5
ag5
ag1
ag2
ag5
ag3
aS'How many teens are there in the image ?'
p46
ag8
ag3
ag1
ag2
ag3
ag5
ag8
ag5
ag5
ag5
ag3
ag4
ag5
ag5
ag16
ag8
ag13
ag1
ag2
ag1
ag9
ag4
ag5
ag3
ag17
ag5
ag5
ag5
ag5
ag5
ag1
ag9
aS'How many geese are present in the image ?'
p47
ag25
ag7
ag25
ag5
ag5
ag12
ag4
ag5
ag1
ag9
ag5
ag5
ag5
ag5
ag5
ag4
ag3
ag5
ag8
ag3
ag10
ag3
ag5
ag4
ag5
ag7
ag5
ag8
ag16
ag5
aS'How many potential customers are there in the image ?'
p48
ag8
ag5
ag5
ag16
ag25
ag7
ag8
ag7
ag5
ag1
ag2
ag7
aS'How many guys are there in the image ?'
p49
ag8
ag5
ag7
ag5
ag5
ag8
ag3
ag5
ag5
ag25
ag1
ag9
ag5
ag5
ag4
ag5
ag1
ag9
ag4
ag5
ag5
ag5
ag5
ag3
ag5
ag5
ag5
ag5
ag5
ag1
ag2
ag1
ag9
ag4
ag5
ag5
ag7
ag5
ag5
ag5
ag17
ag7
ag4
ag7
ag1
ag2
ag7
ag4
ag1
ag9
ag5
ag5
ag5
ag5
ag4
ag16
ag5
ag8
ag5
ag5
ag13
ag17
ag7
ag4
ag7
ag8
ag3
ag5
ag5
ag4
ag3
ag4
aS'How many workers are there in the image ?'
p50
ag7
ag8
ag5
ag13
ag5
ag5
ag17
ag1
ag9
ag8
ag5
ag13
ag1
ag2
aS'How many young guys are there in the image ?'
p51
ag7
ag5
ag5
ag4
ag1
ag9
ag5
ag1
ag2
ag12
ag5
ag1
ag2
ag5
ag5
ag5
ag5
ag1
ag9
ag5
ag5
ag5
ag5
ag5
ag5
ag4
ag13
ag8
ag5
ag5
ag3
ag4
ag5
ag5
ag5
ag5
ag7
ag5
ag5
ag4
ag5
ag3
ag5
aS'How many picture  people are there in the image ?'
p52
ag8
ag1
ag9
ag8
ag5
ag1
ag9
ag1
ag2
ag16
ag5
ag5
ag5
ag5
ag4
ag1
ag9
ag4
ag5
ag5
ag1
ag9
ag30
ag5
ag1
ag9
ag5
ag1
ag2
ag5
ag5
ag3
ag1
ag2
ag5
ag5
ag46
ag7
ag4
ag7
ag5
ag17
ag7
ag8
aS'How many vehicles are present in the image ?'
p53
ag12
ag5
ag1
ag2
aS'How many vendors are there in the image ?'
p54
ag7
ag4
ag13
ag5
ag5
ag8
ag3
ag1
ag2
ag3
ag25
ag5
ag1
ag9
ag4
ag1
ag9
ag5
ag5
ag4
ag7
ag1
ag2
ag5
ag3
ag4
ag5
ag1
ag9
ag8
ag1
ag9
ag1
ag2
ag5
ag7
ag4
ag1
ag9
ag5
ag5
ag5
ag17
ag5
ag1
ag9
ag4
ag5
ag3
ag1
ag2
ag5
aS'How many contestants are there in the image ?'
p55
ag7
ag5
ag5
ag8
ag5
ag1
ag9
ag5
ag8
ag3
ag25
ag1
ag9
ag8
ag12
ag5
ag5
ag4
ag1
ag9
ag5
ag4
ag5
ag5
ag7
ag5
ag4
ag5
ag5
aS'How many street workman are there in the image ?'
p56
ag7
ag5
ag4
ag13
ag1
ag2
ag5
ag5
ag3
ag5
ag8
ag5
ag3
ag4
ag5
ag5
ag3
ag10
ag5
ag7
ag8
ag1
ag9
ag5
ag5
ag5
ag5
ag4
ag1
ag9
ag4
ag5
ag3
ag4
ag1
ag9
ag5
ag5
ag8
ag16
ag4
ag5
ag5
aS'How many dancers are there in the image ?'
p57
ag7
ag4
ag1
ag9
ag4
ag5
ag3
ag5
ag8
ag5
ag7
ag4
ag3
ag5
ag25
ag5
ag3
ag5
ag5
ag17
ag1
ag9
ag5
ag5
ag17
ag1
ag9
ag4
ag7
ag5
ag4
ag1
ag9
ag8
ag5
ag3
ag4
ag7
ag17
ag7
ag8
ag5
ag5
ag5
ag13
ag5
ag5
ag5
ag5
ag1
ag2
ag5
ag16
ag4
ag5
ag16
ag1
ag2
ag7
ag5
ag4
ag5
ag3
ag5
ag5
ag5
ag5
ag4
ag5
ag16
ag5
ag8
ag1
ag9
ag8
ag5
ag5
ag5
ag5
ag1
ag9
ag5
ag5
ag5
ag4
ag5
ag3
ag4
ag3
ag1
ag2
ag5
ag5
ag7
ag10
ag7
ag5
aS'How many soldiers are there in the image ?'
p58
ag8
ag5
ag5
aS'How many foot are present in the image ?'
p59
ag12
ag5
ag5
ag5
ag5
ag5
ag5
ag1
ag2
ag7
ag5
ag17
ag5
ag16
ag17
ag5
ag3
ag4
ag5
ag3
ag4
ag7
ag1
ag2
ag5
ag16
ag5
ag1
ag2
ag7
ag5
ag5
ag4
ag7
ag5
ag4
ag23
ag8
ag3
ag1
ag2
aS'How many bikers are there in the image ?'
p60
ag7
ag1
ag2
ag5
ag5
ag5
ag5
ag5
ag1
ag9
ag5
ag5
ag5
ag4
ag5
ag7
ag1
ag2
ag5
ag13
ag5
ag5
ag1
ag2
ag1
ag9
ag5
ag8
ag12
ag5
ag5
ag5
ag5
ag5
ag5
ag17
ag5
ag7
ag5
ag5
ag5
ag5
ag5
ag5
ag5
ag5
ag8
ag7
ag5
ag5
ag8
ag12
ag8
ag5
ag16
ag10
ag5
ag5
ag5
ag5
ag5
ag1
ag9
ag5
ag5
ag4
ag7
ag4
ag3
ag5
ag1
ag2
ag7
ag5
aS'How many veterans are there in the image ?'
p61
ag8
ag3
ag5
ag5
ag25
ag5
ag1
ag9
ag1
ag2
ag1
ag9
ag5
ag4
ag5
ag5
ag5
ag5
ag1
ag9
ag1
ag2
ag5
ag7
ag5
ag5
ag4
ag5
ag1
ag9
ag5
ag5
ag5
ag5
ag4
ag5
ag3
ag5
ag8
ag5
ag1
ag9
ag8
ag5
ag7
ag4
ag5
ag1
ag9
ag1
ag2
ag1
ag9
ag5
ag4
ag5
ag5
ag5
ag5
ag12
ag4
ag5
ag7
ag5
ag5
ag5
ag8
ag3
ag5
ag5
ag5
ag4
ag3
ag5
ag5
ag5
ag4
ag5
ag5
ag5
ag1
ag9
ag8
ag5
ag5
ag3
ag5
ag1
ag2
ag5
ag3
ag5
ag1
ag2
ag7
ag1
ag2
ag5
ag7
ag8
ag5
ag5
ag3
ag8
ag1
ag9
ag5
ag8
ag16
ag5
ag17
ag12
ag25
ag5
ag3
ag10
ag16
ag8
ag3
ag10
ag1
ag9
ag8
ag7
ag1
ag2
ag5
aS'How many group  girls are there in the image ?'
p62
ag7
ag1
ag2
ag7
ag4
ag5
ag3
ag4
ag5
ag1
ag9
ag5
ag1
ag2
ag3
ag4
ag1
ag9
ag5
ag5
ag8
ag1
ag9
ag5
ag1
ag2
ag1
ag9
ag1
ag2
ag5
ag5
ag3
ag5
ag30
ag5
ag5
ag7
ag5
ag5
ag4
ag5
aS'How many students are there in the image ?'
p63
ag7
ag25
ag5
ag5
ag5
ag5
ag5
ag5
ag1
ag9
ag10
ag5
ag5
ag5
ag5
ag5
ag5
ag1
ag9
ag1
ag2
ag5
ag3
ag8
ag5
ag5
ag3
ag1
ag2
ag7
aS'How many passengers are there in the image ?'
p64
ag8
ag5
ag16
ag5
ag1
ag2
ag1
ag9
ag5
ag5
ag5
ag5
ag5
ag10
ag3
ag4
ag3
ag5
ag8
ag1
ag9
ag1
ag2
ag1
ag9
ag5
ag10
ag5
ag3
ag4
ag1
ag9
ag4
ag5
ag3
ag5
ag4
ag3
aS'How many dogs are present in the image ?'
p65
ag25
ag1
ag9
ag1
ag2
ag3
ag5
ag5
ag4
ag5
ag7
ag1
ag2
ag5
ag16
ag5
ag5
ag4
ag1
ag9
ag17
ag5
ag5
ag3
ag5
ag5
ag4
ag3
ag4
ag5
ag5
ag5
ag5
ag1
ag9
ag1
ag2
ag5
aS'How many wheeled vehicle are present in the image ?'
p66
ag12
ag5
ag5
ag5
ag4
ag1
ag9
ag5
ag8
ag5
ag5
ag7
ag5
ag5
ag4
aS'How many fireman are there in the image ?'
p67
ag7
ag5
ag1
ag2
ag5
ag5
aS'How many bridesmaids are there in the image ?'
p68
ag7
aS'How many asian people are there in the image ?'
p69
ag8
ag5
ag5
ag23
ag5
ag4
ag5
ag5
ag5
aS'How many casually dressed men are there in the image ?'
p70
ag7
ag5
ag5
ag1
ag2
ag5
ag7
ag5
ag4
ag3
ag1
ag2
ag3
ag4
ag7
ag8
ag5
ag7
ag4
ag1
ag9
ag5
ag4
ag5
ag1
ag9
ag1
ag2
ag7
ag5
ag4
ag5
ag1
ag9
ag5
ag5
ag1
ag2
ag5
ag5
ag7
ag5
ag5
ag17
ag1
ag9
ag5
ag5
ag5
ag5
ag5
ag5
ag5
ag4
ag13
ag5
ag1
ag2
ag5
ag5
ag5
ag7
ag5
ag8
ag5
ag5
ag5
ag5
ag5
ag5
ag5
ag7
ag5
ag5
ag30
ag5
ag1
ag9
ag5
ag4
ag7
ag5
ag5
ag8
ag5
ag5
ag3
ag5
ag17
ag5
ag1
ag9
ag5
ag4
ag7
ag5
ag1
ag2
ag5
ag1
ag9
ag1
ag2
ag5
ag5
aS'How many #  horse are present in the image ?'
p71
ag13
ag10
ag5
ag5
ag3
ag5
ag1
ag2
ag5
ag3
ag8
ag7
ag4
ag5
ag5
ag5
ag5
ag5
ag3
ag4
ag5
ag5
ag5
ag3
ag4
ag5
ag5
ag5
ag7
ag4
ag5
ag23
ag4
ag5
ag7
ag1
ag2
ag1
ag9
ag5
ag5
ag25
ag3
ag17
ag12
ag8
ag5
ag5
ag5
ag3
ag4
ag3
ag5
ag4
ag1
ag9
ag5
ag25
ag13
ag1
ag2
ag5
ag7
ag17
ag3
ag25
ag5
ag1
ag9
ag4
ag3
ag5
ag17
ag3
ag17
ag5
ag3
ag25
ag1
ag9
ag8
ag1
ag9
ag4
ag3
ag5
ag4
ag3
ag5
ag8
ag3
ag5
ag1
ag2
ag16
ag1
ag2
ag7
ag4
ag5
ag5
ag5
ag5
ag1
ag9
ag5
aS'How many cheeks  men are there in the image ?'
p72
ag8
ag3
ag4
ag5
ag3
ag5
ag5
ag4
ag7
ag5
ag5
ag4
ag3
aS'How many younger kids are there in the image ?'
p73
ag8
ag1
ag9
ag4
ag3
ag1
ag2
ag16
ag1
ag2
ag1
ag9
ag5
ag5
ag5
ag1
ag2
ag1
ag9
ag1
ag2
ag1
ag9
ag5
ag5
ag5
ag1
ag2
ag7
ag4
aS'How many man are there in the image ?'
p74
ag7
ag1
ag2
ag5
ag1
ag9
ag5
ag17
ag7
ag8
ag12
ag5
ag5
ag5
ag8
ag5
ag5
ag5
ag5
ag3
aS'How many child are there in the image ?'
p75
ag8
ag13
ag10
ag5
ag5
ag12
ag5
ag5
ag1
ag2
ag7
ag8
ag3
ag5
aS'How many pigs are present in the image ?'
p76
ag25
ag3
ag5
ag5
ag4
ag3
ag4
ag5
ag23
ag8
ag5
ag5
ag1
ag9
ag5
ag5
ag8
aS'How many swimmers are there in the image ?'
p77
ag7
ag5
ag4
ag5
ag5
ag7
ag1
ag2
ag5
ag5
ag3
ag4
ag5
ag5
ag13
ag1
ag2
ag5
ag7
ag8
ag5
ag5
ag1
ag9
ag5
aS'How many boys are there in the image ?'
p78
ag8
ag5
ag5
ag1
ag9
ag5
aS'How many group  men are there in the image ?'
p79
ag8
ag3
ag1
ag2
ag5
ag3
ag5
ag4
ag3
ag5
ag5
ag1
ag2
ag7
ag5
a.