(lp0
S'What is the person in the image wearing ?'
p1
aS'What is the type of scene present in the image ?'
p2
aS'Select the type of scene present in the image ?'
p3
aS'Which of the following is present in the image ?'
p4
ag4
aS'How many people are present in the image ?'
p5
ag4
ag4
ag4
ag4
ag2
ag4
ag4
ag4
ag3
ag1
ag4
ag4
ag2
ag4
ag3
ag1
ag4
aS'Which type of vehicle(s) are present in the image ?'
p6
ag1
ag4
ag2
ag1
ag4
ag4
ag4
ag4
ag1
ag4
ag4
ag3
ag4
ag2
ag4
ag4
ag4
ag3
ag2
ag4
ag4
ag4
ag5
ag3
ag4
ag2
ag4
ag1
ag6
ag3
ag4
ag4
ag4
ag6
ag2
ag1
ag4
ag4
ag4
ag4
ag4
ag4
ag4
ag3
ag4
ag1
ag4
ag1
ag4
ag1
ag4
ag4
ag4
ag2
ag4
ag1
ag3
ag4
ag5
ag4
ag1
ag1
ag5
ag4
ag2
ag3
ag2
aS'Select the type of bodyparts present in the image ?'
p7
ag1
ag1
ag4
aS'What is the type of bodyparts present in the image ?'
p8
ag3
ag1
ag2
ag4
ag4
ag5
ag3
ag4
ag4
ag4
ag4
ag1
ag2
ag1
ag5
ag3
ag2
ag4
ag1
ag4
ag3
ag2
ag1
ag4
ag4
ag3
ag4
ag1
ag1
ag1
ag4
ag4
ag4
ag1
ag4
ag4
ag2
ag4
ag3
ag2
ag4
ag1
ag4
ag4
ag1
ag4
ag6
ag6
ag5
ag4
ag5
ag4
ag3
ag2
ag5
ag4
ag1
ag4
ag4
ag1
ag4
ag3
ag2
ag1
ag3
ag4
ag4
ag4
ag4
ag2
ag4
ag1
ag4
ag1
ag4
ag7
ag4
ag4
ag4
ag2
ag1
ag4
ag7
ag2
aS'Select the type of instruments present in the image ?'
p9
ag1
ag4
ag4
ag1
ag4
ag1
ag4
ag4
ag4
ag4
ag2
ag3
ag4
ag1
ag6
ag4
ag4
ag1
ag4
ag1
ag1
ag2
ag4
ag4
ag4
ag4
ag4
ag1
ag4
ag1
ag4
ag4
ag4
ag4
ag3
ag2
ag1
ag4
ag4
ag9
ag2
ag1
ag4
ag4
ag1
ag1
ag4
ag4
ag4
ag3
ag4
ag2
ag4
ag4
ag4
ag9
ag4
ag4
ag2
ag4
ag1
ag7
ag2
ag3
aS'What is the type of instruments present in the image ?'
p10
ag3
ag8
ag4
ag3
ag2
ag7
ag6
ag4
ag1
ag2
ag4
ag3
ag4
ag1
ag4
ag4
ag2
ag4
ag4
ag3
ag1
ag4
ag4
ag4
ag1
ag4
ag4
ag4
ag4
ag4
ag2
ag4
ag1
ag3
ag1
ag6
ag1
ag4
ag5
ag2
aS'How many animals are present in the image ?'
p11
ag5
ag3
ag8
ag1
ag4
ag4
ag4
ag4
ag3
ag6
ag4
ag4
ag2
ag4
ag3
ag2
ag4
ag4
ag4
ag4
ag4
ag4
ag1
ag3
ag4
ag4
ag2
ag1
ag1
ag4
ag3
ag6
ag4
ag1
ag4
ag1
ag4
ag4
ag4
ag4
ag1
ag6
ag2
ag1
ag1
ag4
ag4
ag4
ag4
ag4
ag4
ag4
ag5
ag3
ag10
ag4
ag4
ag4
ag3
ag2
ag4
ag3
ag2
ag3
ag4
ag4
ag4
ag4
ag1
ag8
ag3
ag4
ag4
ag2
ag4
ag4
ag4
ag4
ag3
ag5
ag2
ag6
ag3
ag1
ag4
ag1
ag4
ag1
ag1
ag4
ag8
ag4
ag4
ag4
ag4
ag4
ag1
ag7
ag1
ag2
ag3
ag4
ag4
ag4
ag4
ag4
ag4
ag2
ag1
ag4
ag1
ag3
ag2
ag4
ag4
ag1
ag7
ag2
ag3
ag6
ag4
ag4
ag2
ag4
ag4
ag6
ag1
ag1
ag7
ag4
ag5
ag5
ag2
ag7
ag4
ag4
ag4
ag1
ag8
ag4
ag4
ag5
ag4
ag4
ag3
ag4
ag4
ag4
ag4
ag8
ag1
ag4
ag4
ag4
ag1
ag4
ag4
ag3
ag4
ag4
ag4
ag1
ag4
ag4
ag8
ag4
ag4
ag4
ag4
ag3
ag4
ag4
ag1
ag1
ag1
ag5
ag5
ag4
ag2
ag3
ag2
ag3
ag1
ag2
ag4
ag4
ag6
ag1
ag4
ag4
ag4
ag4
ag4
ag6
ag4
ag1
ag3
ag1
ag1
ag2
ag3
ag8
ag4
ag4
ag4
ag4
ag3
ag8
ag4
ag4
ag4
ag4
ag3
ag4
ag4
ag1
ag4
ag4
ag4
ag1
ag4
ag4
ag1
ag4
ag4
ag4
ag6
ag1
ag4
ag2
ag4
ag4
ag4
ag3
ag4
ag2
ag1
ag1
ag1
ag4
ag1
ag1
ag4
ag4
ag4
ag5
ag4
ag1
ag3
ag1
ag6
ag1
ag4
ag4
ag4
ag1
ag4
ag4
ag1
ag4
ag1
ag1
ag4
ag4
ag2
ag4
ag4
ag4
ag1
ag4
ag1
ag4
ag4
ag4
ag4
ag4
ag4
ag1
ag4
ag4
ag4
ag3
ag6
ag4
ag4
ag4
ag4
ag4
ag4
ag4
ag1
ag4
ag4
ag5
ag4
ag4
ag2
ag4
ag4
ag4
ag3
ag5
ag4
ag2
ag1
ag1
ag4
ag4
ag4
ag3
ag4
ag4
ag1
ag4
ag2
ag4
ag4
ag4
ag3
ag1
ag1
ag1
ag4
ag1
ag4
ag4
ag4
ag2
ag3
ag4
ag4
ag6
ag1
ag2
ag4
ag4
ag4
ag7
ag2
ag4
ag1
ag4
ag6
ag4
ag4
ag4
ag1
ag3
ag5
ag4
ag4
ag4
ag1
ag2
ag1
ag4
ag3
ag1
ag2
ag4
ag1
ag1
ag1
ag9
ag4
ag2
ag4
ag4
ag4
ag4
ag4
ag5
ag4
ag1
ag1
ag4
ag4
ag4
ag4
ag3
ag8
ag4
ag4
ag1
ag4
ag4
ag3
ag4
ag4
ag2
ag4
ag7
ag4
ag2
ag4
ag4
ag4
ag1
ag4
ag4
ag4
ag4
ag3
ag4
ag4
ag1
ag4
ag4
ag5
ag4
ag4
ag4
ag2
ag3
ag4
ag8
ag3
ag4
ag4
ag4
ag1
ag2
ag4
ag4
ag3
ag4
ag1
ag2
ag3
ag6
ag4
ag4
ag2
ag3
ag4
ag2
ag4
ag3
ag2
ag4
ag4
ag3
ag2
ag4
ag4
ag4
ag4
ag4
ag4
ag1
ag1
ag1
ag1
ag4
ag7
ag4
ag2
ag3
ag5
ag2
ag4
ag5
ag1
ag1
ag4
ag3
ag5
ag2
ag4
ag3
ag1
ag4
ag1
ag4
ag4
ag8
ag1
ag3
ag4
ag4
ag1
ag4
ag2
ag5
ag3
ag1
ag2
ag4
ag4
ag4
ag4
ag3
ag2
ag4
ag4
ag7
ag1
ag1
ag2
ag4
ag3
ag8
ag4
ag4
ag4
ag4
ag4
ag1
ag11
ag4
ag4
ag6
ag3
ag4
ag1
ag4
ag4
ag4
ag4
ag4
ag2
ag3
ag4
ag2
ag6
ag3
ag4
ag2
ag4
ag4
ag7
ag4
ag5
ag4
ag4
ag8
ag4
ag1
ag5
ag4
ag4
ag4
ag3
ag4
ag4
ag1
ag4
ag4
ag2
ag4
ag1
ag3
ag4
ag4
ag4
ag4
ag2
ag4
ag4
ag4
ag4
ag4
a.