(lp0
S'What type of ceremony is present in the image ?'
p1
aS'Select the group represented by the image ?'
p2
aS'What type of motor vehicle is present in the image ?'
p3
aS'Select the conveyance represented by the image ?'
p4
aS'What type of diversion is present in the image ?'
p5
aS'Select the geological formation represented by the image ?'
p6
aS'What type of facility is present in the image ?'
p7
aS'Select the plastic art represented by the image ?'
p8
aS'What type of consumer goods is present in the image ?'
p9
aS'Select the achromatic color represented by the image ?'
p10
aS'What type of way is present in the image ?'
p11
aS'Select the thoroughfare represented by the image ?'
p12
aS'What type of instrumentality is present in the image ?'
p13
aS'Select the municipality represented by the image ?'
p14
aS'What type of life science is present in the image ?'
p15
aS'Select the nutriment represented by the image ?'
p16
ag9
ag10
aS'What type of causal agent is present in the image ?'
p17
aS'Select the diversion represented by the image ?'
p18
ag17
aS'Select the area represented by the image ?'
p19
ag5
aS'Select the field game represented by the image ?'
p20
ag9
aS'Select the causal agent represented by the image ?'
p21
aS'What type of wheeled vehicle is present in the image ?'
p22
aS'Select the way represented by the image ?'
p23
ag11
aS'Select the adult represented by the image ?'
p24
aS'What type of musician is present in the image ?'
p25
aS'Select the stringed instrument represented by the image ?'
p26
ag5
aS'Select the sport represented by the image ?'
p27
ag17
ag2
aS'What type of path is present in the image ?'
p28
aS'Select the walk represented by the image ?'
p29
aS'What type of food is present in the image ?'
p30
aS'Select the woody plant represented by the image ?'
p31
ag17
ag18
ag17
ag24
aS'What type of adult is present in the image ?'
p32
aS'Select the hair represented by the image ?'
p33
aS'What type of chromatic color is present in the image ?'
p34
aS'Select the body of water represented by the image ?'
p35
ag11
ag12
ag34
aS'Select the gramineous plant represented by the image ?'
p36
aS'What type of contestant is present in the image ?'
p37
ag18
aS'What type of spectacles is present in the image ?'
p38
aS'Select the optical instrument represented by the image ?'
p39
aS'What type of artifact is present in the image ?'
p40
aS'Select the furnishing represented by the image ?'
p41
aS'What type of municipality is present in the image ?'
p42
aS'Select the chromatic color represented by the image ?'
p43
ag34
aS'Select the representation represented by the image ?'
p44
aS'What type of unit is present in the image ?'
p45
aS'Select the occupational group represented by the image ?'
p46
aS'What type of creating from raw materials is present in the image ?'
p47
aS'Select the hoop represented by the image ?'
p48
aS'What type of leisure is present in the image ?'
p49
ag21
aS'What type of traveler is present in the image ?'
p50
aS'Select the city district represented by the image ?'
p51
aS'What type of conveyance is present in the image ?'
p52
aS'What type of juvenile is present in the image ?'
p53
ag11
aS'Select the street represented by the image ?'
p54
aS'What type of show is present in the image ?'
p55
aS'Select the creation represented by the image ?'
p56
ag13
aS'Select the motor vehicle represented by the image ?'
p57
ag34
aS'Select the objection represented by the image ?'
p58
ag22
ag23
ag5
ag21
ag5
aS'What type of product is present in the image ?'
p59
aS'What type of animal is present in the image ?'
p60
aS'Select the canine represented by the image ?'
p61
aS'What type of performer is present in the image ?'
p62
ag21
ag17
ag24
ag17
aS'Select the place of worship represented by the image ?'
p63
aS'What type of activity is present in the image ?'
p64
ag14
aS'What type of precipitation is present in the image ?'
p65
aS'Select the season represented by the image ?'
p66
aS'What type of clothing is present in the image ?'
p67
aS'Select the seat represented by the image ?'
p68
ag37
ag18
aS'What type of workplace is present in the image ?'
p69
aS'Select the juvenile represented by the image ?'
p70
ag60
aS'Select the vertebrate represented by the image ?'
p71
ag34
ag22
ag27
ag53
ag17
aS'Select the collection represented by the image ?'
p72
aS'What type of group is present in the image ?'
p73
aS'Select the plant organ represented by the image ?'
p74
ag9
ag23
ag17
ag18
aS'What type of geological formation is present in the image ?'
p75
ag35
ag60
ag61
aS'What type of objection is present in the image ?'
p76
aS'Select the gathering represented by the image ?'
p77
ag52
aS'Select the building represented by the image ?'
p78
ag5
ag5
aS'Select the contestant represented by the image ?'
p79
ag5
ag79
aS'What type of device is present in the image ?'
p80
aS'Select the gambling house represented by the image ?'
p81
ag42
ag14
ag60
ag61
ag5
aS'Select the skating represented by the image ?'
p82
aS'What type of gathering is present in the image ?'
p83
ag21
ag17
ag46
ag60
aS'Select the organism represented by the image ?'
p84
ag60
ag61
aS"What type of woman's clothing is present in the image ?"
p85
aS'Select the appearance represented by the image ?'
p86
ag9
ag56
aS'What type of time period is present in the image ?'
p87
ag4
aS'What type of dramatic composition is present in the image ?'
p88
aS'Select the cloth covering represented by the image ?'
p89
ag34
ag44
aS'What type of nutriment is present in the image ?'
p90
aS'Select the meal represented by the image ?'
p91
ag55
ag56
aS'What type of commercial enterprise is present in the image ?'
p92
aS'Select the path represented by the image ?'
p93
ag3
ag4
aS'What type of container is present in the image ?'
p94
aS'Select the substance represented by the image ?'
p95
aS'What type of body of water is present in the image ?'
p96
ag35
ag34
aS'Select the angiosperm represented by the image ?'
p97
aS'What type of vertebrate is present in the image ?'
p98
ag84
aS'What type of happening is present in the image ?'
p99
aS'Select the process represented by the image ?'
p100
aS'What type of body covering is present in the image ?'
p101
ag33
ag60
ag61
ag90
ag95
ag101
ag33
ag5
aS'Select the undertaking represented by the image ?'
p102
ag5
ag82
ag52
aS'Select the consideration represented by the image ?'
p103
aS'What type of court game is present in the image ?'
p104
ag18
ag52
aS'Select the wagon represented by the image ?'
p105
ag62
ag18
ag17
aS'Select the life science represented by the image ?'
p106
ag17
ag70
ag34
ag35
ag73
ag70
ag49
ag35
ag34
aS'Select the festival represented by the image ?'
p107
ag3
ag4
ag62
ag42
ag34
aS'Select the pictorial representation represented by the image ?'
p108
ag34
aS'Select the location represented by the image ?'
p109
ag5
ag79
ag37
ag18
aS'What type of art is present in the image ?'
p110
ag43
ag65
ag66
aS'What type of masonry is present in the image ?'
p111
aS'Select the paving represented by the image ?'
p112
ag5
aS'Select the game represented by the image ?'
p113
ag13
ag2
ag60
ag96
aS'Select the leisure represented by the image ?'
p114
ag11
ag112
ag55
ag18
ag17
ag16
ag52
ag17
ag53
aS'Select the dramatic composition represented by the image ?'
p115
ag5
ag82
ag5
ag5
aS'Select the water sport represented by the image ?'
p116
aS'What type of structure is present in the image ?'
p117
ag18
ag49
ag35
ag83
ag23
ag53
ag21
ag34
ag23
ag85
aS'Select the participant represented by the image ?'
p118
ag5
aS'What type of track and field is present in the image ?'
p119
ag18
ag37
ag18
aS'What type of water sport is present in the image ?'
p120
aS'Select the piece of cloth represented by the image ?'
p121
ag17
aS'Select the horseman represented by the image ?'
p122
ag9
aS'Select the body covering represented by the image ?'
p123
ag73
ag60
ag61
aS'What type of sport is present in the image ?'
p124
aS'Select the wheeled vehicle represented by the image ?'
p125
ag5
ag116
aS'What type of binary compound is present in the image ?'
p126
aS'Select the water travel represented by the image ?'
p127
ag67
ag97
aS'What type of yard is present in the image ?'
p128
ag60
ag61
aS'What type of stream is present in the image ?'
p129
ag31
ag5
aS'Select the equine represented by the image ?'
p130
aS'What type of creation is present in the image ?'
p131
aS'Select the performer represented by the image ?'
p132
aS'What type of outdoor game is present in the image ?'
p133
aS'Select the field represented by the image ?'
p134
ag37
ag18
ag52
aS'Select the force represented by the image ?'
p135
ag60
ag61
ag87
aS'Select the spectacles represented by the image ?'
p136
ag60
ag61
aS'What type of course is present in the image ?'
p137
aS'Select the block represented by the image ?'
p138
ag96
ag6
ag17
aS'Select the army unit represented by the image ?'
p139
ag101
ag21
ag96
ag6
ag94
ag95
ag5
ag21
ag17
ag2
ag42
ag78
aS'What type of criminal is present in the image ?'
p140
aS'Select the consumer goods represented by the image ?'
p141
ag88
ag70
ag96
ag43
aS'What type of boat is present in the image ?'
p142
ag127
ag83
ag14
ag5
aS'Select the court game represented by the image ?'
p143
ag83
ag2
ag17
ag12
ag37
ag18
ag5
ag115
ag45
ag18
aS'What type of auditory communication is present in the image ?'
p144
ag132
ag67
ag51
ag9
ag136
ag53
ag5
ag18
ag15
aS'Select the basic cognitive process represented by the image ?'
p145
ag131
ag18
ag17
ag24
aS'What type of building is present in the image ?'
p146
aS'Select the room represented by the image ?'
p147
aS'What type of area is present in the image ?'
p148
aS'Select the outbuilding represented by the image ?'
p149
ag13
aS'Select the artifact represented by the image ?'
p150
ag5
aS'Select the unit represented by the image ?'
p151
ag47
aS'Select the system represented by the image ?'
p152
ag60
ag61
aS'What type of doctor is present in the image ?'
p153
ag19
ag5
ag79
ag9
ag43
ag73
ag35
aS'What type of actinic radiation is present in the image ?'
p154
aS'Select the framework represented by the image ?'
p155
ag5
aS'Select the procurator represented by the image ?'
p156
ag40
aS'Select the machine represented by the image ?'
p157
ag5
ag151
ag96
aS'Select the soil represented by the image ?'
p158
ag37
ag43
ag60
ag84
ag60
ag61
ag87
aS'Select the show represented by the image ?'
p159
ag60
ag61
ag87
ag87
ag132
aS'What type of even-toed ungulate is present in the image ?'
p160
aS'Select the scenery represented by the image ?'
p161
aS'What type of environment is present in the image ?'
p162
aS'Select the ridge represented by the image ?'
p163
ag131
aS'Select the outdoor sport represented by the image ?'
p164
ag96
ag17
ag46
ag5
ag49
ag66
aS'What type of field is present in the image ?'
p165
aS'Select the dirtiness represented by the image ?'
p166
ag5
aS'Select the board represented by the image ?'
p167
ag5
ag73
ag70
ag17
ag115
ag83
ag65
aS'Select the clothing represented by the image ?'
p168
aS'What type of quality is present in the image ?'
p169
ag35
ag52
ag105
aS'What type of attire is present in the image ?'
p170
ag52
ag157
ag96
ag4
ag5
ag21
ag17
aS'Select the doctor represented by the image ?'
p171
aS'What type of transmission is present in the image ?'
p172
ag72
ag9
ag21
ag5
aS'Select the track and field represented by the image ?'
p173
ag126
ag4
ag5
ag17
ag70
ag60
ag61
aS'What type of newlywed is present in the image ?'
p174
ag21
aS'What type of dish is present in the image ?'
p175
aS'Select the food represented by the image ?'
p176
ag17
ag24
ag9
ag21
ag40
ag152
ag5
ag115
ag110
ag56
aS'What type of canopy is present in the image ?'
p177
aS'Select the precipitation represented by the image ?'
p178
ag5
aS'Select the brome represented by the image ?'
p179
ag60
ag61
ag83
aS'Select the time period represented by the image ?'
p180
ag5
ag143
ag5
ag79
ag52
ag60
aS'Select the woman represented by the image ?'
p181
ag60
ag61
ag53
ag21
aS'What type of representation is present in the image ?'
p182
ag21
ag83
ag180
ag131
ag23
ag98
aS'Select the animal represented by the image ?'
p183
ag52
aS'Select the tractor represented by the image ?'
p184
ag5
ag79
ag88
ag183
ag60
ag61
ag126
ag35
ag40
aS'Select the commercial enterprise represented by the image ?'
p185
ag49
ag116
ag5
aS'Select the contest represented by the image ?'
p186
ag9
ag23
ag9
ag114
ag32
ag2
ag98
ag84
ag49
ag35
ag53
ag115
ag73
aS'Select the tract represented by the image ?'
p187
ag126
ag70
ag42
ag14
aS'What type of gully is present in the image ?'
p188
ag102
ag83
ag159
aS'What type of pachyderm is present in the image ?'
p189
ag71
ag5
ag183
ag60
ag27
ag17
ag24
ag154
aS'Select the illumination represented by the image ?'
p190
ag13
ag4
ag83
ag77
ag5
ag13
ag43
ag165
ag183
ag40
ag14
aS'What type of illumination is present in the image ?'
p191
ag109
ag11
ag12
ag92
aS'What type of season is present in the image ?'
p192
ag31
ag96
ag6
ag60
ag61
ag17
ag70
ag131
ag18
aS'What type of person is present in the image ?'
p193
ag118
aS'What type of facial expression is present in the image ?'
p194
ag86
aS'What type of achromatic color is present in the image ?'
p195
ag123
ag5
ag79
ag34
ag18
ag5
aS'Select the cricketer represented by the image ?'
p196
ag42
aS'Select the activity represented by the image ?'
p197
ag50
ag11
aS'Select the instrumentality represented by the image ?'
p198
ag83
ag2
ag42
ag197
ag11
ag12
aS'What type of keyboard instrument is present in the image ?'
p199
aS'Select the device represented by the image ?'
p200
ag60
ag71
aS'What type of propulsion is present in the image ?'
p201
ag83
aS'What type of dirtiness is present in the image ?'
p202
ag5
ag170
ag180
ag55
ag56
ag25
aS'Select the musician represented by the image ?'
p203
ag17
aS'Select the buying represented by the image ?'
p204
ag87
ag158
ag73
ag158
ag60
ag84
ag34
ag103
ag32
ag2
ag5
ag143
ag5
aS'Select the court represented by the image ?'
p205
ag60
ag61
ag96
ag114
ag42
ag95
ag9
ag86
aS'What type of partition is present in the image ?'
p206
ag60
ag61
ag87
ag190
aS'What type of float is present in the image ?'
p207
ag17
ag46
ag98
ag84
ag96
ag6
ag13
aS'Select the structure represented by the image ?'
p208
ag5
aS'Select the boat represented by the image ?'
p209
ag52
ag27
ag53
aS'Select the child represented by the image ?'
p210
ag60
ag74
ag34
ag18
ag87
ag12
ag17
aS'Select the graphic art represented by the image ?'
p211
ag52
aS'Select the craft represented by the image ?'
p212
aS'What type of building complex is present in the image ?'
p213
ag31
ag17
ag46
ag90
aS'What type of gramineous plant is present in the image ?'
p214
ag31
ag32
ag183
aS'What type of biome is present in the image ?'
p215
ag161
aS'What type of woody plant is present in the image ?'
p216
aS'Select the division represented by the image ?'
p217
aS'What type of motorboat is present in the image ?'
p218
ag23
ag52
ag57
aS'What type of substance is present in the image ?'
p219
ag53
ag115
ag65
ag93
ag5
ag18
ag1
ag72
ag17
aS'What type of property is present in the image ?'
p220
ag41
ag94
ag16
ag144
ag132
ag193
ag21
ag5
ag82
ag96
ag114
ag53
ag115
ag45
ag18
aS'What type of buying is present in the image ?'
p221
aS'Select the enterprise represented by the image ?'
p222
ag73
ag18
ag206
aS'Select the creating from raw materials represented by the image ?'
p223
aS'What type of disfavor is present in the image ?'
p224
aS'Select the vegetation represented by the image ?'
p225
ag60
ag61
ag96
aS'What type of drawing is present in the image ?'
p226
ag70
ag73
ag96
ag6
ag5
ag20
ag73
ag52
aS'Select the car represented by the image ?'
p227
ag17
ag70
aS'What type of organism is present in the image ?'
p228
ag71
aS'What type of trouser is present in the image ?'
p229
ag2
ag90
ag39
ag17
ag183
ag128
ag115
ag49
aS'Select the visual property represented by the image ?'
p230
ag195
ag21
aS'What type of sculpture is present in the image ?'
p231
ag56
ag40
aS'Select the plant material represented by the image ?'
p232
ag9
ag21
aS'What type of graphic art is present in the image ?'
p233
ag44
aS'What type of water travel is present in the image ?'
p234
ag35
ag5
aS'Select the mobilization represented by the image ?'
p235
ag5
ag168
ag37
aS'Select the lineman represented by the image ?'
p236
ag65
ag66
ag49
ag187
aS'What type of vacation is present in the image ?'
p237
aS'Select the linear unit represented by the image ?'
p238
ag5
ag21
ag5
ag27
aS'What type of plastic art is present in the image ?'
p239
ag183
aS'What type of education is present in the image ?'
p240
aS'What type of free-reed instrument is present in the image ?'
p241
ag124
ag18
ag53
ag17
ag44
ag9
ag44
ag17
aS'Select the container represented by the image ?'
p242
ag17
ag168
ag213
ag176
ag146
ag96
ag4
ag34
ag4
ag13
ag4
ag22
ag27
ag231
ag18
ag73
ag180
aS'What type of physical phenomenon is present in the image ?'
p243
ag208
ag5
ag56
ag55
ag18
ag96
ag114
ag73
aS'What type of furnishing is present in the image ?'
p244
ag68
ag9
ag123
ag17
ag183
ag98
aS'Select the cattle represented by the image ?'
p245
aS'What type of collection is present in the image ?'
p246
ag23
ag49
ag6
ag98
ag84
ag11
ag12
ag9
ag43
ag126
ag127
ag5
ag34
ag23
aS'What type of undertaking is present in the image ?'
p247
aS'Select the rise represented by the image ?'
p248
ag17
ag183
ag60
ag84
ag17
ag70
ag42
ag43
ag17
ag43
ag234
ag70
ag96
ag6
ag34
ag21
ag5
aS'Select the horizontal surface represented by the image ?'
p249
ag96
ag114
ag52
ag57
ag170
ag180
aS'What type of horizontal surface is present in the image ?'
p250
ag249
ag5
aS'Select the locomotion represented by the image ?'
p251
ag13
aS'Select the painting represented by the image ?'
p252
ag83
ag21
ag5
ag27
ag101
ag33
ag34
ag150
ag34
ag31
ag49
ag182
ag23
ag244
ag5
ag79
ag42
ag23
aS'What type of carnivore is present in the image ?'
p253
ag71
ag5
ag248
ag52
ag198
ag52
aS'Select the hose represented by the image ?'
p254
ag65
ag66
ag11
ag2
aS'What type of enterprise is present in the image ?'
p255
ag9
ag136
ag131
aS'Select the actinic radiation represented by the image ?'
p256
ag32
ag18
ag88
ag18
ag17
ag2
aS'What type of public square is present in the image ?'
p257
ag49
ag123
ag55
ag56
aS'What type of oscine is present in the image ?'
p258
ag71
ag52
aS'Select the vessel represented by the image ?'
p259
ag52
ag57
ag73
ag70
ag9
ag23
ag30
ag95
ag239
ag2
ag98
ag183
ag11
ag18
ag60
aS'Select the person represented by the image ?'
p260
aS'What type of atmosphere is present in the image ?'
p261
ag230
ag30
aS'Select the building complex represented by the image ?'
p262
ag148
ag5
ag208
ag90
ag70
ag30
ag14
ag60
ag61
ag37
ag18
ag5
ag21
ag9
ag86
ag90
ag2
ag5
ag245
ag5
ag102
ag88
ag70
ag5
ag236
ag53
ag21
ag49
ag34
ag62
ag17
ag24
ag90
ag2
ag13
ag230
aS'What type of gymnastic apparatus is present in the image ?'
p263
ag21
aS'What type of spot is present in the image ?'
p264
ag78
aS'What type of machine is present in the image ?'
p265
ag60
ag61
ag96
ag70
aS'What type of plant organ is present in the image ?'
p266
ag97
aS'What type of chemoreceptor is present in the image ?'
p267
ag33
aS'What type of building material is present in the image ?'
p268
aS'Select the protective covering represented by the image ?'
p269
ag34
aS'Select the wit represented by the image ?'
p270
ag17
ag87
aS'Select the custom represented by the image ?'
p271
ag17
ag70
ag88
aS'Select the yard represented by the image ?'
p272
ag83
ag14
aS'What type of visual property is present in the image ?'
p273
ag43
ag96
ag114
ag5
ag79
ag73
ag77
ag32
ag24
ag17
aS'Select the skilled worker represented by the image ?'
p274
ag9
ag55
aS'What type of soil is present in the image ?'
p275
aS'What type of thoroughfare is present in the image ?'
p276
ag96
aS'Select the binary compound represented by the image ?'
p277
ag37
ag23
ag5
aS'Select the transport represented by the image ?'
p278
ag87
ag5
ag79
ag244
ag11
ag14
ag154
ag190
ag73
ag49
ag62
aS'Select the auditory communication represented by the image ?'
p279
ag17
aS'Select the religious represented by the image ?'
p280
ag22
ag159
ag17
aS'Select the broadcasting represented by the image ?'
p281
ag88
ag210
ag45
ag4
ag42
ag23
ag53
ag2
ag60
ag61
aS'What type of system is present in the image ?'
p282
ag151
ag32
ag2
ag73
ag16
ag17
ag18
ag40
ag34
ag24
ag17
ag4
ag96
ag35
ag239
ag17
ag24
ag3
ag4
ag53
ag21
ag90
ag2
ag234
ag27
ag88
aS'What type of field game is present in the image ?'
p283
ag18
ag40
ag185
ag192
ag17
ag70
ag34
ag23
ag60
ag61
ag34
ag39
ag5
ag24
ag34
ag115
ag11
ag4
ag49
ag2
ag9
aS'Select the stage dancing represented by the image ?'
p284
aS'What type of vine is present in the image ?'
p285
ag18
ag34
ag8
aS'What type of cattle is present in the image ?'
p286
aS'Select the traveler represented by the image ?'
p287
ag32
aS'Select the newlywed represented by the image ?'
p288
ag5
ag180
ag124
ag18
ag87
ag77
ag5
ag151
ag96
ag259
ag60
ag71
ag5
aS'Select the promotion represented by the image ?'
p289
ag53
ag21
ag9
aS'Select the attire represented by the image ?'
p290
ag17
aS'Select the motion represented by the image ?'
p291
ag60
ag61
ag32
ag101
ag33
ag34
ag183
ag110
ag56
aS'What type of angiosperm is present in the image ?'
p292
aS"Select the woman's clothing represented by the image ?"
p293
aS'What type of artwork is present in the image ?'
p294
aS'Select the ellipse represented by the image ?'
p295
ag87
ag34
ag109
ag3
ag4
aS'What type of glass is present in the image ?'
p296
ag4
ag5
ag125
ag13
ag35
aS'What type of natural elevation is present in the image ?'
p297
ag114
ag60
ag61
ag34
ag43
aS'What type of festival is present in the image ?'
p298
aS'Select the art represented by the image ?'
p299
ag34
ag35
ag17
ag4
ag233
ag185
ag9
ag43
aS'What type of climb is present in the image ?'
p300
ag178
ag195
ag277
ag60
ag61
aS'What type of completion is present in the image ?'
p301
aS'Select the psychological feature represented by the image ?'
p302
ag96
ag6
ag17
ag79
ag60
ag71
ag34
ag43
ag87
ag256
ag126
aS'Select the life represented by the image ?'
p303
ag17
ag287
ag126
ag18
ag13
aS'Select the article represented by the image ?'
p304
ag83
ag2
ag17
ag156
ag5
ag35
ag94
ag95
ag98
ag84
ag55
ag77
ag83
ag23
ag17
ag70
ag98
ag84
aS'What type of formation is present in the image ?'
p305
ag60
ag61
ag17
ag156
ag52
ag125
ag5
ag167
ag60
ag71
ag11
ag2
ag5
aS'Select the contact sport represented by the image ?'
p306
ag126
ag70
ag5
ag205
ag88
ag70
ag34
ag21
ag169
ag230
ag22
ag4
ag88
aS'Select the environment represented by the image ?'
p307
ag53
ag183
ag73
ag19
ag148
ag147
ag90
ag242
ag34
ag23
ag17
ag24
ag17
ag18
ag9
ag23
ag52
aS'Select the motor represented by the image ?'
p308
ag60
ag61
ag73
ag77
ag9
ag43
ag101
ag260
ag34
ag159
ag55
ag279
ag37
ag18
ag9
ag21
ag250
ag249
ag94
ag95
ag5
ag151
ag17
ag26
ag9
ag293
ag32
ag183
ag96
ag4
ag5
ag79
aS'What type of outdoor sport is present in the image ?'
p309
ag4
aS'What type of tract is present in the image ?'
p310
ag17
ag67
ag18
ag17
ag114
ag60
ag61
ag53
ag21
ag5
ag29
ag9
ag272
ag17
ag43
aS'What type of land is present in the image ?'
p311
aS'Select the wetland represented by the image ?'
p312
ag169
ag35
ag104
ag18
ag119
ag15
ag164
ag17
ag62
ag203
ag42
ag93
ag5
ag18
ag17
ag181
aS'What type of plumbing fixture is present in the image ?'
p313
ag5
ag143
ag52
ag287
ag244
ag55
ag279
ag73
aS'Select the organization represented by the image ?'
p314
ag15
ag3
ag125
ag297
aS'Select the natural elevation represented by the image ?'
p315
ag67
ag27
ag22
ag4
ag9
ag43
ag17
ag67
ag12
ag32
ag183
ag11
ag287
ag34
ag56
ag110
ag18
ag73
ag5
ag179
ag60
ag71
ag49
ag6
ag214
ag18
ag5
ag36
ag87
aS'What type of sign is present in the image ?'
p316
ag95
ag96
ag4
ag87
ag190
ag64
ag14
ag96
ag158
ag34
ag115
ag67
ag8
ag11
ag12
ag5
ag79
ag5
ag143
ag60
ag61
aS'What type of hair is present in the image ?'
p317
ag181
ag9
ag290
ag17
ag46
ag215
aS'Select the plain represented by the image ?'
p318
ag17
aS'Select the feat represented by the image ?'
p319
ag37
ag18
aS'What type of gun is present in the image ?'
p320
ag132
ag22
ag23
ag273
ag43
ag67
ag94
ag95
ag17
ag46
ag273
ag23
ag9
ag168
ag124
ag180
ag73
ag70
ag25
ag26
ag5
ag143
ag53
ag210
ag73
ag208
ag83
ag287
aS'What type of car is present in the image ?'
p321
ag57
ag5
ag79
ag52
ag150
ag17
ag46
ag34
aS'Select the partition represented by the image ?'
p322
ag60
ag61
ag25
ag26
ag83
ag180
ag94
ag16
ag65
ag66
ag52
ag57
ag5
ag79
ag83
ag180
ag60
ag71
ag53
ag181
ag9
ag168
ag60
ag61
ag5
ag17
ag70
ag239
aS'Select the sculpture represented by the image ?'
p323
aS'What type of optical instrument is present in the image ?'
p324
ag259
ag55
ag180
aS'What type of paving is present in the image ?'
p325
ag249
ag17
ag159
ag5
ag115
ag142
ag4
ag17
ag24
aS'What type of percussion instrument is present in the image ?'
p326
aS'Select the bass represented by the image ?'
p327
ag42
ag23
aS'What type of locomotion is present in the image ?'
p328
aS'Select the course represented by the image ?'
p329
ag34
ag2
ag52
aS'Select the formation represented by the image ?'
p330
aS'What type of promotion is present in the image ?'
p331
ag180
ag142
ag127
ag320
ag17
ag44
ag5
ag143
ag17
ag18
ag96
ag114
ag124
ag18
ag52
ag125
ag60
ag61
ag5
ag167
ag5
ag79
ag52
ag125
ag5
ag20
ag241
ag203
aS'What type of equine is present in the image ?'
p332
aS'Select the farm represented by the image ?'
p333
ag28
ag29
ag90
ag242
ag60
ag61
ag219
ag16
aS'What type of consideration is present in the image ?'
p334
ag17
ag58
ag60
ag61
ag202
aS'Select the output represented by the image ?'
p335
ag5
ag167
ag34
ag43
ag34
ag315
ag98
ag84
ag195
ag84
ag60
ag249
ag5
ag248
ag13
aS'What type of child is present in the image ?'
p336
ag95
ag17
ag18
ag5
aS'Select the limb represented by the image ?'
p337
ag49
ag35
ag53
aS'Select the bedroom furniture represented by the image ?'
p338
ag60
ag61
ag131
ag180
ag60
ag61
ag52
ag55
ag56
ag17
ag290
ag17
aS'What type of hotel is present in the image ?'
p339
ag187
ag60
ag61
aS'What type of atmospheric phenomenon is present in the image ?'
p340
ag178
ag9
ag337
ag60
ag330
aS'What type of life is present in the image ?'
p341
ag71
ag202
ag134
ag40
aS'Select the upper surface represented by the image ?'
p342
ag52
ag35
ag273
ag43
ag88
ag70
aS'What type of digit is present in the image ?'
p343
aS'Select the articulator represented by the image ?'
p344
ag60
ag61
ag1
aS'Select the speech act represented by the image ?'
p345
ag96
ag183
ag60
ag61
ag52
ag151
ag88
ag34
ag198
ag224
ag225
ag117
ag208
ag60
ag61
ag11
ag54
ag119
ag150
ag17
aS'Select the writing represented by the image ?'
p346
aS'What type of portable computer is present in the image ?'
p347
aS'Select the verbal creation represented by the image ?'
p348
ag17
ag337
ag11
ag12
ag34
aS'Select the spot represented by the image ?'
p349
ag52
ag57
ag90
ag78
ag55
ag56
ag55
ag56
ag22
ag18
ag25
ag132
ag53
ag271
ag73
ag110
ag18
ag60
ag61
ag5
ag27
ag52
ag125
ag247
ag35
ag49
ag2
ag87
ag190
ag34
ag21
ag34
ag180
ag53
ag21
ag34
ag23
ag37
ag18
ag49
ag43
ag17
ag200
ag9
ag21
ag73
aS'Select the solid represented by the image ?'
p350
aS'What type of horseman is present in the image ?'
p351
ag27
ag332
ag71
ag60
ag73
aS'Select the affair represented by the image ?'
p352
ag5
aS'Select the ball game represented by the image ?'
p353
ag131
ag164
ag34
ag23
ag96
ag6
ag34
ag56
ag32
ag39
ag88
ag150
ag98
ag84
ag11
ag12
ag250
aS'Select the road represented by the image ?'
p354
ag126
ag303
ag34
ag262
ag96
ag158
ag128
ag114
ag5
ag353
ag17
ag2
ag90
ag242
ag60
ag61
ag55
aS'Select the performance represented by the image ?'
p355
ag83
ag43
ag255
ag96
ag35
ag17
ag46
ag310
ag262
ag34
ag31
ag73
ag131
ag132
ag25
ag256
aS'What type of performance is present in the image ?'
p356
ag159
ag17
ag46
ag309
ag56
aS'What type of movable barrier is present in the image ?'
p357
ag234
ag4
ag120
ag18
ag88
ag36
ag17
ag43
ag98
ag84
ag5
ag79
ag131
ag18
ag282
ag223
ag90
ag242
ag239
ag316
ag289
ag32
ag183
ag207
ag5
ag27
ag11
ag12
ag17
ag29
ag60
ag61
ag331
ag222
a.