(dp0
S'2754898893.jpg'
p1
(lp2
(S'leisure'
p3
S'What type of leisure is present in the image ?'
p4
tp5
a(S'body covering'
p6
S'Select the body covering represented by the image ?'
p7
tp8
asS'5144307872.jpg'
p9
(lp10
(S'show'
p11
S'What type of show is present in the image ?'
p12
tp13
a(S'creation'
p14
S'Select the creation represented by the image ?'
p15
tp16
asS'101362650.jpg'
p17
(lp18
(S'causal agent'
p19
S'What type of causal agent is present in the image ?'
p20
tp21
a(S'diversion'
p22
S'Select the diversion represented by the image ?'
p23
tp24
asS'3178441629.jpg'
p25
(lp26
(S'ceremony'
p27
S'What type of ceremony is present in the image ?'
p28
tp29
a(S'group'
p30
S'Select the group represented by the image ?'
p31
tp32
asS'2316985974.jpg'
p33
(lp34
(S'conveyance'
p35
S'What type of conveyance is present in the image ?'
p36
tp37
a(S'traveler'
p38
S'Select the traveler represented by the image ?'
p39
tp40
asS'97138308.jpg'
p41
(lp42
(S'oscine'
p43
S'What type of oscine is present in the image ?'
p44
tp45
a(S'vertebrate'
p46
S'Select the vertebrate represented by the image ?'
p47
tp48
asS'2686470807.jpg'
p49
(lp50
(S'motor vehicle'
p51
S'What type of motor vehicle is present in the image ?'
p52
tp53
a(S'conveyance'
p54
S'Select the conveyance represented by the image ?'
p55
tp56
asS'8170798749.jpg'
p57
(lp58
(S'diversion'
p59
S'What type of diversion is present in the image ?'
p60
tp61
a(S'geological formation'
p62
S'Select the geological formation represented by the image ?'
p63
tp64
asS'4391092093.jpg'
p65
(lp66
(S'conveyance'
p67
S'What type of conveyance is present in the image ?'
p68
tp69
a(S'body of water'
p70
S'Select the body of water represented by the image ?'
p71
tp72
asS'860526919.jpg'
p73
(lp74
(S'facility'
p75
S'What type of facility is present in the image ?'
p76
tp77
a(S'plastic art'
p78
S'Select the plastic art represented by the image ?'
p79
tp80
asS'4447502217.jpg'
p81
(lp82
(S'consumer goods'
p83
S'What type of consumer goods is present in the image ?'
p84
tp85
a(S'achromatic color'
p86
S'Select the achromatic color represented by the image ?'
p87
tp88
asS'2310202774.jpg'
p89
(lp90
(S'furnishing'
p91
S'What type of furnishing is present in the image ?'
p92
tp93
asS'3712720433.jpg'
p94
(lp95
(S'juvenile'
p96
S'What type of juvenile is present in the image ?'
p97
tp98
a(S'animal'
p99
S'Select the animal represented by the image ?'
p100
tp101
asS'1469107065.jpg'
p102
(lp103
(S'visual property'
p104
S'What type of visual property is present in the image ?'
p105
tp106
a(S'chromatic color'
p107
S'Select the chromatic color represented by the image ?'
p108
tp109
asS'1338067602.jpg'
p110
(lp111
(S'conveyance'
p112
S'What type of conveyance is present in the image ?'
p113
tp114
a(S'vessel'
p115
S'Select the vessel represented by the image ?'
p116
tp117
asS'4691655601.jpg'
p118
(lp119
(S'conveyance'
p120
S'What type of conveyance is present in the image ?'
p121
tp122
a(S'motor vehicle'
p123
S'Select the motor vehicle represented by the image ?'
p124
tp125
asS'4851139889.jpg'
p126
(lp127
(S'way'
p128
S'What type of way is present in the image ?'
p129
tp130
a(S'thoroughfare'
p131
S'Select the thoroughfare represented by the image ?'
p132
tp133
asS'2119381199.jpg'
p134
(lp135
(S'group'
p136
S'What type of group is present in the image ?'
p137
tp138
a(S'juvenile'
p139
S'Select the juvenile represented by the image ?'
p140
tp141
asS'4804610884.jpg'
p142
(lp143
(S'consumer goods'
p144
S'What type of consumer goods is present in the image ?'
p145
tp146
a(S'way'
p147
S'Select the way represented by the image ?'
p148
tp149
asS'4595115036.jpg'
p150
(lp151
(S'instrumentality'
p152
S'What type of instrumentality is present in the image ?'
p153
tp154
a(S'municipality'
p155
S'Select the municipality represented by the image ?'
p156
tp157
asS'148774287.jpg'
p158
(lp159
(S'substance'
p160
S'What type of substance is present in the image ?'
p161
tp162
asS'2224836155.jpg'
p163
(lp164
(S'plastic art'
p165
S'What type of plastic art is present in the image ?'
p166
tp167
a(S'group'
p168
S'Select the group represented by the image ?'
p169
tp170
asS'4665901180.jpg'
p171
(lp172
(S'show'
p173
S'What type of show is present in the image ?'
p174
tp175
a(S'time period'
p176
S'Select the time period represented by the image ?'
p177
tp178
asS'6353805299.jpg'
p179
(lp180
(S'life science'
p181
S'What type of life science is present in the image ?'
p182
tp183
a(S'nutriment'
p184
S'Select the nutriment represented by the image ?'
p185
tp186
asS'449352117.jpg'
p187
(lp188
(S'vertebrate'
p189
S'What type of vertebrate is present in the image ?'
p190
tp191
a(S'animal'
p192
S'Select the animal represented by the image ?'
p193
tp194
asS'3702436188.jpg'
p195
(lp196
(S'way'
p197
S'What type of way is present in the image ?'
p198
tp199
a(S'diversion'
p200
S'Select the diversion represented by the image ?'
p201
tp202
asS'2609836649.jpg'
p203
(lp204
(S'animal'
p205
S'What type of animal is present in the image ?'
p206
tp207
a(S'person'
p208
S'Select the person represented by the image ?'
p209
tp210
asS'4708960542.jpg'
p211
(lp212
(S'atmosphere'
p213
S'What type of atmosphere is present in the image ?'
p214
tp215
a(S'visual property'
p216
S'Select the visual property represented by the image ?'
p217
tp218
asS'3356642567.jpg'
p219
(lp220
(S'food'
p221
S'What type of food is present in the image ?'
p222
tp223
a(S'building complex'
p224
S'Select the building complex represented by the image ?'
p225
tp226
asS'2497343616.jpg'
p227
(lp228
(S'gathering'
p229
S'What type of gathering is present in the image ?'
p230
tp231
a(S'chromatic color'
p232
S'Select the chromatic color represented by the image ?'
p233
tp234
asS'3275711232.jpg'
p235
(lp236
(S'consumer goods'
p237
S'What type of consumer goods is present in the image ?'
p238
tp239
a(S'achromatic color'
p240
S'Select the achromatic color represented by the image ?'
p241
tp242
asS'8063954905.jpg'
p243
(lp244
(S'causal agent'
p245
S'What type of causal agent is present in the image ?'
p246
tp247
a(S'diversion'
p248
S'Select the diversion represented by the image ?'
p249
tp250
asS'3589425899.jpg'
p251
(lp252
(S'person'
p253
S'What type of person is present in the image ?'
p254
tp255
a(S'participant'
p256
S'Select the participant represented by the image ?'
p257
tp258
asS'5311134561.jpg'
p259
(lp260
(S'area'
p261
S'What type of area is present in the image ?'
p262
tp263
asS'450703803.jpg'
p264
(lp265
(S'diversion'
p266
S'What type of diversion is present in the image ?'
p267
tp268
a(S'structure'
p269
S'Select the structure represented by the image ?'
p270
tp271
asS'6336622544.jpg'
p272
(lp273
(S'diversion'
p274
S'What type of diversion is present in the image ?'
p275
tp276
a(S'field game'
p277
S'Select the field game represented by the image ?'
p278
tp279
asS'3902696609.jpg'
p280
(lp281
(S'body of water'
p282
S'What type of body of water is present in the image ?'
p283
tp284
a(S'body of water'
p285
S'Select the body of water represented by the image ?'
p286
tp287
asS'788126442.jpg'
p288
(lp289
(S'nutriment'
p290
S'What type of nutriment is present in the image ?'
p291
tp292
a(S'juvenile'
p293
S'Select the juvenile represented by the image ?'
p294
tp295
asS'2265106886.jpg'
p296
(lp297
(S'food'
p298
S'What type of food is present in the image ?'
p299
tp300
a(S'municipality'
p301
S'Select the municipality represented by the image ?'
p302
tp303
asS'3383545083.jpg'
p304
(lp305
(S'animal'
p306
S'What type of animal is present in the image ?'
p307
tp308
a(S'canine'
p309
S'Select the canine represented by the image ?'
p310
tp311
asS'2322046574.jpg'
p312
(lp313
(S'contestant'
p314
S'What type of contestant is present in the image ?'
p315
tp316
a(S'diversion'
p317
S'Select the diversion represented by the image ?'
p318
tp319
asS'2302747917.jpg'
p320
(lp321
(S'diversion'
p322
S'What type of diversion is present in the image ?'
p323
tp324
a(S'causal agent'
p325
S'Select the causal agent represented by the image ?'
p326
tp327
asS'445140686.jpg'
p328
(lp329
(S'consumer goods'
p330
S'What type of consumer goods is present in the image ?'
p331
tp332
a(S'appearance'
p333
S'Select the appearance represented by the image ?'
p334
tp335
asS'4477602852.jpg'
p336
(lp337
(S'consumer goods'
p338
S'What type of consumer goods is present in the image ?'
p339
tp340
a(S'causal agent'
p341
S'Select the causal agent represented by the image ?'
p342
tp343
asS'3890984576.jpg'
p344
(lp345
(S'wheeled vehicle'
p346
S'What type of wheeled vehicle is present in the image ?'
p347
tp348
a(S'way'
p349
S'Select the way represented by the image ?'
p350
tp351
asS'3477715432.jpg'
p352
(lp353
(S'nutriment'
p354
S'What type of nutriment is present in the image ?'
p355
tp356
a(S'group'
p357
S'Select the group represented by the image ?'
p358
tp359
asS'3591461782.jpg'
p360
(lp361
(S'diversion'
p362
S'What type of diversion is present in the image ?'
p363
tp364
a(S'cattle'
p365
S'Select the cattle represented by the image ?'
p366
tp367
asS'4148126293.jpg'
p368
(lp369
(S'way'
p370
S'What type of way is present in the image ?'
p371
tp372
a(S'adult'
p373
S'Select the adult represented by the image ?'
p374
tp375
asS'8146024600.jpg'
p376
(lp377
(S'dramatic composition'
p378
S'What type of dramatic composition is present in the image ?'
p379
tp380
a(S'juvenile'
p381
S'Select the juvenile represented by the image ?'
p382
tp383
asS'401233263.jpg'
p384
(lp385
(S'musician'
p386
S'What type of musician is present in the image ?'
p387
tp388
a(S'stringed instrument'
p389
S'Select the stringed instrument represented by the image ?'
p390
tp391
asS'6526560433.jpg'
p392
(lp393
(S'diversion'
p394
S'What type of diversion is present in the image ?'
p395
tp396
a(S'lineman'
p397
S'Select the lineman represented by the image ?'
p398
tp399
asS'4553840733.jpg'
p400
(lp401
(S'achromatic color'
p402
S'What type of achromatic color is present in the image ?'
p403
tp404
a(S'causal agent'
p405
S'Select the causal agent represented by the image ?'
p406
tp407
asS'2718184776.jpg'
p408
(lp409
(S'leisure'
p410
S'What type of leisure is present in the image ?'
p411
tp412
asS'7669425180.jpg'
p413
(lp414
(S'diversion'
p415
S'What type of diversion is present in the image ?'
p416
tp417
a(S'sport'
p418
S'Select the sport represented by the image ?'
p419
tp420
asS'4686887586.jpg'
p421
(lp422
sS'2298283771.jpg'
p423
(lp424
(S'ceremony'
p425
S'What type of ceremony is present in the image ?'
p426
tp427
a(S'speech act'
p428
S'Select the speech act represented by the image ?'
p429
tp430
asS'2282530092.jpg'
p431
(lp432
(S'causal agent'
p433
S'What type of causal agent is present in the image ?'
p434
tp435
a(S'adult'
p436
S'Select the adult represented by the image ?'
p437
tp438
asS'1616016569.jpg'
p439
(lp440
(S'causal agent'
p441
S'What type of causal agent is present in the image ?'
p442
tp443
a(S'group'
p444
S'Select the group represented by the image ?'
p445
tp446
asS'4755080891.jpg'
p447
(lp448
sS'2868776402.jpg'
p449
(lp450
(S'path'
p451
S'What type of path is present in the image ?'
p452
tp453
a(S'walk'
p454
S'Select the walk represented by the image ?'
p455
tp456
asS'110820212.jpg'
p457
(lp458
(S'instrumentality'
p459
S'What type of instrumentality is present in the image ?'
p460
tp461
a(S'visual property'
p462
S'Select the visual property represented by the image ?'
p463
tp464
asS'257000323.jpg'
p465
(lp466
sS'145291221.jpg'
p467
(lp468
(S'food'
p469
S'What type of food is present in the image ?'
p470
tp471
a(S'woody plant'
p472
S'Select the woody plant represented by the image ?'
p473
tp474
asS'295278943.jpg'
p475
(lp476
(S'spot'
p477
S'What type of spot is present in the image ?'
p478
tp479
a(S'building'
p480
S'Select the building represented by the image ?'
p481
tp482
asS'7232862442.jpg'
p483
(lp484
(S'causal agent'
p485
S'What type of causal agent is present in the image ?'
p486
tp487
a(S'diversion'
p488
S'Select the diversion represented by the image ?'
p489
tp490
asS'11214370.jpg'
p491
(lp492
(S'machine'
p493
S'What type of machine is present in the image ?'
p494
tp495
asS'4695699161.jpg'
p496
(lp497
(S'causal agent'
p498
S'What type of causal agent is present in the image ?'
p499
tp500
a(S'adult'
p501
S'Select the adult represented by the image ?'
p502
tp503
asS'5536289343.jpg'
p504
(lp505
(S'nutriment'
p506
S'What type of nutriment is present in the image ?'
p507
tp508
a(S'container'
p509
S'Select the container represented by the image ?'
p510
tp511
asS'2511782353.jpg'
p512
(lp513
(S'causal agent'
p514
S'What type of causal agent is present in the image ?'
p515
tp516
a(S'adult'
p517
S'Select the adult represented by the image ?'
p518
tp519
asS'2636930201.jpg'
p520
(lp521
(S'adult'
p522
S'What type of adult is present in the image ?'
p523
tp524
a(S'hair'
p525
S'Select the hair represented by the image ?'
p526
tp527
asS'4720926155.jpg'
p528
(lp529
(S'chromatic color'
p530
S'What type of chromatic color is present in the image ?'
p531
tp532
a(S'body of water'
p533
S'Select the body of water represented by the image ?'
p534
tp535
asS'69152837.jpg'
p536
(lp537
(S'body of water'
p538
S'What type of body of water is present in the image ?'
p539
tp540
a(S'juvenile'
p541
S'Select the juvenile represented by the image ?'
p542
tp543
asS'4952561999.jpg'
p544
(lp545
(S'way'
p546
S'What type of way is present in the image ?'
p547
tp548
a(S'thoroughfare'
p549
S'Select the thoroughfare represented by the image ?'
p550
tp551
asS'3253257881.jpg'
p552
(lp553
(S'chromatic color'
p554
S'What type of chromatic color is present in the image ?'
p555
tp556
a(S'gramineous plant'
p557
S'Select the gramineous plant represented by the image ?'
p558
tp559
asS'7397183064.jpg'
p560
(lp561
(S'chemoreceptor'
p562
S'What type of chemoreceptor is present in the image ?'
p563
tp564
a(S'hair'
p565
S'Select the hair represented by the image ?'
p566
tp567
asS'2158925258.jpg'
p568
(lp569
(S'building material'
p570
S'What type of building material is present in the image ?'
p571
tp572
a(S'protective covering'
p573
S'Select the protective covering represented by the image ?'
p574
tp575
asS'2947452329.jpg'
p576
(lp577
(S'contestant'
p578
S'What type of contestant is present in the image ?'
p579
tp580
a(S'diversion'
p581
S'Select the diversion represented by the image ?'
p582
tp583
asS'3580604460.jpg'
p584
(lp585
(S'spectacles'
p586
S'What type of spectacles is present in the image ?'
p587
tp588
a(S'optical instrument'
p589
S'Select the optical instrument represented by the image ?'
p590
tp591
asS'526847964.jpg'
p592
(lp593
(S'chromatic color'
p594
S'What type of chromatic color is present in the image ?'
p595
tp596
a(S'wit'
p597
S'Select the wit represented by the image ?'
p598
tp599
asS'4785666083.jpg'
p600
(lp601
(S'artifact'
p602
S'What type of artifact is present in the image ?'
p603
tp604
a(S'furnishing'
p605
S'Select the furnishing represented by the image ?'
p606
tp607
asS'107532584.jpg'
p608
(lp609
(S'causal agent'
p610
S'What type of causal agent is present in the image ?'
p611
tp612
asS'433379122.jpg'
p613
(lp614
(S'municipality'
p615
S'What type of municipality is present in the image ?'
p616
tp617
a(S'chromatic color'
p618
S'Select the chromatic color represented by the image ?'
p619
tp620
asS'1230594535.jpg'
p621
(lp622
(S'chromatic color'
p623
S'What type of chromatic color is present in the image ?'
p624
tp625
a(S'representation'
p626
S'Select the representation represented by the image ?'
p627
tp628
asS'7455508610.jpg'
p629
(lp630
(S'time period'
p631
S'What type of time period is present in the image ?'
p632
tp633
a(S'custom'
p634
S'Select the custom represented by the image ?'
p635
tp636
asS'3291515826.jpg'
p637
(lp638
(S'unit'
p639
S'What type of unit is present in the image ?'
p640
tp641
a(S'occupational group'
p642
S'Select the occupational group represented by the image ?'
p643
tp644
asS'231439338.jpg'
p645
(lp646
(S'creating from raw materials'
p647
S'What type of creating from raw materials is present in the image ?'
p648
tp649
a(S'hoop'
p650
S'Select the hoop represented by the image ?'
p651
tp652
asS'1034276567.jpg'
p653
(lp654
(S'causal agent'
p655
S'What type of causal agent is present in the image ?'
p656
tp657
a(S'juvenile'
p658
S'Select the juvenile represented by the image ?'
p659
tp660
asS'698947790.jpg'
p661
(lp662
(S'dramatic composition'
p663
S'What type of dramatic composition is present in the image ?'
p664
tp665
a(S'yard'
p666
S'Select the yard represented by the image ?'
p667
tp668
asS'4618885426.jpg'
p669
(lp670
(S'leisure'
p671
S'What type of leisure is present in the image ?'
p672
tp673
a(S'causal agent'
p674
S'Select the causal agent represented by the image ?'
p675
tp676
asS'1177949654.jpg'
p677
(lp678
(S'traveler'
p679
S'What type of traveler is present in the image ?'
p680
tp681
a(S'city district'
p682
S'Select the city district represented by the image ?'
p683
tp684
asS'5152631402.jpg'
p685
(lp686
(S'conveyance'
p687
S'What type of conveyance is present in the image ?'
p688
tp689
asS'3548356189.jpg'
p690
(lp691
(S'juvenile'
p692
S'What type of juvenile is present in the image ?'
p693
tp694
asS'2535619827.jpg'
p695
(lp696
(S'way'
p697
S'What type of way is present in the image ?'
p698
tp699
a(S'street'
p700
S'Select the street represented by the image ?'
p701
tp702
asS'5977277290.jpg'
p703
(lp704
(S'show'
p705
S'What type of show is present in the image ?'
p706
tp707
a(S'creation'
p708
S'Select the creation represented by the image ?'
p709
tp710
asS'482830610.jpg'
p711
(lp712
(S'chromatic color'
p713
S'What type of chromatic color is present in the image ?'
p714
tp715
a(S'instrumentality'
p716
S'Select the instrumentality represented by the image ?'
p717
tp718
asS'1432506301.jpg'
p719
(lp720
(S'instrumentality'
p721
S'What type of instrumentality is present in the image ?'
p722
tp723
a(S'motor vehicle'
p724
S'Select the motor vehicle represented by the image ?'
p725
tp726
asS'137431253.jpg'
p727
(lp728
(S'chromatic color'
p729
S'What type of chromatic color is present in the image ?'
p730
tp731
a(S'objection'
p732
S'Select the objection represented by the image ?'
p733
tp734
asS'4756089621.jpg'
p735
(lp736
(S'wheeled vehicle'
p737
S'What type of wheeled vehicle is present in the image ?'
p738
tp739
a(S'way'
p740
S'Select the way represented by the image ?'
p741
tp742
asS'3937715125.jpg'
p743
(lp744
(S'body of water'
p745
S'What type of body of water is present in the image ?'
p746
tp747
a(S'leisure'
p748
S'Select the leisure represented by the image ?'
p749
tp750
asS'460007281.jpg'
p751
(lp752
(S'diversion'
p753
S'What type of diversion is present in the image ?'
p754
tp755
a(S'contestant'
p756
S'Select the contestant represented by the image ?'
p757
tp758
asS'2705101169.jpg'
p759
(lp760
(S'group'
p761
S'What type of group is present in the image ?'
p762
tp763
a(S'gathering'
p764
S'Select the gathering represented by the image ?'
p765
tp766
asS'2228156682.jpg'
p767
(lp768
(S'diversion'
p769
S'What type of diversion is present in the image ?'
p770
tp771
asS'3268428191.jpg'
p772
(lp773
(S'product'
p774
S'What type of product is present in the image ?'
p775
tp776
asS'661755629.jpg'
p777
(lp778
(S'animal'
p779
S'What type of animal is present in the image ?'
p780
tp781
a(S'canine'
p782
S'Select the canine represented by the image ?'
p783
tp784
asS'2283966256.jpg'
p785
(lp786
(S'animal'
p787
S'What type of animal is present in the image ?'
p788
tp789
a(S'canine'
p790
S'Select the canine represented by the image ?'
p791
tp792
asS'4604111022.jpg'
p793
(lp794
(S'performer'
p795
S'What type of performer is present in the image ?'
p796
tp797
a(S'causal agent'
p798
S'Select the causal agent represented by the image ?'
p799
tp800
asS'2230693384.jpg'
p801
(lp802
(S'causal agent'
p803
S'What type of causal agent is present in the image ?'
p804
tp805
a(S'adult'
p806
S'Select the adult represented by the image ?'
p807
tp808
asS'762678729.jpg'
p809
(lp810
(S'show'
p811
S'What type of show is present in the image ?'
p812
tp813
asS'105806535.jpg'
p814
(lp815
(S'soil'
p816
S'What type of soil is present in the image ?'
p817
tp818
asS'2454054454.jpg'
p819
(lp820
(S'activity'
p821
S'What type of activity is present in the image ?'
p822
tp823
a(S'municipality'
p824
S'Select the municipality represented by the image ?'
p825
tp826
asS'5643010407.jpg'
p827
(lp828
(S'diversion'
p829
S'What type of diversion is present in the image ?'
p830
tp831
asS'1588931550.jpg'
p832
(lp833
(S'consideration'
p834
S'What type of consideration is present in the image ?'
p835
tp836
asS'4889393782.jpg'
p837
(lp838
(S'thoroughfare'
p839
S'What type of thoroughfare is present in the image ?'
p840
tp841
asS'4803787546.jpg'
p842
(lp843
(S'diversion'
p844
S'What type of diversion is present in the image ?'
p845
tp846
asS'3534388678.jpg'
p847
(lp848
(S'contestant'
p849
S'What type of contestant is present in the image ?'
p850
tp851
a(S'way'
p852
S'Select the way represented by the image ?'
p853
tp854
asS'4057116288.jpg'
p855
(lp856
(S'causal agent'
p857
S'What type of causal agent is present in the image ?'
p858
tp859
a(S'juvenile'
p860
S'Select the juvenile represented by the image ?'
p861
tp862
asS'461118477.jpg'
p863
(lp864
(S'group'
p865
S'What type of group is present in the image ?'
p866
tp867
a(S'plant organ'
p868
S'Select the plant organ represented by the image ?'
p869
tp870
asS'3161752000.jpg'
p871
(lp872
(S'diversion'
p873
S'What type of diversion is present in the image ?'
p874
tp875
a(S'transport'
p876
S'Select the transport represented by the image ?'
p877
tp878
asS'503486811.jpg'
p879
(lp880
(S'nutriment'
p881
S'What type of nutriment is present in the image ?'
p882
tp883
a(S'group'
p884
S'Select the group represented by the image ?'
p885
tp886
asS'3218889785.jpg'
p887
(lp888
(S'time period'
p889
S'What type of time period is present in the image ?'
p890
tp891
asS'3128180391.jpg'
p892
(lp893
(S'precipitation'
p894
S'What type of precipitation is present in the image ?'
p895
tp896
a(S'season'
p897
S'Select the season represented by the image ?'
p898
tp899
asS'2243728869.jpg'
p900
(lp901
(S'furnishing'
p902
S'What type of furnishing is present in the image ?'
p903
tp904
asS'4612024952.jpg'
p905
(lp906
(S'way'
p907
S'What type of way is present in the image ?'
p908
tp909
a(S'municipality'
p910
S'Select the municipality represented by the image ?'
p911
tp912
asS'4846880357.jpg'
p913
(lp914
(S'food'
p915
S'What type of food is present in the image ?'
p916
tp917
a(S'substance'
p918
S'Select the substance represented by the image ?'
p919
tp920
asS'3192005501.jpg'
p921
(lp922
(S'causal agent'
p923
S'What type of causal agent is present in the image ?'
p924
tp925
a(S'area'
p926
S'Select the area represented by the image ?'
p927
tp928
asS'4686350232.jpg'
p929
(lp930
(S'way'
p931
S'What type of way is present in the image ?'
p932
tp933
a(S'street'
p934
S'Select the street represented by the image ?'
p935
tp936
asS'6268271168.jpg'
p937
(lp938
(S'clothing'
p939
S'What type of clothing is present in the image ?'
p940
tp941
a(S'seat'
p942
S'Select the seat represented by the image ?'
p943
tp944
asS'72090503.jpg'
p945
(lp946
(S'contestant'
p947
S'What type of contestant is present in the image ?'
p948
tp949
a(S'diversion'
p950
S'Select the diversion represented by the image ?'
p951
tp952
asS'2574824768.jpg'
p953
(lp954
(S'workplace'
p955
S'What type of workplace is present in the image ?'
p956
tp957
a(S'juvenile'
p958
S'Select the juvenile represented by the image ?'
p959
tp960
asS'1410585992.jpg'
p961
(lp962
(S'vertebrate'
p963
S'What type of vertebrate is present in the image ?'
p964
tp965
a(S'organism'
p966
S'Select the organism represented by the image ?'
p967
tp968
asS'5631556013.jpg'
p969
(lp970
(S'leisure'
p971
S'What type of leisure is present in the image ?'
p972
tp973
asS'1394796089.jpg'
p974
(lp975
(S'performer'
p976
S'What type of performer is present in the image ?'
p977
tp978
a(S'auditory communication'
p979
S'Select the auditory communication represented by the image ?'
p980
tp981
asS'2344969116.jpg'
p982
(lp983
(S'causal agent'
p984
S'What type of causal agent is present in the image ?'
p985
tp986
a(S'religious'
p987
S'Select the religious represented by the image ?'
p988
tp989
asS'1026685415.jpg'
p990
(lp991
(S'animal'
p992
S'What type of animal is present in the image ?'
p993
tp994
a(S'vertebrate'
p995
S'Select the vertebrate represented by the image ?'
p996
tp997
asS'509985881.jpg'
p998
(lp999
(S'wheeled vehicle'
p1000
S'What type of wheeled vehicle is present in the image ?'
p1001
tp1002
a(S'show'
p1003
S'Select the show represented by the image ?'
p1004
tp1005
asS'3497234588.jpg'
p1006
(lp1007
(S'gathering'
p1008
S'What type of gathering is present in the image ?'
p1009
tp1010
asS'311278382.jpg'
p1011
(lp1012
(S'formation'
p1013
S'What type of formation is present in the image ?'
p1014
tp1015
asS'2112921744.jpg'
p1016
(lp1017
(S'chromatic color'
p1018
S'What type of chromatic color is present in the image ?'
p1019
tp1020
a(S'natural elevation'
p1021
S'Select the natural elevation represented by the image ?'
p1022
tp1023
asS'12526324.jpg'
p1024
(lp1025
(S'dramatic composition'
p1026
S'What type of dramatic composition is present in the image ?'
p1027
tp1028
a(S'child'
p1029
S'Select the child represented by the image ?'
p1030
tp1031
asS'811663364.jpg'
p1032
(lp1033
(S'track and field'
p1034
S'What type of track and field is present in the image ?'
p1035
tp1036
a(S'artifact'
p1037
S'Select the artifact represented by the image ?'
p1038
tp1039
asS'2774095272.jpg'
p1040
(lp1041
(S'chromatic color'
p1042
S'What type of chromatic color is present in the image ?'
p1043
tp1044
asS'3077781040.jpg'
p1045
(lp1046
(S'wheeled vehicle'
p1047
S'What type of wheeled vehicle is present in the image ?'
p1048
tp1049
a(S'sport'
p1050
S'Select the sport represented by the image ?'
p1051
tp1052
asS'651277216.jpg'
p1053
(lp1054
(S'municipality'
p1055
S'What type of municipality is present in the image ?'
p1056
tp1057
a(S'way'
p1058
S'Select the way represented by the image ?'
p1059
tp1060
asS'428927040.jpg'
p1061
(lp1062
(S'juvenile'
p1063
S'What type of juvenile is present in the image ?'
p1064
tp1065
asS'2060031241.jpg'
p1066
(lp1067
(S'causal agent'
p1068
S'What type of causal agent is present in the image ?'
p1069
tp1070
a(S'procurator'
p1071
S'Select the procurator represented by the image ?'
p1072
tp1073
asS'322811355.jpg'
p1074
(lp1075
(S'causal agent'
p1076
S'What type of causal agent is present in the image ?'
p1077
tp1078
a(S'collection'
p1079
S'Select the collection represented by the image ?'
p1080
tp1081
asS'1348947380.jpg'
p1082
(lp1083
(S'animal'
p1084
S'What type of animal is present in the image ?'
p1085
tp1086
a(S'canine'
p1087
S'Select the canine represented by the image ?'
p1088
tp1089
asS'2148747441.jpg'
p1090
(lp1091
(S'municipality'
p1092
S'What type of municipality is present in the image ?'
p1093
tp1094
a(S'chromatic color'
p1095
S'Select the chromatic color represented by the image ?'
p1096
tp1097
asS'4857185816.jpg'
p1098
(lp1099
(S'consumer goods'
p1100
S'What type of consumer goods is present in the image ?'
p1101
tp1102
a(S'way'
p1103
S'Select the way represented by the image ?'
p1104
tp1105
asS'3596356507.jpg'
p1106
(lp1107
(S'causal agent'
p1108
S'What type of causal agent is present in the image ?'
p1109
tp1110
a(S'diversion'
p1111
S'Select the diversion represented by the image ?'
p1112
tp1113
asS'3850580198.jpg'
p1114
(lp1115
(S'adult'
p1116
S'What type of adult is present in the image ?'
p1117
tp1118
a(S'group'
p1119
S'Select the group represented by the image ?'
p1120
tp1121
asS'2269795781.jpg'
p1122
(lp1123
(S'diversion'
p1124
S'What type of diversion is present in the image ?'
p1125
tp1126
a(S'court game'
p1127
S'Select the court game represented by the image ?'
p1128
tp1129
asS'2892395757.jpg'
p1130
(lp1131
(S'conveyance'
p1132
S'What type of conveyance is present in the image ?'
p1133
tp1134
a(S'wheeled vehicle'
p1135
S'Select the wheeled vehicle represented by the image ?'
p1136
tp1137
asS'5023361024.jpg'
p1138
(lp1139
(S'geological formation'
p1140
S'What type of geological formation is present in the image ?'
p1141
tp1142
a(S'body of water'
p1143
S'Select the body of water represented by the image ?'
p1144
tp1145
asS'2935986346.jpg'
p1146
(lp1147
(S'animal'
p1148
S'What type of animal is present in the image ?'
p1149
tp1150
a(S'canine'
p1151
S'Select the canine represented by the image ?'
p1152
tp1153
asS'2101068655.jpg'
p1154
(lp1155
(S'creation'
p1156
S'What type of creation is present in the image ?'
p1157
tp1158
a(S'diversion'
p1159
S'Select the diversion represented by the image ?'
p1160
tp1161
asS'2099852435.jpg'
p1162
(lp1163
(S'body of water'
p1164
S'What type of body of water is present in the image ?'
p1165
tp1166
a(S'leisure'
p1167
S'Select the leisure represented by the image ?'
p1168
tp1169
asS'3370159435.jpg'
p1170
(lp1171
(S'objection'
p1172
S'What type of objection is present in the image ?'
p1173
tp1174
a(S'gathering'
p1175
S'Select the gathering represented by the image ?'
p1176
tp1177
asS'4508972634.jpg'
p1178
(lp1179
(S'artifact'
p1180
S'What type of artifact is present in the image ?'
p1181
tp1182
asS'1010470346.jpg'
p1183
(lp1184
(S'conveyance'
p1185
S'What type of conveyance is present in the image ?'
p1186
tp1187
a(S'building'
p1188
S'Select the building represented by the image ?'
p1189
tp1190
asS'2945213105.jpg'
p1191
(lp1192
(S'causal agent'
p1193
S'What type of causal agent is present in the image ?'
p1194
tp1195
a(S'limb'
p1196
S'Select the limb represented by the image ?'
p1197
tp1198
asS'4655871409.jpg'
p1199
(lp1200
(S'causal agent'
p1201
S'What type of causal agent is present in the image ?'
p1202
tp1203
a(S'conveyance'
p1204
S'Select the conveyance represented by the image ?'
p1205
tp1206
asS'2326664830.jpg'
p1207
(lp1208
(S'body of water'
p1209
S'What type of body of water is present in the image ?'
p1210
tp1211
a(S'body of water'
p1212
S'Select the body of water represented by the image ?'
p1213
tp1214
asS'6009022127.jpg'
p1215
(lp1216
(S'diversion'
p1217
S'What type of diversion is present in the image ?'
p1218
tp1219
asS'2568417021.jpg'
p1220
(lp1221
(S'plastic art'
p1222
S'What type of plastic art is present in the image ?'
p1223
tp1224
asS'3580375310.jpg'
p1225
(lp1226
(S'diversion'
p1227
S'What type of diversion is present in the image ?'
p1228
tp1229
a(S'contestant'
p1230
S'Select the contestant represented by the image ?'
p1231
tp1232
asS'3344226994.jpg'
p1233
(lp1234
(S'yard'
p1235
S'What type of yard is present in the image ?'
p1236
tp1237
asS'4708245188.jpg'
p1238
(lp1239
(S'group'
p1240
S'What type of group is present in the image ?'
p1241
tp1242
a(S'nutriment'
p1243
S'Select the nutriment represented by the image ?'
p1244
tp1245
asS'480017120.jpg'
p1246
(lp1247
(S'device'
p1248
S'What type of device is present in the image ?'
p1249
tp1250
a(S'gambling house'
p1251
S'Select the gambling house represented by the image ?'
p1252
tp1253
asS'3804316124.jpg'
p1254
(lp1255
(S'municipality'
p1256
S'What type of municipality is present in the image ?'
p1257
tp1258
a(S'municipality'
p1259
S'Select the municipality represented by the image ?'
p1260
tp1261
asS'2300920203.jpg'
p1262
(lp1263
(S'animal'
p1264
S'What type of animal is present in the image ?'
p1265
tp1266
a(S'canine'
p1267
S'Select the canine represented by the image ?'
p1268
tp1269
asS'7498906026.jpg'
p1270
(lp1271
(S'diversion'
p1272
S'What type of diversion is present in the image ?'
p1273
tp1274
a(S'skating'
p1275
S'Select the skating represented by the image ?'
p1276
tp1277
asS'563404108.jpg'
p1278
(lp1279
(S'gathering'
p1280
S'What type of gathering is present in the image ?'
p1281
tp1282
a(S'causal agent'
p1283
S'Select the causal agent represented by the image ?'
p1284
tp1285
asS'2419186511.jpg'
p1286
(lp1287
(S'child'
p1288
S'What type of child is present in the image ?'
p1289
tp1290
a(S'substance'
p1291
S'Select the substance represented by the image ?'
p1292
tp1293
asS'5735222957.jpg'
p1294
(lp1295
(S'way'
p1296
S'What type of way is present in the image ?'
p1297
tp1298
a(S'thoroughfare'
p1299
S'Select the thoroughfare represented by the image ?'
p1300
tp1301
asS'200771289.jpg'
p1302
(lp1303
(S'causal agent'
p1304
S'What type of causal agent is present in the image ?'
p1305
tp1306
a(S'occupational group'
p1307
S'Select the occupational group represented by the image ?'
p1308
tp1309
asS'2978024878.jpg'
p1310
(lp1311
(S'animal'
p1312
S'What type of animal is present in the image ?'
p1313
tp1314
a(S'organism'
p1315
S'Select the organism represented by the image ?'
p1316
tp1317
asS'104285082.jpg'
p1318
(lp1319
(S'attire'
p1320
S'What type of attire is present in the image ?'
p1321
tp1322
asS'3326086533.jpg'
p1323
(lp1324
(S'animal'
p1325
S'What type of animal is present in the image ?'
p1326
tp1327
a(S'canine'
p1328
S'Select the canine represented by the image ?'
p1329
tp1330
asS'3319058642.jpg'
p1331
(lp1332
(S'chromatic color'
p1333
S'What type of chromatic color is present in the image ?'
p1334
tp1335
a(S'spot'
p1336
S'Select the spot represented by the image ?'
p1337
tp1338
asS'4696105760.jpg'
p1339
(lp1340
(S'dramatic composition'
p1341
S'What type of dramatic composition is present in the image ?'
p1342
tp1343
asS'4397975773.jpg'
p1344
(lp1345
(S"woman's clothing"
p1346
S"What type of woman's clothing is present in the image ?"
p1347
tp1348
a(S'appearance'
p1349
S'Select the appearance represented by the image ?'
p1350
tp1351
asS'1691038839.jpg'
p1352
(lp1353
(S'field game'
p1354
S'What type of field game is present in the image ?'
p1355
tp1356
a(S'diversion'
p1357
S'Select the diversion represented by the image ?'
p1358
tp1359
asS'3836884647.jpg'
p1360
(lp1361
(S'artifact'
p1362
S'What type of artifact is present in the image ?'
p1363
tp1364
a(S'commercial enterprise'
p1365
S'Select the commercial enterprise represented by the image ?'
p1366
tp1367
asS'6258705152.jpg'
p1368
(lp1369
(S'consumer goods'
p1370
S'What type of consumer goods is present in the image ?'
p1371
tp1372
a(S'creation'
p1373
S'Select the creation represented by the image ?'
p1374
tp1375
asS'3068994801.jpg'
p1376
(lp1377
(S'time period'
p1378
S'What type of time period is present in the image ?'
p1379
tp1380
a(S'conveyance'
p1381
S'Select the conveyance represented by the image ?'
p1382
tp1383
asS'2285664.jpg'
p1384
(lp1385
(S'way'
p1386
S'What type of way is present in the image ?'
p1387
tp1388
a(S'group'
p1389
S'Select the group represented by the image ?'
p1390
tp1391
asS'2431832075.jpg'
p1392
(lp1393
(S'dramatic composition'
p1394
S'What type of dramatic composition is present in the image ?'
p1395
tp1396
a(S'cloth covering'
p1397
S'Select the cloth covering represented by the image ?'
p1398
tp1399
asS'4018186978.jpg'
p1400
(lp1401
(S'chromatic color'
p1402
S'What type of chromatic color is present in the image ?'
p1403
tp1404
a(S'way'
p1405
S'Select the way represented by the image ?'
p1406
tp1407
asS'2716457668.jpg'
p1408
(lp1409
(S'chromatic color'
p1410
S'What type of chromatic color is present in the image ?'
p1411
tp1412
a(S'representation'
p1413
S'Select the representation represented by the image ?'
p1414
tp1415
asS'2249783327.jpg'
p1416
(lp1417
(S'nutriment'
p1418
S'What type of nutriment is present in the image ?'
p1419
tp1420
a(S'meal'
p1421
S'Select the meal represented by the image ?'
p1422
tp1423
asS'142347382.jpg'
p1424
(lp1425
(S'show'
p1426
S'What type of show is present in the image ?'
p1427
tp1428
a(S'creation'
p1429
S'Select the creation represented by the image ?'
p1430
tp1431
asS'2354064281.jpg'
p1432
(lp1433
(S'animal'
p1434
S'What type of animal is present in the image ?'
p1435
tp1436
a(S'canine'
p1437
S'Select the canine represented by the image ?'
p1438
tp1439
asS'134201079.jpg'
p1440
(lp1441
(S'chromatic color'
p1442
S'What type of chromatic color is present in the image ?'
p1443
tp1444
a(S'optical instrument'
p1445
S'Select the optical instrument represented by the image ?'
p1446
tp1447
asS'2089542487.jpg'
p1448
(lp1449
(S'locomotion'
p1450
S'What type of locomotion is present in the image ?'
p1451
tp1452
a(S'course'
p1453
S'Select the course represented by the image ?'
p1454
tp1455
asS'4656148446.jpg'
p1456
(lp1457
(S'diversion'
p1458
S'What type of diversion is present in the image ?'
p1459
tp1460
a(S'adult'
p1461
S'Select the adult represented by the image ?'
p1462
tp1463
asS'514195502.jpg'
p1464
(lp1465
(S'movable barrier'
p1466
S'What type of movable barrier is present in the image ?'
p1467
tp1468
asS'2409312675.jpg'
p1469
(lp1470
(S'motor vehicle'
p1471
S'What type of motor vehicle is present in the image ?'
p1472
tp1473
a(S'conveyance'
p1474
S'Select the conveyance represented by the image ?'
p1475
tp1476
asS'2623023009.jpg'
p1477
(lp1478
(S'causal agent'
p1479
S'What type of causal agent is present in the image ?'
p1480
tp1481
a(S'juvenile'
p1482
S'Select the juvenile represented by the image ?'
p1483
tp1484
asS'7057696291.jpg'
p1485
(lp1486
(S'container'
p1487
S'What type of container is present in the image ?'
p1488
tp1489
a(S'substance'
p1490
S'Select the substance represented by the image ?'
p1491
tp1492
asS'2676651833.jpg'
p1493
(lp1494
(S'chromatic color'
p1495
S'What type of chromatic color is present in the image ?'
p1496
tp1497
a(S'dramatic composition'
p1498
S'Select the dramatic composition represented by the image ?'
p1499
tp1500
asS'2092425006.jpg'
p1501
(lp1502
(S'way'
p1503
S'What type of way is present in the image ?'
p1504
tp1505
a(S'conveyance'
p1506
S'Select the conveyance represented by the image ?'
p1507
tp1508
asS'2942616793.jpg'
p1509
(lp1510
(S'conveyance'
p1511
S'What type of conveyance is present in the image ?'
p1512
tp1513
a(S'wheeled vehicle'
p1514
S'Select the wheeled vehicle represented by the image ?'
p1515
tp1516
asS'3376227695.jpg'
p1517
(lp1518
(S'leisure'
p1519
S'What type of leisure is present in the image ?'
p1520
tp1521
a(S'group'
p1522
S'Select the group represented by the image ?'
p1523
tp1524
asS'382701159.jpg'
p1525
(lp1526
(S'body of water'
p1527
S'What type of body of water is present in the image ?'
p1528
tp1529
a(S'body of water'
p1530
S'Select the body of water represented by the image ?'
p1531
tp1532
asS'3056532716.jpg'
p1533
(lp1534
(S'vine'
p1535
S'What type of vine is present in the image ?'
p1536
tp1537
a(S'diversion'
p1538
S'Select the diversion represented by the image ?'
p1539
tp1540
asS'508793006.jpg'
p1541
(lp1542
(S'diversion'
p1543
S'What type of diversion is present in the image ?'
p1544
tp1545
a(S'equine'
p1546
S'Select the equine represented by the image ?'
p1547
tp1548
asS'2639766602.jpg'
p1549
(lp1550
(S'public square'
p1551
S'What type of public square is present in the image ?'
p1552
tp1553
asS'3391209042.jpg'
p1554
(lp1555
(S'chromatic color'
p1556
S'What type of chromatic color is present in the image ?'
p1557
tp1558
a(S'plastic art'
p1559
S'Select the plastic art represented by the image ?'
p1560
tp1561
asS'4691873312.jpg'
p1562
(lp1563
(S'cattle'
p1564
S'What type of cattle is present in the image ?'
p1565
tp1566
a(S'traveler'
p1567
S'Select the traveler represented by the image ?'
p1568
tp1569
asS'945509052.jpg'
p1570
(lp1571
(S'quality'
p1572
S'What type of quality is present in the image ?'
p1573
tp1574
a(S'body of water'
p1575
S'Select the body of water represented by the image ?'
p1576
tp1577
asS'439584948.jpg'
p1578
(lp1579
(S'adult'
p1580
S'What type of adult is present in the image ?'
p1581
tp1582
a(S'newlywed'
p1583
S'Select the newlywed represented by the image ?'
p1584
tp1585
asS'2900048238.jpg'
p1586
(lp1587
(S'diversion'
p1588
S'What type of diversion is present in the image ?'
p1589
tp1590
a(S'time period'
p1591
S'Select the time period represented by the image ?'
p1592
tp1593
asS'6929649160.jpg'
p1594
(lp1595
(S'sport'
p1596
S'What type of sport is present in the image ?'
p1597
tp1598
a(S'diversion'
p1599
S'Select the diversion represented by the image ?'
p1600
tp1601
asS'3644142276.jpg'
p1602
(lp1603
(S'show'
p1604
S'What type of show is present in the image ?'
p1605
tp1606
a(S'creation'
p1607
S'Select the creation represented by the image ?'
p1608
tp1609
asS'3337695238.jpg'
p1610
(lp1611
(S'diversion'
p1612
S'What type of diversion is present in the image ?'
p1613
tp1614
a(S'unit'
p1615
S'Select the unit represented by the image ?'
p1616
tp1617
asS'3716277216.jpg'
p1618
(lp1619
(S'group'
p1620
S'What type of group is present in the image ?'
p1621
tp1622
a(S'structure'
p1623
S'Select the structure represented by the image ?'
p1624
tp1625
asS'3358980904.jpg'
p1626
(lp1627
(S'body of water'
p1628
S'What type of body of water is present in the image ?'
p1629
tp1630
a(S'vessel'
p1631
S'Select the vessel represented by the image ?'
p1632
tp1633
asS'695641996.jpg'
p1634
(lp1635
(S'animal'
p1636
S'What type of animal is present in the image ?'
p1637
tp1638
a(S'vertebrate'
p1639
S'Select the vertebrate represented by the image ?'
p1640
tp1641
asS'279922357.jpg'
p1642
(lp1643
(S'chromatic color'
p1644
S'What type of chromatic color is present in the image ?'
p1645
tp1646
a(S'angiosperm'
p1647
S'Select the angiosperm represented by the image ?'
p1648
tp1649
asS'7995263133.jpg'
p1650
(lp1651
(S'causal agent'
p1652
S'What type of causal agent is present in the image ?'
p1653
tp1654
a(S'juvenile'
p1655
S'Select the juvenile represented by the image ?'
p1656
tp1657
asS'504385521.jpg'
p1658
(lp1659
(S'vertebrate'
p1660
S'What type of vertebrate is present in the image ?'
p1661
tp1662
a(S'organism'
p1663
S'Select the organism represented by the image ?'
p1664
tp1665
asS'2552949275.jpg'
p1666
(lp1667
(S'body of water'
p1668
S'What type of body of water is present in the image ?'
p1669
tp1670
a(S'binary compound'
p1671
S'Select the binary compound represented by the image ?'
p1672
tp1673
asS'381052465.jpg'
p1674
(lp1675
(S'happening'
p1676
S'What type of happening is present in the image ?'
p1677
tp1678
a(S'process'
p1679
S'Select the process represented by the image ?'
p1680
tp1681
asS'3692154582.jpg'
p1682
(lp1683
(S'body covering'
p1684
S'What type of body covering is present in the image ?'
p1685
tp1686
a(S'hair'
p1687
S'Select the hair represented by the image ?'
p1688
tp1689
asS'324641725.jpg'
p1690
(lp1691
(S'causal agent'
p1692
S'What type of causal agent is present in the image ?'
p1693
tp1694
a(S'motion'
p1695
S'Select the motion represented by the image ?'
p1696
tp1697
asS'1975531316.jpg'
p1698
(lp1699
(S'animal'
p1700
S'What type of animal is present in the image ?'
p1701
tp1702
a(S'canine'
p1703
S'Select the canine represented by the image ?'
p1704
tp1705
asS'4770851749.jpg'
p1706
(lp1707
(S'nutriment'
p1708
S'What type of nutriment is present in the image ?'
p1709
tp1710
a(S'substance'
p1711
S'Select the substance represented by the image ?'
p1712
tp1713
asS'72218201.jpg'
p1714
(lp1715
(S'diversion'
p1716
S'What type of diversion is present in the image ?'
p1717
tp1718
a(S'clothing'
p1719
S'Select the clothing represented by the image ?'
p1720
tp1721
asS'4516262474.jpg'
p1722
(lp1723
(S'adult'
p1724
S'What type of adult is present in the image ?'
p1725
tp1726
asS'3605883553.jpg'
p1727
(lp1728
(S'boat'
p1729
S'What type of boat is present in the image ?'
p1730
tp1731
a(S'water travel'
p1732
S'Select the water travel represented by the image ?'
p1733
tp1734
asS'4860086271.jpg'
p1735
(lp1736
(S'causal agent'
p1737
S'What type of causal agent is present in the image ?'
p1738
tp1739
a(S'dramatic composition'
p1740
S'Select the dramatic composition represented by the image ?'
p1741
tp1742
asS'6073565104.jpg'
p1743
(lp1744
(S'diversion'
p1745
S'What type of diversion is present in the image ?'
p1746
tp1747
a(S'undertaking'
p1748
S'Select the undertaking represented by the image ?'
p1749
tp1750
asS'3380583752.jpg'
p1751
(lp1752
(S'chromatic color'
p1753
S'What type of chromatic color is present in the image ?'
p1754
tp1755
a(S'animal'
p1756
S'Select the animal represented by the image ?'
p1757
tp1758
asS'6317524735.jpg'
p1759
(lp1760
(S'art'
p1761
S'What type of art is present in the image ?'
p1762
tp1763
a(S'creation'
p1764
S'Select the creation represented by the image ?'
p1765
tp1766
asS'4349185080.jpg'
p1767
(lp1768
(S'angiosperm'
p1769
S'What type of angiosperm is present in the image ?'
p1770
tp1771
a(S"woman's clothing"
p1772
S"Select the woman's clothing represented by the image ?"
p1773
tp1774
asS'3793793899.jpg'
p1775
(lp1776
(S'diversion'
p1777
S'What type of diversion is present in the image ?'
p1778
tp1779
a(S'skating'
p1780
S'Select the skating represented by the image ?'
p1781
tp1782
asS'2428753812.jpg'
p1783
(lp1784
sS'204150602.jpg'
p1785
(lp1786
(S'conveyance'
p1787
S'What type of conveyance is present in the image ?'
p1788
tp1789
a(S'consideration'
p1790
S'Select the consideration represented by the image ?'
p1791
tp1792
asS'2730994020.jpg'
p1793
(lp1794
(S'animal'
p1795
S'What type of animal is present in the image ?'
p1796
tp1797
a(S'vertebrate'
p1798
S'Select the vertebrate represented by the image ?'
p1799
tp1800
asS'5432374521.jpg'
p1801
(lp1802
(S'gathering'
p1803
S'What type of gathering is present in the image ?'
p1804
tp1805
a(S'group'
p1806
S'Select the group represented by the image ?'
p1807
tp1808
asS'854848076.jpg'
p1809
(lp1810
(S'time period'
p1811
S'What type of time period is present in the image ?'
p1812
tp1813
asS'3285214689.jpg'
p1814
(lp1815
(S'court game'
p1816
S'What type of court game is present in the image ?'
p1817
tp1818
a(S'diversion'
p1819
S'Select the diversion represented by the image ?'
p1820
tp1821
asS'4621758865.jpg'
p1822
(lp1823
(S'conveyance'
p1824
S'What type of conveyance is present in the image ?'
p1825
tp1826
a(S'wagon'
p1827
S'Select the wagon represented by the image ?'
p1828
tp1829
asS'2837777441.jpg'
p1830
(lp1831
(S'juvenile'
p1832
S'What type of juvenile is present in the image ?'
p1833
tp1834
a(S'causal agent'
p1835
S'Select the causal agent represented by the image ?'
p1836
tp1837
asS'3078402009.jpg'
p1838
(lp1839
(S'performer'
p1840
S'What type of performer is present in the image ?'
p1841
tp1842
a(S'diversion'
p1843
S'Select the diversion represented by the image ?'
p1844
tp1845
asS'287465694.jpg'
p1846
(lp1847
(S'causal agent'
p1848
S'What type of causal agent is present in the image ?'
p1849
tp1850
a(S'life science'
p1851
S'Select the life science represented by the image ?'
p1852
tp1853
asS'2196023570.jpg'
p1854
(lp1855
(S'motor vehicle'
p1856
S'What type of motor vehicle is present in the image ?'
p1857
tp1858
a(S'conveyance'
p1859
S'Select the conveyance represented by the image ?'
p1860
tp1861
asS'2640153227.jpg'
p1862
(lp1863
(S'causal agent'
p1864
S'What type of causal agent is present in the image ?'
p1865
tp1866
a(S'juvenile'
p1867
S'Select the juvenile represented by the image ?'
p1868
tp1869
asS'6563231789.jpg'
p1870
(lp1871
(S'consumer goods'
p1872
S'What type of consumer goods is present in the image ?'
p1873
tp1874
a(S'clothing'
p1875
S'Select the clothing represented by the image ?'
p1876
tp1877
asS'2798880731.jpg'
p1878
(lp1879
(S'group'
p1880
S'What type of group is present in the image ?'
p1881
tp1882
a(S'juvenile'
p1883
S'Select the juvenile represented by the image ?'
p1884
tp1885
asS'5491402223.jpg'
p1886
(lp1887
(S'glass'
p1888
S'What type of glass is present in the image ?'
p1889
tp1890
a(S'conveyance'
p1891
S'Select the conveyance represented by the image ?'
p1892
tp1893
asS'3106782647.jpg'
p1894
(lp1895
(S'diversion'
p1896
S'What type of diversion is present in the image ?'
p1897
tp1898
a(S'wheeled vehicle'
p1899
S'Select the wheeled vehicle represented by the image ?'
p1900
tp1901
asS'3606355203.jpg'
p1902
(lp1903
(S'leisure'
p1904
S'What type of leisure is present in the image ?'
p1905
tp1906
a(S'body of water'
p1907
S'Select the body of water represented by the image ?'
p1908
tp1909
asS'4932739824.jpg'
p1910
(lp1911
(S'instrumentality'
p1912
S'What type of instrumentality is present in the image ?'
p1913
tp1914
a(S'body of water'
p1915
S'Select the body of water represented by the image ?'
p1916
tp1917
asS'4950994410.jpg'
p1918
(lp1919
(S'natural elevation'
p1920
S'What type of natural elevation is present in the image ?'
p1921
tp1922
a(S'leisure'
p1923
S'Select the leisure represented by the image ?'
p1924
tp1925
asS'4725480987.jpg'
p1926
(lp1927
(S'chromatic color'
p1928
S'What type of chromatic color is present in the image ?'
p1929
tp1930
a(S'festival'
p1931
S'Select the festival represented by the image ?'
p1932
tp1933
asS'46663846.jpg'
p1934
(lp1935
(S'motor vehicle'
p1936
S'What type of motor vehicle is present in the image ?'
p1937
tp1938
a(S'conveyance'
p1939
S'Select the conveyance represented by the image ?'
p1940
tp1941
asS'1926129518.jpg'
p1942
(lp1943
(S'animal'
p1944
S'What type of animal is present in the image ?'
p1945
tp1946
a(S'canine'
p1947
S'Select the canine represented by the image ?'
p1948
tp1949
asS'4757629703.jpg'
p1950
(lp1951
(S'chromatic color'
p1952
S'What type of chromatic color is present in the image ?'
p1953
tp1954
a(S'chromatic color'
p1955
S'Select the chromatic color represented by the image ?'
p1956
tp1957
asS'901763909.jpg'
p1958
(lp1959
(S'performer'
p1960
S'What type of performer is present in the image ?'
p1961
tp1962
asS'3312232591.jpg'
p1963
(lp1964
(S'municipality'
p1965
S'What type of municipality is present in the image ?'
p1966
tp1967
asS'199412680.jpg'
p1968
(lp1969
(S'chromatic color'
p1970
S'What type of chromatic color is present in the image ?'
p1971
tp1972
a(S'pictorial representation'
p1973
S'Select the pictorial representation represented by the image ?'
p1974
tp1975
asS'3801799568.jpg'
p1976
(lp1977
(S'chromatic color'
p1978
S'What type of chromatic color is present in the image ?'
p1979
tp1980
a(S'location'
p1981
S'Select the location represented by the image ?'
p1982
tp1983
asS'7808252542.jpg'
p1984
(lp1985
(S'diversion'
p1986
S'What type of diversion is present in the image ?'
p1987
tp1988
a(S'contestant'
p1989
S'Select the contestant represented by the image ?'
p1990
tp1991
asS'3086810882.jpg'
p1992
(lp1993
(S'chromatic color'
p1994
S'What type of chromatic color is present in the image ?'
p1995
tp1996
a(S'body of water'
p1997
S'Select the body of water represented by the image ?'
p1998
tp1999
asS'6178585333.jpg'
p2000
(lp2001
(S'contestant'
p2002
S'What type of contestant is present in the image ?'
p2003
tp2004
a(S'diversion'
p2005
S'Select the diversion represented by the image ?'
p2006
tp2007
asS'269440642.jpg'
p2008
(lp2009
(S'art'
p2010
S'What type of art is present in the image ?'
p2011
tp2012
a(S'chromatic color'
p2013
S'Select the chromatic color represented by the image ?'
p2014
tp2015
asS'2408099454.jpg'
p2016
(lp2017
(S'precipitation'
p2018
S'What type of precipitation is present in the image ?'
p2019
tp2020
a(S'season'
p2021
S'Select the season represented by the image ?'
p2022
tp2023
asS'4971580944.jpg'
p2024
(lp2025
(S'causal agent'
p2026
S'What type of causal agent is present in the image ?'
p2027
tp2028
a(S'conveyance'
p2029
S'Select the conveyance represented by the image ?'
p2030
tp2031
asS'3164195421.jpg'
p2032
(lp2033
(S'dirtiness'
p2034
S'What type of dirtiness is present in the image ?'
p2035
tp2036
asS'2711209368.jpg'
p2037
(lp2038
(S'graphic art'
p2039
S'What type of graphic art is present in the image ?'
p2040
tp2041
a(S'commercial enterprise'
p2042
S'Select the commercial enterprise represented by the image ?'
p2043
tp2044
asS'552498500.jpg'
p2045
(lp2046
(S'diversion'
p2047
S'What type of diversion is present in the image ?'
p2048
tp2049
a(S'game'
p2050
S'Select the game represented by the image ?'
p2051
tp2052
asS'892340814.jpg'
p2053
(lp2054
(S'diversion'
p2055
S'What type of diversion is present in the image ?'
p2056
tp2057
a(S'undertaking'
p2058
S'Select the undertaking represented by the image ?'
p2059
tp2060
asS'2097420505.jpg'
p2061
(lp2062
(S'climb'
p2063
S'What type of climb is present in the image ?'
p2064
tp2065
a(S'precipitation'
p2066
S'Select the precipitation represented by the image ?'
p2067
tp2068
asS'5732777684.jpg'
p2069
(lp2070
(S'instrumentality'
p2071
S'What type of instrumentality is present in the image ?'
p2072
tp2073
a(S'group'
p2074
S'Select the group represented by the image ?'
p2075
tp2076
asS'2744705574.jpg'
p2077
(lp2078
(S'achromatic color'
p2079
S'What type of achromatic color is present in the image ?'
p2080
tp2081
a(S'binary compound'
p2082
S'Select the binary compound represented by the image ?'
p2083
tp2084
asS'272283076.jpg'
p2085
(lp2086
(S'animal'
p2087
S'What type of animal is present in the image ?'
p2088
tp2089
asS'2832487464.jpg'
p2090
(lp2091
(S'animal'
p2092
S'What type of animal is present in the image ?'
p2093
tp2094
a(S'canine'
p2095
S'Select the canine represented by the image ?'
p2096
tp2097
asS'3849318202.jpg'
p2098
(lp2099
(S'body of water'
p2100
S'What type of body of water is present in the image ?'
p2101
tp2102
a(S'leisure'
p2103
S'Select the leisure represented by the image ?'
p2104
tp2105
asS'1347001782.jpg'
p2106
(lp2107
(S'way'
p2108
S'What type of way is present in the image ?'
p2109
tp2110
a(S'paving'
p2111
S'Select the paving represented by the image ?'
p2112
tp2113
asS'4097650560.jpg'
p2114
(lp2115
(S'show'
p2116
S'What type of show is present in the image ?'
p2117
tp2118
a(S'diversion'
p2119
S'Select the diversion represented by the image ?'
p2120
tp2121
asS'2137789511.jpg'
p2122
(lp2123
(S'body of water'
p2124
S'What type of body of water is present in the image ?'
p2125
tp2126
a(S'geological formation'
p2127
S'Select the geological formation represented by the image ?'
p2128
tp2129
asS'3413669228.jpg'
p2130
(lp2131
(S'causal agent'
p2132
S'What type of causal agent is present in the image ?'
p2133
tp2134
a(S'contestant'
p2135
S'Select the contestant represented by the image ?'
p2136
tp2137
asS'6537150995.jpg'
p2138
(lp2139
(S'causal agent'
p2140
S'What type of causal agent is present in the image ?'
p2141
tp2142
a(S'nutriment'
p2143
S'Select the nutriment represented by the image ?'
p2144
tp2145
asS'2062607137.jpg'
p2146
(lp2147
(S'animal'
p2148
S'What type of animal is present in the image ?'
p2149
tp2150
a(S'vertebrate'
p2151
S'Select the vertebrate represented by the image ?'
p2152
tp2153
asS'3725202807.jpg'
p2154
(lp2155
(S'chromatic color'
p2156
S'What type of chromatic color is present in the image ?'
p2157
tp2158
a(S'chromatic color'
p2159
S'Select the chromatic color represented by the image ?'
p2160
tp2161
asS'4857839650.jpg'
p2162
(lp2163
(S'time period'
p2164
S'What type of time period is present in the image ?'
p2165
tp2166
a(S'actinic radiation'
p2167
S'Select the actinic radiation represented by the image ?'
p2168
tp2169
asS'2490687446.jpg'
p2170
(lp2171
(S'binary compound'
p2172
S'What type of binary compound is present in the image ?'
p2173
tp2174
a(S'life'
p2175
S'Select the life represented by the image ?'
p2176
tp2177
asS'2774272866.jpg'
p2178
(lp2179
(S'conveyance'
p2180
S'What type of conveyance is present in the image ?'
p2181
tp2182
asS'3091962081.jpg'
p2183
(lp2184
(S'causal agent'
p2185
S'What type of causal agent is present in the image ?'
p2186
tp2187
asS'2912476706.jpg'
p2188
(lp2189
(S'vertebrate'
p2190
S'What type of vertebrate is present in the image ?'
p2191
tp2192
a(S'organism'
p2193
S'Select the organism represented by the image ?'
p2194
tp2195
asS'4799330472.jpg'
p2196
(lp2197
(S'sign'
p2198
S'What type of sign is present in the image ?'
p2199
tp2200
a(S'substance'
p2201
S'Select the substance represented by the image ?'
p2202
tp2203
asS'1629337128.jpg'
p2204
(lp2205
(S'show'
p2206
S'What type of show is present in the image ?'
p2207
tp2208
a(S'creation'
p2209
S'Select the creation represented by the image ?'
p2210
tp2211
asS'3599124739.jpg'
p2212
(lp2213
(S'leisure'
p2214
S'What type of leisure is present in the image ?'
p2215
tp2216
a(S'season'
p2217
S'Select the season represented by the image ?'
p2218
tp2219
asS'4950966242.jpg'
p2220
(lp2221
sS'6213858694.jpg'
p2222
(lp2223
(S'diversion'
p2224
S'What type of diversion is present in the image ?'
p2225
tp2226
asS'4906594388.jpg'
p2227
(lp2228
(S'building complex'
p2229
S'What type of building complex is present in the image ?'
p2230
tp2231
a(S'food'
p2232
S'Select the food represented by the image ?'
p2233
tp2234
asS'3323661814.jpg'
p2235
(lp2236
(S'consumer goods'
p2237
S'What type of consumer goods is present in the image ?'
p2238
tp2239
a(S'stage dancing'
p2240
S'Select the stage dancing represented by the image ?'
p2241
tp2242
asS'7986682991.jpg'
p2243
(lp2244
(S'structure'
p2245
S'What type of structure is present in the image ?'
p2246
tp2247
a(S'diversion'
p2248
S'Select the diversion represented by the image ?'
p2249
tp2250
asS'3593220756.jpg'
p2251
(lp2252
(S'binary compound'
p2253
S'What type of binary compound is present in the image ?'
p2254
tp2255
a(S'diversion'
p2256
S'Select the diversion represented by the image ?'
p2257
tp2258
asS'4151285133.jpg'
p2259
(lp2260
(S'instrumentality'
p2261
S'What type of instrumentality is present in the image ?'
p2262
tp2263
a(S'article'
p2264
S'Select the article represented by the image ?'
p2265
tp2266
asS'1402641725.jpg'
p2267
(lp2268
(S'leisure'
p2269
S'What type of leisure is present in the image ?'
p2270
tp2271
a(S'body of water'
p2272
S'Select the body of water represented by the image ?'
p2273
tp2274
asS'3171188674.jpg'
p2275
(lp2276
(S'gathering'
p2277
S'What type of gathering is present in the image ?'
p2278
tp2279
a(S'way'
p2280
S'Select the way represented by the image ?'
p2281
tp2282
asS'2699342860.jpg'
p2283
(lp2284
(S'juvenile'
p2285
S'What type of juvenile is present in the image ?'
p2286
tp2287
a(S'causal agent'
p2288
S'Select the causal agent represented by the image ?'
p2289
tp2290
asS'2119793019.jpg'
p2291
(lp2292
(S'chromatic color'
p2293
S'What type of chromatic color is present in the image ?'
p2294
tp2295
asS'6333818443.jpg'
p2296
(lp2297
(S'causal agent'
p2298
S'What type of causal agent is present in the image ?'
p2299
tp2300
a(S'procurator'
p2301
S'Select the procurator represented by the image ?'
p2302
tp2303
asS'6155571589.jpg'
p2304
(lp2305
(S'chromatic color'
p2306
S'What type of chromatic color is present in the image ?'
p2307
tp2308
a(S'way'
p2309
S'Select the way represented by the image ?'
p2310
tp2311
asS'265223847.jpg'
p2312
(lp2313
(S'diversion'
p2314
S'What type of diversion is present in the image ?'
p2315
tp2316
a(S'body of water'
p2317
S'Select the body of water represented by the image ?'
p2318
tp2319
asS'3424424006.jpg'
p2320
(lp2321
(S"woman's clothing"
p2322
S"What type of woman's clothing is present in the image ?"
p2323
tp2324
a(S'participant'
p2325
S'Select the participant represented by the image ?'
p2326
tp2327
asS'3639428663.jpg'
p2328
(lp2329
(S'leisure'
p2330
S'What type of leisure is present in the image ?'
p2331
tp2332
a(S'group'
p2333
S'Select the group represented by the image ?'
p2334
tp2335
asS'6041156608.jpg'
p2336
(lp2337
(S'diversion'
p2338
S'What type of diversion is present in the image ?'
p2339
tp2340
asS'5133656004.jpg'
p2341
(lp2342
(S'vertebrate'
p2343
S'What type of vertebrate is present in the image ?'
p2344
tp2345
a(S'organism'
p2346
S'Select the organism represented by the image ?'
p2347
tp2348
asS'251308607.jpg'
p2349
(lp2350
(S'show'
p2351
S'What type of show is present in the image ?'
p2352
tp2353
a(S'gathering'
p2354
S'Select the gathering represented by the image ?'
p2355
tp2356
asS'1005216151.jpg'
p2357
(lp2358
(S'gathering'
p2359
S'What type of gathering is present in the image ?'
p2360
tp2361
a(S'way'
p2362
S'Select the way represented by the image ?'
p2363
tp2364
asS'3647283075.jpg'
p2365
(lp2366
(S'chromatic color'
p2367
S'What type of chromatic color is present in the image ?'
p2368
tp2369
a(S'diversion'
p2370
S'Select the diversion represented by the image ?'
p2371
tp2372
asS'462882962.jpg'
p2373
(lp2374
(S'track and field'
p2375
S'What type of track and field is present in the image ?'
p2376
tp2377
a(S'diversion'
p2378
S'Select the diversion represented by the image ?'
p2379
tp2380
asS'2913965136.jpg'
p2381
(lp2382
(S'contestant'
p2383
S'What type of contestant is present in the image ?'
p2384
tp2385
a(S'diversion'
p2386
S'Select the diversion represented by the image ?'
p2387
tp2388
asS'3037558954.jpg'
p2389
(lp2390
(S'water sport'
p2391
S'What type of water sport is present in the image ?'
p2392
tp2393
a(S'piece of cloth'
p2394
S'Select the piece of cloth represented by the image ?'
p2395
tp2396
asS'2894229082.jpg'
p2397
(lp2398
(S'causal agent'
p2399
S'What type of causal agent is present in the image ?'
p2400
tp2401
a(S'horseman'
p2402
S'Select the horseman represented by the image ?'
p2403
tp2404
asS'3346614841.jpg'
p2405
(lp2406
(S'consumer goods'
p2407
S'What type of consumer goods is present in the image ?'
p2408
tp2409
a(S'body covering'
p2410
S'Select the body covering represented by the image ?'
p2411
tp2412
asS'275964975.jpg'
p2413
(lp2414
(S'group'
p2415
S'What type of group is present in the image ?'
p2416
tp2417
asS'697582336.jpg'
p2418
(lp2419
(S'animal'
p2420
S'What type of animal is present in the image ?'
p2421
tp2422
a(S'canine'
p2423
S'Select the canine represented by the image ?'
p2424
tp2425
asS'390360326.jpg'
p2426
(lp2427
(S'animal'
p2428
S'What type of animal is present in the image ?'
p2429
tp2430
a(S'canine'
p2431
S'Select the canine represented by the image ?'
p2432
tp2433
asS'4731681353.jpg'
p2434
(lp2435
(S'sport'
p2436
S'What type of sport is present in the image ?'
p2437
tp2438
a(S'wheeled vehicle'
p2439
S'Select the wheeled vehicle represented by the image ?'
p2440
tp2441
asS'4692725862.jpg'
p2442
(lp2443
(S'diversion'
p2444
S'What type of diversion is present in the image ?'
p2445
tp2446
a(S'water sport'
p2447
S'Select the water sport represented by the image ?'
p2448
tp2449
asS'973827791.jpg'
p2450
(lp2451
(S'binary compound'
p2452
S'What type of binary compound is present in the image ?'
p2453
tp2454
a(S'water travel'
p2455
S'Select the water travel represented by the image ?'
p2456
tp2457
asS'3963243135.jpg'
p2458
(lp2459
(S'clothing'
p2460
S'What type of clothing is present in the image ?'
p2461
tp2462
a(S'angiosperm'
p2463
S'Select the angiosperm represented by the image ?'
p2464
tp2465
asS'2694178830.jpg'
p2466
(lp2467
(S'diversion'
p2468
S'What type of diversion is present in the image ?'
p2469
tp2470
a(S'contestant'
p2471
S'Select the contestant represented by the image ?'
p2472
tp2473
asS'3244693507.jpg'
p2474
(lp2475
(S'diversion'
p2476
S'What type of diversion is present in the image ?'
p2477
tp2478
a(S'board'
p2479
S'Select the board represented by the image ?'
p2480
tp2481
asS'6942665758.jpg'
p2482
(lp2483
(S'animal'
p2484
S'What type of animal is present in the image ?'
p2485
tp2486
a(S'canine'
p2487
S'Select the canine represented by the image ?'
p2488
tp2489
asS'3563924606.jpg'
p2490
(lp2491
(S'animal'
p2492
S'What type of animal is present in the image ?'
p2493
tp2494
a(S'vertebrate'
p2495
S'Select the vertebrate represented by the image ?'
p2496
tp2497
asS'3181322965.jpg'
p2498
(lp2499
(S'stream'
p2500
S'What type of stream is present in the image ?'
p2501
tp2502
a(S'woody plant'
p2503
S'Select the woody plant represented by the image ?'
p2504
tp2505
asS'2750867389.jpg'
p2506
(lp2507
(S'conveyance'
p2508
S'What type of conveyance is present in the image ?'
p2509
tp2510
a(S'motor vehicle'
p2511
S'Select the motor vehicle represented by the image ?'
p2512
tp2513
asS'3215695965.jpg'
p2514
(lp2515
(S'system'
p2516
S'What type of system is present in the image ?'
p2517
tp2518
a(S'creating from raw materials'
p2519
S'Select the creating from raw materials represented by the image ?'
p2520
tp2521
asS'4726652809.jpg'
p2522
(lp2523
(S'diversion'
p2524
S'What type of diversion is present in the image ?'
p2525
tp2526
a(S'contact sport'
p2527
S'Select the contact sport represented by the image ?'
p2528
tp2529
asS'2672588619.jpg'
p2530
(lp2531
(S'binary compound'
p2532
S'What type of binary compound is present in the image ?'
p2533
tp2534
a(S'juvenile'
p2535
S'Select the juvenile represented by the image ?'
p2536
tp2537
asS'3295024992.jpg'
p2538
(lp2539
(S'diversion'
p2540
S'What type of diversion is present in the image ?'
p2541
tp2542
a(S'court'
p2543
S'Select the court represented by the image ?'
p2544
tp2545
asS'3015891201.jpg'
p2546
(lp2547
(S'creation'
p2548
S'What type of creation is present in the image ?'
p2549
tp2550
a(S'performer'
p2551
S'Select the performer represented by the image ?'
p2552
tp2553
asS'1351635108.jpg'
p2554
(lp2555
(S'outdoor game'
p2556
S'What type of outdoor game is present in the image ?'
p2557
tp2558
a(S'field'
p2559
S'Select the field represented by the image ?'
p2560
tp2561
asS'55438559.jpg'
p2562
(lp2563
(S'contestant'
p2564
S'What type of contestant is present in the image ?'
p2565
tp2566
a(S'diversion'
p2567
S'Select the diversion represented by the image ?'
p2568
tp2569
asS'5304817530.jpg'
p2570
(lp2571
(S'conveyance'
p2572
S'What type of conveyance is present in the image ?'
p2573
tp2574
a(S'force'
p2575
S'Select the force represented by the image ?'
p2576
tp2577
asS'3454727622.jpg'
p2578
(lp2579
(S'dramatic composition'
p2580
S'What type of dramatic composition is present in the image ?'
p2581
tp2582
a(S'juvenile'
p2583
S'Select the juvenile represented by the image ?'
p2584
tp2585
asS'2797135460.jpg'
p2586
(lp2587
(S'chromatic color'
p2588
S'What type of chromatic color is present in the image ?'
p2589
tp2590
a(S'causal agent'
p2591
S'Select the causal agent represented by the image ?'
p2592
tp2593
asS'2761599088.jpg'
p2594
(lp2595
(S'animal'
p2596
S'What type of animal is present in the image ?'
p2597
tp2598
a(S'canine'
p2599
S'Select the canine represented by the image ?'
p2600
tp2601
asS'3386893620.jpg'
p2602
(lp2603
(S'time period'
p2604
S'What type of time period is present in the image ?'
p2605
tp2606
a(S'spectacles'
p2607
S'Select the spectacles represented by the image ?'
p2608
tp2609
asS'3477289176.jpg'
p2610
(lp2611
(S'diversion'
p2612
S'What type of diversion is present in the image ?'
p2613
tp2614
a(S'skating'
p2615
S'Select the skating represented by the image ?'
p2616
tp2617
asS'4910904772.jpg'
p2618
(lp2619
(S'quality'
p2620
S'What type of quality is present in the image ?'
p2621
tp2622
a(S'visual property'
p2623
S'Select the visual property represented by the image ?'
p2624
tp2625
asS'2710280476.jpg'
p2626
(lp2627
(S'animal'
p2628
S'What type of animal is present in the image ?'
p2629
tp2630
a(S'canine'
p2631
S'Select the canine represented by the image ?'
p2632
tp2633
asS'3936944273.jpg'
p2634
(lp2635
(S'group'
p2636
S'What type of group is present in the image ?'
p2637
tp2638
a(S'area'
p2639
S'Select the area represented by the image ?'
p2640
tp2641
asS'5326961690.jpg'
p2642
(lp2643
(S'juvenile'
p2644
S'What type of juvenile is present in the image ?'
p2645
tp2646
a(S'causal agent'
p2647
S'Select the causal agent represented by the image ?'
p2648
tp2649
asS'2921670682.jpg'
p2650
(lp2651
(S'wheeled vehicle'
p2652
S'What type of wheeled vehicle is present in the image ?'
p2653
tp2654
a(S'conveyance'
p2655
S'Select the conveyance represented by the image ?'
p2656
tp2657
asS'86120569.jpg'
p2658
(lp2659
(S'course'
p2660
S'What type of course is present in the image ?'
p2661
tp2662
a(S'block'
p2663
S'Select the block represented by the image ?'
p2664
tp2665
asS'4960164914.jpg'
p2666
(lp2667
(S'dramatic composition'
p2668
S'What type of dramatic composition is present in the image ?'
p2669
tp2670
a(S'environment'
p2671
S'Select the environment represented by the image ?'
p2672
tp2673
asS'451547131.jpg'
p2674
(lp2675
(S'body of water'
p2676
S'What type of body of water is present in the image ?'
p2677
tp2678
a(S'geological formation'
p2679
S'Select the geological formation represented by the image ?'
p2680
tp2681
asS'5902223492.jpg'
p2682
(lp2683
(S'causal agent'
p2684
S'What type of causal agent is present in the image ?'
p2685
tp2686
a(S'army unit'
p2687
S'Select the army unit represented by the image ?'
p2688
tp2689
asS'2728813605.jpg'
p2690
(lp2691
(S'body covering'
p2692
S'What type of body covering is present in the image ?'
p2693
tp2694
a(S'causal agent'
p2695
S'Select the causal agent represented by the image ?'
p2696
tp2697
asS'1278818225.jpg'
p2698
(lp2699
(S'body of water'
p2700
S'What type of body of water is present in the image ?'
p2701
tp2702
a(S'geological formation'
p2703
S'Select the geological formation represented by the image ?'
p2704
tp2705
asS'3097171315.jpg'
p2706
(lp2707
(S'area'
p2708
S'What type of area is present in the image ?'
p2709
tp2710
a(S'room'
p2711
S'Select the room represented by the image ?'
p2712
tp2713
asS'2057257734.jpg'
p2714
(lp2715
(S'nutriment'
p2716
S'What type of nutriment is present in the image ?'
p2717
tp2718
a(S'container'
p2719
S'Select the container represented by the image ?'
p2720
tp2721
asS'6037006359.jpg'
p2722
(lp2723
(S'container'
p2724
S'What type of container is present in the image ?'
p2725
tp2726
a(S'substance'
p2727
S'Select the substance represented by the image ?'
p2728
tp2729
asS'3516935867.jpg'
p2730
(lp2731
(S'diversion'
p2732
S'What type of diversion is present in the image ?'
p2733
tp2734
a(S'causal agent'
p2735
S'Select the causal agent represented by the image ?'
p2736
tp2737
asS'3449114979.jpg'
p2738
(lp2739
(S'causal agent'
p2740
S'What type of causal agent is present in the image ?'
p2741
tp2742
a(S'group'
p2743
S'Select the group represented by the image ?'
p2744
tp2745
asS'4451329664.jpg'
p2746
(lp2747
(S'diversion'
p2748
S'What type of diversion is present in the image ?'
p2749
tp2750
a(S'contestant'
p2751
S'Select the contestant represented by the image ?'
p2752
tp2753
asS'4834395459.jpg'
p2754
(lp2755
(S'causal agent'
p2756
S'What type of causal agent is present in the image ?'
p2757
tp2758
a(S'adult'
p2759
S'Select the adult represented by the image ?'
p2760
tp2761
asS'2069110603.jpg'
p2762
(lp2763
(S'causal agent'
p2764
S'What type of causal agent is present in the image ?'
p2765
tp2766
a(S'diversion'
p2767
S'Select the diversion represented by the image ?'
p2768
tp2769
asS'2456532329.jpg'
p2770
(lp2771
(S'free-reed instrument'
p2772
S'What type of free-reed instrument is present in the image ?'
p2773
tp2774
a(S'musician'
p2775
S'Select the musician represented by the image ?'
p2776
tp2777
asS'4655102365.jpg'
p2778
(lp2779
(S'municipality'
p2780
S'What type of municipality is present in the image ?'
p2781
tp2782
a(S'building'
p2783
S'Select the building represented by the image ?'
p2784
tp2785
asS'2091171488.jpg'
p2786
(lp2787
(S'criminal'
p2788
S'What type of criminal is present in the image ?'
p2789
tp2790
a(S'consumer goods'
p2791
S'Select the consumer goods represented by the image ?'
p2792
tp2793
asS'2747714500.jpg'
p2794
(lp2795
(S'dramatic composition'
p2796
S'What type of dramatic composition is present in the image ?'
p2797
tp2798
a(S'juvenile'
p2799
S'Select the juvenile represented by the image ?'
p2800
tp2801
asS'326585030.jpg'
p2802
(lp2803
(S'body of water'
p2804
S'What type of body of water is present in the image ?'
p2805
tp2806
a(S'chromatic color'
p2807
S'Select the chromatic color represented by the image ?'
p2808
tp2809
asS'4733528296.jpg'
p2810
(lp2811
(S'consumer goods'
p2812
S'What type of consumer goods is present in the image ?'
p2813
tp2814
a(S'way'
p2815
S'Select the way represented by the image ?'
p2816
tp2817
asS'4451504790.jpg'
p2818
(lp2819
(S'conveyance'
p2820
S'What type of conveyance is present in the image ?'
p2821
tp2822
a(S'motor'
p2823
S'Select the motor represented by the image ?'
p2824
tp2825
asS'2842032768.jpg'
p2826
(lp2827
(S'animal'
p2828
S'What type of animal is present in the image ?'
p2829
tp2830
a(S'canine'
p2831
S'Select the canine represented by the image ?'
p2832
tp2833
asS'6937493125.jpg'
p2834
(lp2835
(S'boat'
p2836
S'What type of boat is present in the image ?'
p2837
tp2838
a(S'water travel'
p2839
S'Select the water travel represented by the image ?'
p2840
tp2841
asS'1566117559.jpg'
p2842
(lp2843
(S'animal'
p2844
S'What type of animal is present in the image ?'
p2845
tp2846
a(S'canine'
p2847
S'Select the canine represented by the image ?'
p2848
tp2849
asS'8876934.jpg'
p2850
(lp2851
(S'gathering'
p2852
S'What type of gathering is present in the image ?'
p2853
tp2854
a(S'municipality'
p2855
S'Select the municipality represented by the image ?'
p2856
tp2857
asS'3994222806.jpg'
p2858
(lp2859
(S'diversion'
p2860
S'What type of diversion is present in the image ?'
p2861
tp2862
a(S'court game'
p2863
S'Select the court game represented by the image ?'
p2864
tp2865
asS'175556963.jpg'
p2866
(lp2867
(S'gathering'
p2868
S'What type of gathering is present in the image ?'
p2869
tp2870
a(S'group'
p2871
S'Select the group represented by the image ?'
p2872
tp2873
asS'1994416869.jpg'
p2874
(lp2875
(S'body covering'
p2876
S'What type of body covering is present in the image ?'
p2877
tp2878
a(S'person'
p2879
S'Select the person represented by the image ?'
p2880
tp2881
asS'3099923914.jpg'
p2882
(lp2883
(S'causal agent'
p2884
S'What type of causal agent is present in the image ?'
p2885
tp2886
a(S'thoroughfare'
p2887
S'Select the thoroughfare represented by the image ?'
p2888
tp2889
asS'6576930023.jpg'
p2890
(lp2891
(S'contestant'
p2892
S'What type of contestant is present in the image ?'
p2893
tp2894
a(S'diversion'
p2895
S'Select the diversion represented by the image ?'
p2896
tp2897
asS'2315285438.jpg'
p2898
(lp2899
(S'chromatic color'
p2900
S'What type of chromatic color is present in the image ?'
p2901
tp2902
a(S'show'
p2903
S'Select the show represented by the image ?'
p2904
tp2905
asS'952389673.jpg'
p2906
(lp2907
(S'diversion'
p2908
S'What type of diversion is present in the image ?'
p2909
tp2910
a(S'track and field'
p2911
S'Select the track and field represented by the image ?'
p2912
tp2913
asS'3992703753.jpg'
p2914
(lp2915
(S'unit'
p2916
S'What type of unit is present in the image ?'
p2917
tp2918
a(S'diversion'
p2919
S'Select the diversion represented by the image ?'
p2920
tp2921
asS'4654284177.jpg'
p2922
(lp2923
(S'auditory communication'
p2924
S'What type of auditory communication is present in the image ?'
p2925
tp2926
a(S'performer'
p2927
S'Select the performer represented by the image ?'
p2928
tp2929
asS'4939701707.jpg'
p2930
(lp2931
(S'clothing'
p2932
S'What type of clothing is present in the image ?'
p2933
tp2934
a(S'city district'
p2935
S'Select the city district represented by the image ?'
p2936
tp2937
asS'215529847.jpg'
p2938
(lp2939
sS'4073086719.jpg'
p2940
(lp2941
(S'diversion'
p2942
S'What type of diversion is present in the image ?'
p2943
tp2944
a(S'promotion'
p2945
S'Select the promotion represented by the image ?'
p2946
tp2947
asS'4663171720.jpg'
p2948
(lp2949
(S'consumer goods'
p2950
S'What type of consumer goods is present in the image ?'
p2951
tp2952
a(S'causal agent'
p2953
S'Select the causal agent represented by the image ?'
p2954
tp2955
asS'3503689049.jpg'
p2956
(lp2957
(S'consumer goods'
p2958
S'What type of consumer goods is present in the image ?'
p2959
tp2960
a(S'spectacles'
p2961
S'Select the spectacles represented by the image ?'
p2962
tp2963
asS'1622115176.jpg'
p2964
(lp2965
(S'horizontal surface'
p2966
S'What type of horizontal surface is present in the image ?'
p2967
tp2968
a(S'horizontal surface'
p2969
S'Select the horizontal surface represented by the image ?'
p2970
tp2971
asS'269898095.jpg'
p2972
(lp2973
(S'plant organ'
p2974
S'What type of plant organ is present in the image ?'
p2975
tp2976
a(S'angiosperm'
p2977
S'Select the angiosperm represented by the image ?'
p2978
tp2979
asS'2661118494.jpg'
p2980
(lp2981
(S'container'
p2982
S'What type of container is present in the image ?'
p2983
tp2984
a(S'substance'
p2985
S'Select the substance represented by the image ?'
p2986
tp2987
asS'4863363662.jpg'
p2988
(lp2989
(S'juvenile'
p2990
S'What type of juvenile is present in the image ?'
p2991
tp2992
asS'7149127777.jpg'
p2993
(lp2994
(S'diversion'
p2995
S'What type of diversion is present in the image ?'
p2996
tp2997
a(S'diversion'
p2998
S'Select the diversion represented by the image ?'
p2999
tp3000
asS'3476101523.jpg'
p3001
(lp3002
(S'diversion'
p3003
S'What type of diversion is present in the image ?'
p3004
tp3005
a(S'unit'
p3006
S'Select the unit represented by the image ?'
p3007
tp3008
asS'5062544126.jpg'
p3009
(lp3010
(S'life science'
p3011
S'What type of life science is present in the image ?'
p3012
tp3013
a(S'basic cognitive process'
p3014
S'Select the basic cognitive process represented by the image ?'
p3015
tp3016
asS'7247347662.jpg'
p3017
(lp3018
(S'creation'
p3019
S'What type of creation is present in the image ?'
p3020
tp3021
a(S'diversion'
p3022
S'Select the diversion represented by the image ?'
p3023
tp3024
asS'2644302353.jpg'
p3025
(lp3026
(S'adult'
p3027
S'What type of adult is present in the image ?'
p3028
tp3029
a(S'animal'
p3030
S'Select the animal represented by the image ?'
p3031
tp3032
asS'2482736211.jpg'
p3033
(lp3034
(S'building'
p3035
S'What type of building is present in the image ?'
p3036
tp3037
a(S'room'
p3038
S'Select the room represented by the image ?'
p3039
tp3040
asS'5637347272.jpg'
p3041
(lp3042
(S'equine'
p3043
S'What type of equine is present in the image ?'
p3044
tp3045
a(S'vertebrate'
p3046
S'Select the vertebrate represented by the image ?'
p3047
tp3048
asS'2775745672.jpg'
p3049
(lp3050
(S'area'
p3051
S'What type of area is present in the image ?'
p3052
tp3053
a(S'outbuilding'
p3054
S'Select the outbuilding represented by the image ?'
p3055
tp3056
asS'4770745669.jpg'
p3057
(lp3058
(S'instrumentality'
p3059
S'What type of instrumentality is present in the image ?'
p3060
tp3061
a(S'artifact'
p3062
S'Select the artifact represented by the image ?'
p3063
tp3064
asS'2684878115.jpg'
p3065
(lp3066
(S'causal agent'
p3067
S'What type of causal agent is present in the image ?'
p3068
tp3069
a(S'stringed instrument'
p3070
S'Select the stringed instrument represented by the image ?'
p3071
tp3072
asS'3427233064.jpg'
p3073
(lp3074
(S'consumer goods'
p3075
S'What type of consumer goods is present in the image ?'
p3076
tp3077
a(S"woman's clothing"
p3078
S"Select the woman's clothing represented by the image ?"
p3079
tp3080
asS'4872410849.jpg'
p3081
(lp3082
(S'adult'
p3083
S'What type of adult is present in the image ?'
p3084
tp3085
a(S'animal'
p3086
S'Select the animal represented by the image ?'
p3087
tp3088
asS'253664826.jpg'
p3089
(lp3090
(S'diversion'
p3091
S'What type of diversion is present in the image ?'
p3092
tp3093
a(S'unit'
p3094
S'Select the unit represented by the image ?'
p3095
tp3096
asS'3907722043.jpg'
p3097
(lp3098
(S'consumer goods'
p3099
S'What type of consumer goods is present in the image ?'
p3100
tp3101
a(S'attire'
p3102
S'Select the attire represented by the image ?'
p3103
tp3104
asS'3313691449.jpg'
p3105
(lp3106
(S'diversion'
p3107
S'What type of diversion is present in the image ?'
p3108
tp3109
a(S'contestant'
p3110
S'Select the contestant represented by the image ?'
p3111
tp3112
asS'1419286010.jpg'
p3113
(lp3114
(S'outdoor sport'
p3115
S'What type of outdoor sport is present in the image ?'
p3116
tp3117
a(S'conveyance'
p3118
S'Select the conveyance represented by the image ?'
p3119
tp3120
asS'3549408493.jpg'
p3121
(lp3122
(S'tract'
p3123
S'What type of tract is present in the image ?'
p3124
tp3125
asS'3664415437.jpg'
p3126
(lp3127
(S'causal agent'
p3128
S'What type of causal agent is present in the image ?'
p3129
tp3130
asS'3330680118.jpg'
p3131
(lp3132
(S'clothing'
p3133
S'What type of clothing is present in the image ?'
p3134
tp3135
a(S'diversion'
p3136
S'Select the diversion represented by the image ?'
p3137
tp3138
asS'3127614086.jpg'
p3139
(lp3140
(S'diversion'
p3141
S'What type of diversion is present in the image ?'
p3142
tp3143
a(S'court game'
p3144
S'Select the court game represented by the image ?'
p3145
tp3146
asS'3157509153.jpg'
p3147
(lp3148
(S'causal agent'
p3149
S'What type of causal agent is present in the image ?'
p3150
tp3151
a(S'leisure'
p3152
S'Select the leisure represented by the image ?'
p3153
tp3154
asS'1542970798.jpg'
p3155
(lp3156
(S'creating from raw materials'
p3157
S'What type of creating from raw materials is present in the image ?'
p3158
tp3159
a(S'system'
p3160
S'Select the system represented by the image ?'
p3161
tp3162
asS'3030824089.jpg'
p3163
(lp3164
(S'animal'
p3165
S'What type of animal is present in the image ?'
p3166
tp3167
a(S'canine'
p3168
S'Select the canine represented by the image ?'
p3169
tp3170
asS'115125072.jpg'
p3171
(lp3172
(S'doctor'
p3173
S'What type of doctor is present in the image ?'
p3174
tp3175
a(S'area'
p3176
S'Select the area represented by the image ?'
p3177
tp3178
asS'247618600.jpg'
p3179
(lp3180
(S'consumer goods'
p3181
S'What type of consumer goods is present in the image ?'
p3182
tp3183
a(S'body covering'
p3184
S'Select the body covering represented by the image ?'
p3185
tp3186
asS'3231237864.jpg'
p3187
(lp3188
(S'diversion'
p3189
S'What type of diversion is present in the image ?'
p3190
tp3191
a(S'contestant'
p3192
S'Select the contestant represented by the image ?'
p3193
tp3194
asS'4493639153.jpg'
p3195
(lp3196
(S'consumer goods'
p3197
S'What type of consumer goods is present in the image ?'
p3198
tp3199
a(S'chromatic color'
p3200
S'Select the chromatic color represented by the image ?'
p3201
tp3202
asS'1386994947.jpg'
p3203
(lp3204
(S'group'
p3205
S'What type of group is present in the image ?'
p3206
tp3207
a(S'body of water'
p3208
S'Select the body of water represented by the image ?'
p3209
tp3210
asS'7411341578.jpg'
p3211
(lp3212
(S'diversion'
p3213
S'What type of diversion is present in the image ?'
p3214
tp3215
a(S'walk'
p3216
S'Select the walk represented by the image ?'
p3217
tp3218
asS'21138719.jpg'
p3219
(lp3220
(S'actinic radiation'
p3221
S'What type of actinic radiation is present in the image ?'
p3222
tp3223
a(S'framework'
p3224
S'Select the framework represented by the image ?'
p3225
tp3226
asS'5415181095.jpg'
p3227
(lp3228
(S'consumer goods'
p3229
S'What type of consumer goods is present in the image ?'
p3230
tp3231
a(S'yard'
p3232
S'Select the yard represented by the image ?'
p3233
tp3234
asS'6659698.jpg'
p3235
(lp3236
(S'diversion'
p3237
S'What type of diversion is present in the image ?'
p3238
tp3239
a(S'procurator'
p3240
S'Select the procurator represented by the image ?'
p3241
tp3242
asS'4662948361.jpg'
p3243
(lp3244
(S'artifact'
p3245
S'What type of artifact is present in the image ?'
p3246
tp3247
a(S'machine'
p3248
S'Select the machine represented by the image ?'
p3249
tp3250
asS'495055747.jpg'
p3251
(lp3252
(S'causal agent'
p3253
S'What type of causal agent is present in the image ?'
p3254
tp3255
a(S'chromatic color'
p3256
S'Select the chromatic color represented by the image ?'
p3257
tp3258
asS'4484644842.jpg'
p3259
(lp3260
(S'percussion instrument'
p3261
S'What type of percussion instrument is present in the image ?'
p3262
tp3263
a(S'bass'
p3264
S'Select the bass represented by the image ?'
p3265
tp3266
asS'399054696.jpg'
p3267
(lp3268
(S'land'
p3269
S'What type of land is present in the image ?'
p3270
tp3271
a(S'wetland'
p3272
S'Select the wetland represented by the image ?'
p3273
tp3274
asS'6135433028.jpg'
p3275
(lp3276
(S'diversion'
p3277
S'What type of diversion is present in the image ?'
p3278
tp3279
a(S'unit'
p3280
S'Select the unit represented by the image ?'
p3281
tp3282
asS'4542010975.jpg'
p3283
(lp3284
(S'body of water'
p3285
S'What type of body of water is present in the image ?'
p3286
tp3287
a(S'soil'
p3288
S'Select the soil represented by the image ?'
p3289
tp3290
asS'230269706.jpg'
p3291
(lp3292
(S'vertebrate'
p3293
S'What type of vertebrate is present in the image ?'
p3294
tp3295
a(S'cattle'
p3296
S'Select the cattle represented by the image ?'
p3297
tp3298
asS'2920516901.jpg'
p3299
(lp3300
(S'contestant'
p3301
S'What type of contestant is present in the image ?'
p3302
tp3303
a(S'chromatic color'
p3304
S'Select the chromatic color represented by the image ?'
p3305
tp3306
asS'1401998185.jpg'
p3307
(lp3308
(S'track and field'
p3309
S'What type of track and field is present in the image ?'
p3310
tp3311
asS'1562392511.jpg'
p3312
(lp3313
(S'animal'
p3314
S'What type of animal is present in the image ?'
p3315
tp3316
a(S'organism'
p3317
S'Select the organism represented by the image ?'
p3318
tp3319
asS'4932067004.jpg'
p3320
(lp3321
(S'animal'
p3322
S'What type of animal is present in the image ?'
p3323
tp3324
a(S'canine'
p3325
S'Select the canine represented by the image ?'
p3326
tp3327
asS'453275575.jpg'
p3328
(lp3329
(S'life science'
p3330
S'What type of life science is present in the image ?'
p3331
tp3332
a(S'outdoor sport'
p3333
S'Select the outdoor sport represented by the image ?'
p3334
tp3335
asS'3175620928.jpg'
p3336
(lp3337
(S'causal agent'
p3338
S'What type of causal agent is present in the image ?'
p3339
tp3340
asS'4456116509.jpg'
p3341
(lp3342
(S'time period'
p3343
S'What type of time period is present in the image ?'
p3344
tp3345
a(S'show'
p3346
S'Select the show represented by the image ?'
p3347
tp3348
asS'3279025792.jpg'
p3349
(lp3350
(S'animal'
p3351
S'What type of animal is present in the image ?'
p3352
tp3353
a(S'canine'
p3354
S'Select the canine represented by the image ?'
p3355
tp3356
asS'40793390.jpg'
p3357
(lp3358
(S'performer'
p3359
S'What type of performer is present in the image ?'
p3360
tp3361
a(S'musician'
p3362
S'Select the musician represented by the image ?'
p3363
tp3364
asS'2780087302.jpg'
p3365
(lp3366
(S'time period'
p3367
S'What type of time period is present in the image ?'
p3368
tp3369
asS'3134385454.jpg'
p3370
(lp3371
(S'leisure'
p3372
S'What type of leisure is present in the image ?'
p3373
tp3374
asS'2102538696.jpg'
p3375
(lp3376
(S'diversion'
p3377
S'What type of diversion is present in the image ?'
p3378
tp3379
a(S'diversion'
p3380
S'Select the diversion represented by the image ?'
p3381
tp3382
asS'4986354808.jpg'
p3383
(lp3384
(S'causal agent'
p3385
S'What type of causal agent is present in the image ?'
p3386
tp3387
a(S'woman'
p3388
S'Select the woman represented by the image ?'
p3389
tp3390
asS'3513318675.jpg'
p3391
(lp3392
(S'nutriment'
p3393
S'What type of nutriment is present in the image ?'
p3394
tp3395
a(S'container'
p3396
S'Select the container represented by the image ?'
p3397
tp3398
asS'1330981138.jpg'
p3399
(lp3400
(S'plumbing fixture'
p3401
S'What type of plumbing fixture is present in the image ?'
p3402
tp3403
asS'2619267133.jpg'
p3404
(lp3405
(S'even-toed ungulate'
p3406
S'What type of even-toed ungulate is present in the image ?'
p3407
tp3408
a(S'scenery'
p3409
S'Select the scenery represented by the image ?'
p3410
tp3411
asS'4138735474.jpg'
p3412
(lp3413
(S'group'
p3414
S'What type of group is present in the image ?'
p3415
tp3416
a(S'gathering'
p3417
S'Select the gathering represented by the image ?'
p3418
tp3419
asS'3655326478.jpg'
p3420
(lp3421
(S'animal'
p3422
S'What type of animal is present in the image ?'
p3423
tp3424
a(S'canine'
p3425
S'Select the canine represented by the image ?'
p3426
tp3427
asS'4762011238.jpg'
p3428
(lp3429
(S'instrumentality'
p3430
S'What type of instrumentality is present in the image ?'
p3431
tp3432
a(S'conveyance'
p3433
S'Select the conveyance represented by the image ?'
p3434
tp3435
asS'4074803780.jpg'
p3436
(lp3437
(S'consumer goods'
p3438
S'What type of consumer goods is present in the image ?'
p3439
tp3440
a(S'chromatic color'
p3441
S'Select the chromatic color represented by the image ?'
p3442
tp3443
asS'2365721660.jpg'
p3444
(lp3445
(S'show'
p3446
S'What type of show is present in the image ?'
p3447
tp3448
a(S'auditory communication'
p3449
S'Select the auditory communication represented by the image ?'
p3450
tp3451
asS'293809422.jpg'
p3452
(lp3453
(S'environment'
p3454
S'What type of environment is present in the image ?'
p3455
tp3456
a(S'ridge'
p3457
S'Select the ridge represented by the image ?'
p3458
tp3459
asS'247248892.jpg'
p3460
(lp3461
(S'creation'
p3462
S'What type of creation is present in the image ?'
p3463
tp3464
a(S'outdoor sport'
p3465
S'Select the outdoor sport represented by the image ?'
p3466
tp3467
asS'4612142419.jpg'
p3468
(lp3469
(S'body of water'
p3470
S'What type of body of water is present in the image ?'
p3471
tp3472
asS'246343513.jpg'
p3473
(lp3474
(S'causal agent'
p3475
S'What type of causal agent is present in the image ?'
p3476
tp3477
a(S'occupational group'
p3478
S'Select the occupational group represented by the image ?'
p3479
tp3480
asS'86112808.jpg'
p3481
(lp3482
(S'diversion'
p3483
S'What type of diversion is present in the image ?'
p3484
tp3485
asS'2042159643.jpg'
p3486
(lp3487
(S'gathering'
p3488
S'What type of gathering is present in the image ?'
p3489
tp3490
a(S'time period'
p3491
S'Select the time period represented by the image ?'
p3492
tp3493
asS'2744705147.jpg'
p3494
(lp3495
(S'group'
p3496
S'What type of group is present in the image ?'
p3497
tp3498
a(S'organization'
p3499
S'Select the organization represented by the image ?'
p3500
tp3501
asS'2178306830.jpg'
p3502
(lp3503
(S'life science'
p3504
S'What type of life science is present in the image ?'
p3505
tp3506
asS'3369909499.jpg'
p3507
(lp3508
(S'causal agent'
p3509
S'What type of causal agent is present in the image ?'
p3510
tp3511
a(S'writing'
p3512
S'Select the writing represented by the image ?'
p3513
tp3514
asS'404890608.jpg'
p3515
(lp3516
(S'field'
p3517
S'What type of field is present in the image ?'
p3518
tp3519
a(S'dirtiness'
p3520
S'Select the dirtiness represented by the image ?'
p3521
tp3522
asS'4558185706.jpg'
p3523
(lp3524
(S'motor vehicle'
p3525
S'What type of motor vehicle is present in the image ?'
p3526
tp3527
a(S'wheeled vehicle'
p3528
S'Select the wheeled vehicle represented by the image ?'
p3529
tp3530
asS'1093716555.jpg'
p3531
(lp3532
(S'natural elevation'
p3533
S'What type of natural elevation is present in the image ?'
p3534
tp3535
a(S'natural elevation'
p3536
S'Select the natural elevation represented by the image ?'
p3537
tp3538
asS'3838799029.jpg'
p3539
(lp3540
(S'diversion'
p3541
S'What type of diversion is present in the image ?'
p3542
tp3543
a(S'board'
p3544
S'Select the board represented by the image ?'
p3545
tp3546
asS'4257619114.jpg'
p3547
(lp3548
(S'consumer goods'
p3549
S'What type of consumer goods is present in the image ?'
p3550
tp3551
a(S'attire'
p3552
S'Select the attire represented by the image ?'
p3553
tp3554
asS'4549569635.jpg'
p3555
(lp3556
(S'wheeled vehicle'
p3557
S'What type of wheeled vehicle is present in the image ?'
p3558
tp3559
a(S'conveyance'
p3560
S'Select the conveyance represented by the image ?'
p3561
tp3562
asS'2198941911.jpg'
p3563
(lp3564
(S'group'
p3565
S'What type of group is present in the image ?'
p3566
tp3567
a(S'juvenile'
p3568
S'Select the juvenile represented by the image ?'
p3569
tp3570
asS'3631839768.jpg'
p3571
(lp3572
(S'body covering'
p3573
S'What type of body covering is present in the image ?'
p3574
tp3575
a(S'hair'
p3576
S'Select the hair represented by the image ?'
p3577
tp3578
asS'3185863735.jpg'
p3579
(lp3580
(S'causal agent'
p3581
S'What type of causal agent is present in the image ?'
p3582
tp3583
a(S'broadcasting'
p3584
S'Select the broadcasting represented by the image ?'
p3585
tp3586
asS'4475663002.jpg'
p3587
(lp3588
(S'clothing'
p3589
S'What type of clothing is present in the image ?'
p3590
tp3591
a(S'thoroughfare'
p3592
S'Select the thoroughfare represented by the image ?'
p3593
tp3594
asS'5588403950.jpg'
p3595
(lp3596
(S'precipitation'
p3597
S'What type of precipitation is present in the image ?'
p3598
tp3599
a(S'clothing'
p3600
S'Select the clothing represented by the image ?'
p3601
tp3602
asS'2425411995.jpg'
p3603
(lp3604
(S'diversion'
p3605
S'What type of diversion is present in the image ?'
p3606
tp3607
a(S'court game'
p3608
S'Select the court game represented by the image ?'
p3609
tp3610
asS'3610836023.jpg'
p3611
(lp3612
(S'quality'
p3613
S'What type of quality is present in the image ?'
p3614
tp3615
a(S'body of water'
p3616
S'Select the body of water represented by the image ?'
p3617
tp3618
asS'3880125306.jpg'
p3619
(lp3620
(S'creation'
p3621
S'What type of creation is present in the image ?'
p3622
tp3623
a(S'outdoor sport'
p3624
S'Select the outdoor sport represented by the image ?'
p3625
tp3626
asS'431664339.jpg'
p3627
(lp3628
(S'conveyance'
p3629
S'What type of conveyance is present in the image ?'
p3630
tp3631
a(S'wagon'
p3632
S'Select the wagon represented by the image ?'
p3633
tp3634
asS'906991263.jpg'
p3635
(lp3636
(S'way'
p3637
S'What type of way is present in the image ?'
p3638
tp3639
a(S'traveler'
p3640
S'Select the traveler represented by the image ?'
p3641
tp3642
asS'4872391001.jpg'
p3643
(lp3644
(S'water travel'
p3645
S'What type of water travel is present in the image ?'
p3646
tp3647
a(S'sport'
p3648
S'Select the sport represented by the image ?'
p3649
tp3650
asS'3218861747.jpg'
p3651
(lp3652
(S'diversion'
p3653
S'What type of diversion is present in the image ?'
p3654
tp3655
asS'4377802020.jpg'
p3656
(lp3657
(S'art'
p3658
S'What type of art is present in the image ?'
p3659
tp3660
a(S'diversion'
p3661
S'Select the diversion represented by the image ?'
p3662
tp3663
asS'5406927495.jpg'
p3664
(lp3665
(S'gathering'
p3666
S'What type of gathering is present in the image ?'
p3667
tp3668
a(S'municipality'
p3669
S'Select the municipality represented by the image ?'
p3670
tp3671
asS'3113386906.jpg'
p3672
(lp3673
(S'chromatic color'
p3674
S'What type of chromatic color is present in the image ?'
p3675
tp3676
a(S'way'
p3677
S'Select the way represented by the image ?'
p3678
tp3679
asS'4115212373.jpg'
p3680
(lp3681
(S'conveyance'
p3682
S'What type of conveyance is present in the image ?'
p3683
tp3684
a(S'machine'
p3685
S'Select the machine represented by the image ?'
p3686
tp3687
asS'2940342154.jpg'
p3688
(lp3689
sS'2664091531.jpg'
p3690
(lp3691
(S'body of water'
p3692
S'What type of body of water is present in the image ?'
p3693
tp3694
a(S'conveyance'
p3695
S'Select the conveyance represented by the image ?'
p3696
tp3697
asS'410396747.jpg'
p3698
(lp3699
(S'diversion'
p3700
S'What type of diversion is present in the image ?'
p3701
tp3702
a(S'causal agent'
p3703
S'Select the causal agent represented by the image ?'
p3704
tp3705
asS'4867579379.jpg'
p3706
(lp3707
(S'diversion'
p3708
S'What type of diversion is present in the image ?'
p3709
tp3710
a(S'brome'
p3711
S'Select the brome represented by the image ?'
p3712
tp3713
asS'3018895758.jpg'
p3714
(lp3715
(S'causal agent'
p3716
S'What type of causal agent is present in the image ?'
p3717
tp3718
a(S'doctor'
p3719
S'Select the doctor represented by the image ?'
p3720
tp3721
asS'2349785157.jpg'
p3722
(lp3723
(S'transmission'
p3724
S'What type of transmission is present in the image ?'
p3725
tp3726
a(S'collection'
p3727
S'Select the collection represented by the image ?'
p3728
tp3729
asS'4752074240.jpg'
p3730
(lp3731
(S'consumer goods'
p3732
S'What type of consumer goods is present in the image ?'
p3733
tp3734
a(S'causal agent'
p3735
S'Select the causal agent represented by the image ?'
p3736
tp3737
asS'4105969146.jpg'
p3738
(lp3739
(S'diversion'
p3740
S'What type of diversion is present in the image ?'
p3741
tp3742
a(S'dramatic composition'
p3743
S'Select the dramatic composition represented by the image ?'
p3744
tp3745
asS'4705276073.jpg'
p3746
(lp3747
(S'leisure'
p3748
S'What type of leisure is present in the image ?'
p3749
tp3750
a(S'geological formation'
p3751
S'Select the geological formation represented by the image ?'
p3752
tp3753
asS'2782031648.jpg'
p3754
(lp3755
(S'binary compound'
p3756
S'What type of binary compound is present in the image ?'
p3757
tp3758
a(S'conveyance'
p3759
S'Select the conveyance represented by the image ?'
p3760
tp3761
asS'749840385.jpg'
p3762
(lp3763
(S'causal agent'
p3764
S'What type of causal agent is present in the image ?'
p3765
tp3766
a(S'occupational group'
p3767
S'Select the occupational group represented by the image ?'
p3768
tp3769
asS'3067500667.jpg'
p3770
(lp3771
(S'diversion'
p3772
S'What type of diversion is present in the image ?'
p3773
tp3774
asS'2597873827.jpg'
p3775
(lp3776
(S'causal agent'
p3777
S'What type of causal agent is present in the image ?'
p3778
tp3779
a(S'juvenile'
p3780
S'Select the juvenile represented by the image ?'
p3781
tp3782
asS'2588927489.jpg'
p3783
(lp3784
(S'diversion'
p3785
S'What type of diversion is present in the image ?'
p3786
tp3787
a(S'gramineous plant'
p3788
S'Select the gramineous plant represented by the image ?'
p3789
tp3790
asS'3132619510.jpg'
p3791
(lp3792
(S'animal'
p3793
S'What type of animal is present in the image ?'
p3794
tp3795
a(S'canine'
p3796
S'Select the canine represented by the image ?'
p3797
tp3798
asS'2841449931.jpg'
p3799
(lp3800
(S'visual property'
p3801
S'What type of visual property is present in the image ?'
p3802
tp3803
a(S'chromatic color'
p3804
S'Select the chromatic color represented by the image ?'
p3805
tp3806
asS'23012796.jpg'
p3807
(lp3808
(S'diversion'
p3809
S'What type of diversion is present in the image ?'
p3810
tp3811
a(S'limb'
p3812
S'Select the limb represented by the image ?'
p3813
tp3814
asS'3442540072.jpg'
p3815
(lp3816
(S'artwork'
p3817
S'What type of artwork is present in the image ?'
p3818
tp3819
a(S'ellipse'
p3820
S'Select the ellipse represented by the image ?'
p3821
tp3822
asS'816898146.jpg'
p3823
(lp3824
(S'newlywed'
p3825
S'What type of newlywed is present in the image ?'
p3826
tp3827
a(S'causal agent'
p3828
S'Select the causal agent represented by the image ?'
p3829
tp3830
asS'2645694063.jpg'
p3831
(lp3832
(S'dish'
p3833
S'What type of dish is present in the image ?'
p3834
tp3835
a(S'food'
p3836
S'Select the food represented by the image ?'
p3837
tp3838
asS'543940240.jpg'
p3839
(lp3840
(S'time period'
p3841
S'What type of time period is present in the image ?'
p3842
tp3843
asS'4784959521.jpg'
p3844
(lp3845
(S'causal agent'
p3846
S'What type of causal agent is present in the image ?'
p3847
tp3848
a(S'adult'
p3849
S'Select the adult represented by the image ?'
p3850
tp3851
asS'3275687405.jpg'
p3852
(lp3853
(S'leisure'
p3854
S'What type of leisure is present in the image ?'
p3855
tp3856
a(S'body of water'
p3857
S'Select the body of water represented by the image ?'
p3858
tp3859
asS'2823575468.jpg'
p3860
(lp3861
(S'consumer goods'
p3862
S'What type of consumer goods is present in the image ?'
p3863
tp3864
a(S'causal agent'
p3865
S'Select the causal agent represented by the image ?'
p3866
tp3867
asS'2536889705.jpg'
p3868
(lp3869
(S'artifact'
p3870
S'What type of artifact is present in the image ?'
p3871
tp3872
a(S'system'
p3873
S'Select the system represented by the image ?'
p3874
tp3875
asS'2373234213.jpg'
p3876
(lp3877
(S'diversion'
p3878
S'What type of diversion is present in the image ?'
p3879
tp3880
a(S'dramatic composition'
p3881
S'Select the dramatic composition represented by the image ?'
p3882
tp3883
asS'1348113612.jpg'
p3884
(lp3885
(S'body of water'
p3886
S'What type of body of water is present in the image ?'
p3887
tp3888
a(S'conveyance'
p3889
S'Select the conveyance represented by the image ?'
p3890
tp3891
asS'2112830327.jpg'
p3892
(lp3893
(S'time period'
p3894
S'What type of time period is present in the image ?'
p3895
tp3896
a(S'illumination'
p3897
S'Select the illumination represented by the image ?'
p3898
tp3899
asS'3266399073.jpg'
p3900
(lp3901
(S'show'
p3902
S'What type of show is present in the image ?'
p3903
tp3904
a(S'auditory communication'
p3905
S'Select the auditory communication represented by the image ?'
p3906
tp3907
asS'241031670.jpg'
p3908
(lp3909
(S'canopy'
p3910
S'What type of canopy is present in the image ?'
p3911
tp3912
a(S'precipitation'
p3913
S'Select the precipitation represented by the image ?'
p3914
tp3915
asS'3893510114.jpg'
p3916
(lp3917
(S'diversion'
p3918
S'What type of diversion is present in the image ?'
p3919
tp3920
a(S'brome'
p3921
S'Select the brome represented by the image ?'
p3922
tp3923
asS'4985722941.jpg'
p3924
(lp3925
(S'activity'
p3926
S'What type of activity is present in the image ?'
p3927
tp3928
a(S'municipality'
p3929
S'Select the municipality represented by the image ?'
p3930
tp3931
asS'3827311036.jpg'
p3932
(lp3933
(S'body of water'
p3934
S'What type of body of water is present in the image ?'
p3935
tp3936
a(S'soil'
p3937
S'Select the soil represented by the image ?'
p3938
tp3939
asS'3339263085.jpg'
p3940
(lp3941
(S'animal'
p3942
S'What type of animal is present in the image ?'
p3943
tp3944
a(S'canine'
p3945
S'Select the canine represented by the image ?'
p3946
tp3947
asS'254555172.jpg'
p3948
(lp3949
(S'chromatic color'
p3950
S'What type of chromatic color is present in the image ?'
p3951
tp3952
a(S'dramatic composition'
p3953
S'Select the dramatic composition represented by the image ?'
p3954
tp3955
asS'3199600309.jpg'
p3956
(lp3957
(S'clothing'
p3958
S'What type of clothing is present in the image ?'
p3959
tp3960
a(S'plastic art'
p3961
S'Select the plastic art represented by the image ?'
p3962
tp3963
asS'6797626960.jpg'
p3964
(lp3965
(S'diversion'
p3966
S'What type of diversion is present in the image ?'
p3967
tp3968
a(S'court game'
p3969
S'Select the court game represented by the image ?'
p3970
tp3971
asS'4722714581.jpg'
p3972
(lp3973
(S'chromatic color'
p3974
S'What type of chromatic color is present in the image ?'
p3975
tp3976
a(S'way'
p3977
S'Select the way represented by the image ?'
p3978
tp3979
asS'2976155358.jpg'
p3980
(lp3981
(S'diversion'
p3982
S'What type of diversion is present in the image ?'
p3983
tp3984
a(S'contestant'
p3985
S'Select the contestant represented by the image ?'
p3986
tp3987
asS'3069786374.jpg'
p3988
(lp3989
(S'diversion'
p3990
S'What type of diversion is present in the image ?'
p3991
tp3992
a(S'contestant'
p3993
S'Select the contestant represented by the image ?'
p3994
tp3995
asS'2404692474.jpg'
p3996
(lp3997
(S'vertebrate'
p3998
S'What type of vertebrate is present in the image ?'
p3999
tp4000
a(S'organism'
p4001
S'Select the organism represented by the image ?'
p4002
tp4003
asS'2786245676.jpg'
p4004
(lp4005
(S'causal agent'
p4006
S'What type of causal agent is present in the image ?'
p4007
tp4008
a(S'graphic art'
p4009
S'Select the graphic art represented by the image ?'
p4010
tp4011
asS'2138735584.jpg'
p4012
(lp4013
(S'animal'
p4014
S'What type of animal is present in the image ?'
p4015
tp4016
a(S'woman'
p4017
S'Select the woman represented by the image ?'
p4018
tp4019
asS'3399312265.jpg'
p4020
(lp4021
(S'animal'
p4022
S'What type of animal is present in the image ?'
p4023
tp4024
a(S'canine'
p4025
S'Select the canine represented by the image ?'
p4026
tp4027
asS'1346529555.jpg'
p4028
(lp4029
(S'animal'
p4030
S'What type of animal is present in the image ?'
p4031
tp4032
a(S'canine'
p4033
S'Select the canine represented by the image ?'
p4034
tp4035
asS'1546632452.jpg'
p4036
(lp4037
(S'gymnastic apparatus'
p4038
S'What type of gymnastic apparatus is present in the image ?'
p4039
tp4040
a(S'causal agent'
p4041
S'Select the causal agent represented by the image ?'
p4042
tp4043
asS'38476490.jpg'
p4044
(lp4045
(S'hair'
p4046
S'What type of hair is present in the image ?'
p4047
tp4048
a(S'woman'
p4049
S'Select the woman represented by the image ?'
p4050
tp4051
asS'2592093693.jpg'
p4052
(lp4053
(S'clothing'
p4054
S'What type of clothing is present in the image ?'
p4055
tp4056
a(S'sport'
p4057
S'Select the sport represented by the image ?'
p4058
tp4059
asS'4255821890.jpg'
p4060
(lp4061
(S'juvenile'
p4062
S'What type of juvenile is present in the image ?'
p4063
tp4064
a(S'causal agent'
p4065
S'Select the causal agent represented by the image ?'
p4066
tp4067
asS'336422015.jpg'
p4068
(lp4069
(S'representation'
p4070
S'What type of representation is present in the image ?'
p4071
tp4072
a(S'causal agent'
p4073
S'Select the causal agent represented by the image ?'
p4074
tp4075
asS'6952515138.jpg'
p4076
(lp4077
(S'gathering'
p4078
S'What type of gathering is present in the image ?'
p4079
tp4080
a(S'time period'
p4081
S'Select the time period represented by the image ?'
p4082
tp4083
asS'3203653158.jpg'
p4084
(lp4085
(S'biome'
p4086
S'What type of biome is present in the image ?'
p4087
tp4088
a(S'plain'
p4089
S'Select the plain represented by the image ?'
p4090
tp4091
asS'3676788491.jpg'
p4092
(lp4093
(S'creation'
p4094
S'What type of creation is present in the image ?'
p4095
tp4096
a(S'way'
p4097
S'Select the way represented by the image ?'
p4098
tp4099
asS'1827560917.jpg'
p4100
(lp4101
(S'vertebrate'
p4102
S'What type of vertebrate is present in the image ?'
p4103
tp4104
a(S'animal'
p4105
S'Select the animal represented by the image ?'
p4106
tp4107
asS'3527261343.jpg'
p4108
(lp4109
(S'causal agent'
p4110
S'What type of causal agent is present in the image ?'
p4111
tp4112
a(S'feat'
p4113
S'Select the feat represented by the image ?'
p4114
tp4115
asS'2230458748.jpg'
p4116
(lp4117
(S'causal agent'
p4118
S'What type of causal agent is present in the image ?'
p4119
tp4120
a(S'occupational group'
p4121
S'Select the occupational group represented by the image ?'
p4122
tp4123
asS'3973872042.jpg'
p4124
(lp4125
(S'contestant'
p4126
S'What type of contestant is present in the image ?'
p4127
tp4128
a(S'diversion'
p4129
S'Select the diversion represented by the image ?'
p4130
tp4131
asS'2092177624.jpg'
p4132
(lp4133
(S'chromatic color'
p4134
S'What type of chromatic color is present in the image ?'
p4135
tp4136
a(S'location'
p4137
S'Select the location represented by the image ?'
p4138
tp4139
asS'2632111399.jpg'
p4140
(lp4141
(S'diversion'
p4142
S'What type of diversion is present in the image ?'
p4143
tp4144
a(S'contestant'
p4145
S'Select the contestant represented by the image ?'
p4146
tp4147
asS'4866339868.jpg'
p4148
(lp4149
(S'municipality'
p4150
S'What type of municipality is present in the image ?'
p4151
tp4152
a(S'path'
p4153
S'Select the path represented by the image ?'
p4154
tp4155
asS'3682338188.jpg'
p4156
(lp4157
(S'adult'
p4158
S'What type of adult is present in the image ?'
p4159
tp4160
a(S'adult'
p4161
S'Select the adult represented by the image ?'
p4162
tp4163
asS'337647771.jpg'
p4164
(lp4165
(S'dramatic composition'
p4166
S'What type of dramatic composition is present in the image ?'
p4167
tp4168
a(S'animal'
p4169
S'Select the animal represented by the image ?'
p4170
tp4171
asS'2281254839.jpg'
p4172
(lp4173
(S'gun'
p4174
S'What type of gun is present in the image ?'
p4175
tp4176
a(S'performer'
p4177
S'Select the performer represented by the image ?'
p4178
tp4179
asS'3890247909.jpg'
p4180
(lp4181
(S'animal'
p4182
S'What type of animal is present in the image ?'
p4183
tp4184
a(S'canine'
p4185
S'Select the canine represented by the image ?'
p4186
tp4187
asS'3288928346.jpg'
p4188
(lp4189
(S'wheeled vehicle'
p4190
S'What type of wheeled vehicle is present in the image ?'
p4191
tp4192
a(S'way'
p4193
S'Select the way represented by the image ?'
p4194
tp4195
asS'4004704609.jpg'
p4196
(lp4197
(S'promotion'
p4198
S'What type of promotion is present in the image ?'
p4199
tp4200
a(S'enterprise'
p4201
S'Select the enterprise represented by the image ?'
p4202
tp4203
asS'4823906931.jpg'
p4204
(lp4205
(S'binary compound'
p4206
S'What type of binary compound is present in the image ?'
p4207
tp4208
a(S'body of water'
p4209
S'Select the body of water represented by the image ?'
p4210
tp4211
asS'4604980786.jpg'
p4212
(lp4213
(S'artifact'
p4214
S'What type of artifact is present in the image ?'
p4215
tp4216
a(S'commercial enterprise'
p4217
S'Select the commercial enterprise represented by the image ?'
p4218
tp4219
asS'1119463452.jpg'
p4220
(lp4221
(S'leisure'
p4222
S'What type of leisure is present in the image ?'
p4223
tp4224
a(S'water sport'
p4225
S'Select the water sport represented by the image ?'
p4226
tp4227
asS'2455286250.jpg'
p4228
(lp4229
(S'diversion'
p4230
S'What type of diversion is present in the image ?'
p4231
tp4232
a(S'contest'
p4233
S'Select the contest represented by the image ?'
p4234
tp4235
asS'4093746088.jpg'
p4236
(lp4237
(S'clothing'
p4238
S'What type of clothing is present in the image ?'
p4239
tp4240
asS'4104420147.jpg'
p4241
(lp4242
(S'container'
p4243
S'What type of container is present in the image ?'
p4244
tp4245
a(S'substance'
p4246
S'Select the substance represented by the image ?'
p4247
tp4248
asS'4931775347.jpg'
p4249
(lp4250
(S'consumer goods'
p4251
S'What type of consumer goods is present in the image ?'
p4252
tp4253
a(S'way'
p4254
S'Select the way represented by the image ?'
p4255
tp4256
asS'2790329126.jpg'
p4257
(lp4258
(S'causal agent'
p4259
S'What type of causal agent is present in the image ?'
p4260
tp4261
a(S'occupational group'
p4262
S'Select the occupational group represented by the image ?'
p4263
tp4264
asS'26653224.jpg'
p4265
(lp4266
(S'instrumentality'
p4267
S'What type of instrumentality is present in the image ?'
p4268
tp4269
asS'3527659327.jpg'
p4270
(lp4271
(S'diversion'
p4272
S'What type of diversion is present in the image ?'
p4273
tp4274
a(S'field game'
p4275
S'Select the field game represented by the image ?'
p4276
tp4277
asS'2834973135.jpg'
p4278
(lp4279
(S'consumer goods'
p4280
S'What type of consumer goods is present in the image ?'
p4281
tp4282
a(S'leisure'
p4283
S'Select the leisure represented by the image ?'
p4284
tp4285
asS'4557175287.jpg'
p4286
(lp4287
(S'visual property'
p4288
S'What type of visual property is present in the image ?'
p4289
tp4290
a(S'way'
p4291
S'Select the way represented by the image ?'
p4292
tp4293
asS'1947255786.jpg'
p4294
(lp4295
(S'causal agent'
p4296
S'What type of causal agent is present in the image ?'
p4297
tp4298
a(S'skilled worker'
p4299
S'Select the skilled worker represented by the image ?'
p4300
tp4301
asS'2077063153.jpg'
p4302
(lp4303
(S'chromatic color'
p4304
S'What type of chromatic color is present in the image ?'
p4305
tp4306
a(S'body of water'
p4307
S'Select the body of water represented by the image ?'
p4308
tp4309
asS'3559693175.jpg'
p4310
(lp4311
sS'4212403138.jpg'
p4312
(lp4313
(S'adult'
p4314
S'What type of adult is present in the image ?'
p4315
tp4316
a(S'group'
p4317
S'Select the group represented by the image ?'
p4318
tp4319
asS'221365576.jpg'
p4320
(lp4321
(S'group'
p4322
S'What type of group is present in the image ?'
p4323
tp4324
a(S'juvenile'
p4325
S'Select the juvenile represented by the image ?'
p4326
tp4327
asS'3109136206.jpg'
p4328
(lp4329
(S'vertebrate'
p4330
S'What type of vertebrate is present in the image ?'
p4331
tp4332
a(S'organism'
p4333
S'Select the organism represented by the image ?'
p4334
tp4335
asS'4658316753.jpg'
p4336
(lp4337
(S'leisure'
p4338
S'What type of leisure is present in the image ?'
p4339
tp4340
a(S'body of water'
p4341
S'Select the body of water represented by the image ?'
p4342
tp4343
asS'23770160.jpg'
p4344
(lp4345
(S'musician'
p4346
S'What type of musician is present in the image ?'
p4347
tp4348
a(S'stringed instrument'
p4349
S'Select the stringed instrument represented by the image ?'
p4350
tp4351
asS'5341071664.jpg'
p4352
(lp4353
(S'diversion'
p4354
S'What type of diversion is present in the image ?'
p4355
tp4356
a(S'court game'
p4357
S'Select the court game represented by the image ?'
p4358
tp4359
asS'2819254573.jpg'
p4360
(lp4361
(S'juvenile'
p4362
S'What type of juvenile is present in the image ?'
p4363
tp4364
a(S'child'
p4365
S'Select the child represented by the image ?'
p4366
tp4367
asS'901027462.jpg'
p4368
(lp4369
(S'juvenile'
p4370
S'What type of juvenile is present in the image ?'
p4371
tp4372
a(S'dramatic composition'
p4373
S'Select the dramatic composition represented by the image ?'
p4374
tp4375
asS'5453323381.jpg'
p4376
(lp4377
(S'group'
p4378
S'What type of group is present in the image ?'
p4379
tp4380
a(S'tract'
p4381
S'Select the tract represented by the image ?'
p4382
tp4383
asS'225157506.jpg'
p4384
(lp4385
(S'binary compound'
p4386
S'What type of binary compound is present in the image ?'
p4387
tp4388
a(S'juvenile'
p4389
S'Select the juvenile represented by the image ?'
p4390
tp4391
asS'2213987357.jpg'
p4392
(lp4393
(S'body of water'
p4394
S'What type of body of water is present in the image ?'
p4395
tp4396
a(S'geological formation'
p4397
S'Select the geological formation represented by the image ?'
p4398
tp4399
asS'2652311904.jpg'
p4400
(lp4401
(S'gathering'
p4402
S'What type of gathering is present in the image ?'
p4403
tp4404
a(S'traveler'
p4405
S'Select the traveler represented by the image ?'
p4406
tp4407
asS'2953684252.jpg'
p4408
(lp4409
(S'biome'
p4410
S'What type of biome is present in the image ?'
p4411
tp4412
a(S'scenery'
p4413
S'Select the scenery represented by the image ?'
p4414
tp4415
asS'2917527717.jpg'
p4416
(lp4417
(S'gully'
p4418
S'What type of gully is present in the image ?'
p4419
tp4420
a(S'undertaking'
p4421
S'Select the undertaking represented by the image ?'
p4422
tp4423
asS'4543570621.jpg'
p4424
(lp4425
(S'car'
p4426
S'What type of car is present in the image ?'
p4427
tp4428
a(S'motor vehicle'
p4429
S'Select the motor vehicle represented by the image ?'
p4430
tp4431
asS'170292350.jpg'
p4432
(lp4433
(S'diversion'
p4434
S'What type of diversion is present in the image ?'
p4435
tp4436
a(S'contestant'
p4437
S'Select the contestant represented by the image ?'
p4438
tp4439
asS'1017675163.jpg'
p4440
(lp4441
(S'conveyance'
p4442
S'What type of conveyance is present in the image ?'
p4443
tp4444
a(S'artifact'
p4445
S'Select the artifact represented by the image ?'
p4446
tp4447
asS'4471427610.jpg'
p4448
(lp4449
(S'diversion'
p4450
S'What type of diversion is present in the image ?'
p4451
tp4452
a(S'sport'
p4453
S'Select the sport represented by the image ?'
p4454
tp4455
asS'2735558076.jpg'
p4456
(lp4457
(S'causal agent'
p4458
S'What type of causal agent is present in the image ?'
p4459
tp4460
a(S'occupational group'
p4461
S'Select the occupational group represented by the image ?'
p4462
tp4463
asS'2127566743.jpg'
p4464
(lp4465
(S'gathering'
p4466
S'What type of gathering is present in the image ?'
p4467
tp4468
a(S'show'
p4469
S'Select the show represented by the image ?'
p4470
tp4471
asS'2401947932.jpg'
p4472
(lp4473
(S'pachyderm'
p4474
S'What type of pachyderm is present in the image ?'
p4475
tp4476
a(S'vertebrate'
p4477
S'Select the vertebrate represented by the image ?'
p4478
tp4479
asS'4746460091.jpg'
p4480
(lp4481
(S'gramineous plant'
p4482
S'What type of gramineous plant is present in the image ?'
p4483
tp4484
a(S'diversion'
p4485
S'Select the diversion represented by the image ?'
p4486
tp4487
asS'6157403653.jpg'
p4488
(lp4489
(S'diversion'
p4490
S'What type of diversion is present in the image ?'
p4491
tp4492
a(S'animal'
p4493
S'Select the animal represented by the image ?'
p4494
tp4495
asS'50831436.jpg'
p4496
(lp4497
(S'nutriment'
p4498
S'What type of nutriment is present in the image ?'
p4499
tp4500
a(S'group'
p4501
S'Select the group represented by the image ?'
p4502
tp4503
asS'3217187564.jpg'
p4504
(lp4505
(S'animal'
p4506
S'What type of animal is present in the image ?'
p4507
tp4508
a(S'sport'
p4509
S'Select the sport represented by the image ?'
p4510
tp4511
asS'4809074234.jpg'
p4512
(lp4513
(S'chromatic color'
p4514
S'What type of chromatic color is present in the image ?'
p4515
tp4516
a(S'partition'
p4517
S'Select the partition represented by the image ?'
p4518
tp4519
asS'2633201394.jpg'
p4520
(lp4521
(S'animal'
p4522
S'What type of animal is present in the image ?'
p4523
tp4524
a(S'canine'
p4525
S'Select the canine represented by the image ?'
p4526
tp4527
asS'3751894413.jpg'
p4528
(lp4529
(S'causal agent'
p4530
S'What type of causal agent is present in the image ?'
p4531
tp4532
a(S'adult'
p4533
S'Select the adult represented by the image ?'
p4534
tp4535
asS'3219210794.jpg'
p4536
(lp4537
(S'actinic radiation'
p4538
S'What type of actinic radiation is present in the image ?'
p4539
tp4540
a(S'illumination'
p4541
S'Select the illumination represented by the image ?'
p4542
tp4543
asS'3848362132.jpg'
p4544
(lp4545
(S'horizontal surface'
p4546
S'What type of horizontal surface is present in the image ?'
p4547
tp4548
a(S'road'
p4549
S'Select the road represented by the image ?'
p4550
tp4551
asS'2674784195.jpg'
p4552
(lp4553
(S'body of water'
p4554
S'What type of body of water is present in the image ?'
p4555
tp4556
a(S'soil'
p4557
S'Select the soil represented by the image ?'
p4558
tp4559
asS'476919777.jpg'
p4560
(lp4561
(S'consumer goods'
p4562
S'What type of consumer goods is present in the image ?'
p4563
tp4564
a(S'chromatic color'
p4565
S'Select the chromatic color represented by the image ?'
p4566
tp4567
asS'2599255633.jpg'
p4568
(lp4569
(S'musician'
p4570
S'What type of musician is present in the image ?'
p4571
tp4572
a(S'stringed instrument'
p4573
S'Select the stringed instrument represented by the image ?'
p4574
tp4575
asS'4440322311.jpg'
p4576
(lp4577
(S'gathering'
p4578
S'What type of gathering is present in the image ?'
p4579
tp4580
a(S'time period'
p4581
S'Select the time period represented by the image ?'
p4582
tp4583
asS'2317417015.jpg'
p4584
(lp4585
(S'gathering'
p4586
S'What type of gathering is present in the image ?'
p4587
tp4588
a(S'gathering'
p4589
S'Select the gathering represented by the image ?'
p4590
tp4591
asS'363050622.jpg'
p4592
(lp4593
(S'container'
p4594
S'What type of container is present in the image ?'
p4595
tp4596
a(S'nutriment'
p4597
S'Select the nutriment represented by the image ?'
p4598
tp4599
asS'2831891201.jpg'
p4600
(lp4601
(S'precipitation'
p4602
S'What type of precipitation is present in the image ?'
p4603
tp4604
a(S'season'
p4605
S'Select the season represented by the image ?'
p4606
tp4607
asS'3009524142.jpg'
p4608
(lp4609
(S'diversion'
p4610
S'What type of diversion is present in the image ?'
p4611
tp4612
asS'5712096379.jpg'
p4613
(lp4614
(S'instrumentality'
p4615
S'What type of instrumentality is present in the image ?'
p4616
tp4617
a(S'chromatic color'
p4618
S'Select the chromatic color represented by the image ?'
p4619
tp4620
asS'5519354264.jpg'
p4621
(lp4622
(S'water travel'
p4623
S'What type of water travel is present in the image ?'
p4624
tp4625
a(S'juvenile'
p4626
S'Select the juvenile represented by the image ?'
p4627
tp4628
asS'833319080.jpg'
p4629
(lp4630
(S'diversion'
p4631
S'What type of diversion is present in the image ?'
p4632
tp4633
a(S'contestant'
p4634
S'Select the contestant represented by the image ?'
p4635
tp4636
asS'26758039.jpg'
p4637
(lp4638
(S'gathering'
p4639
S'What type of gathering is present in the image ?'
p4640
tp4641
a(S'time period'
p4642
S'Select the time period represented by the image ?'
p4643
tp4644
asS'918545497.jpg'
p4645
(lp4646
(S'field'
p4647
S'What type of field is present in the image ?'
p4648
tp4649
a(S'animal'
p4650
S'Select the animal represented by the image ?'
p4651
tp4652
asS'1000344755.jpg'
p4653
(lp4654
(S'artifact'
p4655
S'What type of artifact is present in the image ?'
p4656
tp4657
a(S'municipality'
p4658
S'Select the municipality represented by the image ?'
p4659
tp4660
asS'2180480870.jpg'
p4661
(lp4662
(S'animal'
p4663
S'What type of animal is present in the image ?'
p4664
tp4665
a(S'vertebrate'
p4666
S'Select the vertebrate represented by the image ?'
p4667
tp4668
asS'6558305361.jpg'
p4669
(lp4670
(S'dirtiness'
p4671
S'What type of dirtiness is present in the image ?'
p4672
tp4673
a(S'output'
p4674
S'Select the output represented by the image ?'
p4675
tp4676
asS'4703903704.jpg'
p4677
(lp4678
(S'juvenile'
p4679
S'What type of juvenile is present in the image ?'
p4680
tp4681
a(S'woman'
p4682
S'Select the woman represented by the image ?'
p4683
tp4684
asS'6750572607.jpg'
p4685
(lp4686
(S'visual property'
p4687
S'What type of visual property is present in the image ?'
p4688
tp4689
a(S'chromatic color'
p4690
S'Select the chromatic color represented by the image ?'
p4691
tp4692
asS'6629925875.jpg'
p4693
(lp4694
(S'illumination'
p4695
S'What type of illumination is present in the image ?'
p4696
tp4697
a(S'location'
p4698
S'Select the location represented by the image ?'
p4699
tp4700
asS'7249185350.jpg'
p4701
(lp4702
(S'diversion'
p4703
S'What type of diversion is present in the image ?'
p4704
tp4705
a(S'sport'
p4706
S'Select the sport represented by the image ?'
p4707
tp4708
asS'3576387257.jpg'
p4709
(lp4710
(S'consumer goods'
p4711
S'What type of consumer goods is present in the image ?'
p4712
tp4713
a(S'clothing'
p4714
S'Select the clothing represented by the image ?'
p4715
tp4716
asS'2520892855.jpg'
p4717
(lp4718
(S'way'
p4719
S'What type of way is present in the image ?'
p4720
tp4721
a(S'thoroughfare'
p4722
S'Select the thoroughfare represented by the image ?'
p4723
tp4724
asS'4125992235.jpg'
p4725
(lp4726
(S'season'
p4727
S'What type of season is present in the image ?'
p4728
tp4729
a(S'woody plant'
p4730
S'Select the woody plant represented by the image ?'
p4731
tp4732
asS'4423275742.jpg'
p4733
(lp4734
(S'body of water'
p4735
S'What type of body of water is present in the image ?'
p4736
tp4737
a(S'geological formation'
p4738
S'Select the geological formation represented by the image ?'
p4739
tp4740
asS'1410849159.jpg'
p4741
(lp4742
(S'plastic art'
p4743
S'What type of plastic art is present in the image ?'
p4744
tp4745
a(S'sculpture'
p4746
S'Select the sculpture represented by the image ?'
p4747
tp4748
asS'1433262517.jpg'
p4749
(lp4750
(S'optical instrument'
p4751
S'What type of optical instrument is present in the image ?'
p4752
tp4753
a(S'vessel'
p4754
S'Select the vessel represented by the image ?'
p4755
tp4756
asS'6457288631.jpg'
p4757
(lp4758
(S'season'
p4759
S'What type of season is present in the image ?'
p4760
tp4761
asS'1884065356.jpg'
p4762
(lp4763
(S'animal'
p4764
S'What type of animal is present in the image ?'
p4765
tp4766
a(S'canine'
p4767
S'Select the canine represented by the image ?'
p4768
tp4769
asS'5301963559.jpg'
p4770
(lp4771
(S'causal agent'
p4772
S'What type of causal agent is present in the image ?'
p4773
tp4774
a(S'juvenile'
p4775
S'Select the juvenile represented by the image ?'
p4776
tp4777
asS'7402359070.jpg'
p4778
(lp4779
(S'creation'
p4780
S'What type of creation is present in the image ?'
p4781
tp4782
a(S'diversion'
p4783
S'Select the diversion represented by the image ?'
p4784
tp4785
asS'408573233.jpg'
p4786
(lp4787
(S'animal'
p4788
S'What type of animal is present in the image ?'
p4789
tp4790
a(S'canine'
p4791
S'Select the canine represented by the image ?'
p4792
tp4793
asS'4105944919.jpg'
p4794
(lp4795
(S'paving'
p4796
S'What type of paving is present in the image ?'
p4797
tp4798
a(S'horizontal surface'
p4799
S'Select the horizontal surface represented by the image ?'
p4800
tp4801
asS'4789495327.jpg'
p4802
(lp4803
(S'causal agent'
p4804
S'What type of causal agent is present in the image ?'
p4805
tp4806
a(S'show'
p4807
S'Select the show represented by the image ?'
p4808
tp4809
asS'3478591390.jpg'
p4810
(lp4811
(S'facial expression'
p4812
S'What type of facial expression is present in the image ?'
p4813
tp4814
a(S'appearance'
p4815
S'Select the appearance represented by the image ?'
p4816
tp4817
asS'4883883679.jpg'
p4818
(lp4819
(S'diversion'
p4820
S'What type of diversion is present in the image ?'
p4821
tp4822
a(S'dramatic composition'
p4823
S'Select the dramatic composition represented by the image ?'
p4824
tp4825
asS'12118309.jpg'
p4826
(lp4827
(S'achromatic color'
p4828
S'What type of achromatic color is present in the image ?'
p4829
tp4830
a(S'body covering'
p4831
S'Select the body covering represented by the image ?'
p4832
tp4833
asS'2952320230.jpg'
p4834
(lp4835
(S'diversion'
p4836
S'What type of diversion is present in the image ?'
p4837
tp4838
a(S'contestant'
p4839
S'Select the contestant represented by the image ?'
p4840
tp4841
asS'47951611.jpg'
p4842
(lp4843
(S'boat'
p4844
S'What type of boat is present in the image ?'
p4845
tp4846
a(S'conveyance'
p4847
S'Select the conveyance represented by the image ?'
p4848
tp4849
asS'3344948183.jpg'
p4850
(lp4851
(S'chromatic color'
p4852
S'What type of chromatic color is present in the image ?'
p4853
tp4854
a(S'diversion'
p4855
S'Select the diversion represented by the image ?'
p4856
tp4857
asS'1348517063.jpg'
p4858
(lp4859
(S'diversion'
p4860
S'What type of diversion is present in the image ?'
p4861
tp4862
a(S'cricketer'
p4863
S'Select the cricketer represented by the image ?'
p4864
tp4865
asS'2279380619.jpg'
p4866
(lp4867
(S'municipality'
p4868
S'What type of municipality is present in the image ?'
p4869
tp4870
a(S'activity'
p4871
S'Select the activity represented by the image ?'
p4872
tp4873
asS'4716172909.jpg'
p4874
(lp4875
(S'traveler'
p4876
S'What type of traveler is present in the image ?'
p4877
tp4878
asS'3677954655.jpg'
p4879
(lp4880
(S'way'
p4881
S'What type of way is present in the image ?'
p4882
tp4883
a(S'instrumentality'
p4884
S'Select the instrumentality represented by the image ?'
p4885
tp4886
asS'3623894108.jpg'
p4887
(lp4888
(S'municipality'
p4889
S'What type of municipality is present in the image ?'
p4890
tp4891
a(S'way'
p4892
S'Select the way represented by the image ?'
p4893
tp4894
asS'2224524855.jpg'
p4895
(lp4896
(S'commercial enterprise'
p4897
S'What type of commercial enterprise is present in the image ?'
p4898
tp4899
a(S'path'
p4900
S'Select the path represented by the image ?'
p4901
tp4902
asS'2370275359.jpg'
p4903
(lp4904
(S'gathering'
p4905
S'What type of gathering is present in the image ?'
p4906
tp4907
a(S'group'
p4908
S'Select the group represented by the image ?'
p4909
tp4910
asS'6221126100.jpg'
p4911
(lp4912
(S'chromatic color'
p4913
S'What type of chromatic color is present in the image ?'
p4914
tp4915
a(S'group'
p4916
S'Select the group represented by the image ?'
p4917
tp4918
asS'449687289.jpg'
p4919
(lp4920
(S'show'
p4921
S'What type of show is present in the image ?'
p4922
tp4923
a(S'performance'
p4924
S'Select the performance represented by the image ?'
p4925
tp4926
asS'186007260.jpg'
p4927
(lp4928
(S'municipality'
p4929
S'What type of municipality is present in the image ?'
p4930
tp4931
a(S'activity'
p4932
S'Select the activity represented by the image ?'
p4933
tp4934
asS'4821487527.jpg'
p4935
(lp4936
(S'way'
p4937
S'What type of way is present in the image ?'
p4938
tp4939
a(S'thoroughfare'
p4940
S'Select the thoroughfare represented by the image ?'
p4941
tp4942
asS'4648447880.jpg'
p4943
(lp4944
(S'promotion'
p4945
S'What type of promotion is present in the image ?'
p4946
tp4947
a(S'time period'
p4948
S'Select the time period represented by the image ?'
p4949
tp4950
asS'4673314291.jpg'
p4951
(lp4952
(S'consumer goods'
p4953
S'What type of consumer goods is present in the image ?'
p4954
tp4955
asS'5293561334.jpg'
p4956
(lp4957
(S'keyboard instrument'
p4958
S'What type of keyboard instrument is present in the image ?'
p4959
tp4960
a(S'device'
p4961
S'Select the device represented by the image ?'
p4962
tp4963
asS'1089181217.jpg'
p4964
(lp4965
(S'animal'
p4966
S'What type of animal is present in the image ?'
p4967
tp4968
a(S'canine'
p4969
S'Select the canine represented by the image ?'
p4970
tp4971
asS'2518094853.jpg'
p4972
(lp4973
(S'animal'
p4974
S'What type of animal is present in the image ?'
p4975
tp4976
a(S'vertebrate'
p4977
S'Select the vertebrate represented by the image ?'
p4978
tp4979
asS'371269133.jpg'
p4980
(lp4981
(S'gun'
p4982
S'What type of gun is present in the image ?'
p4983
tp4984
asS'68897277.jpg'
p4985
(lp4986
(S'adult'
p4987
S'What type of adult is present in the image ?'
p4988
tp4989
a(S'optical instrument'
p4990
S'Select the optical instrument represented by the image ?'
p4991
tp4992
asS'6956922556.jpg'
p4993
(lp4994
(S'causal agent'
p4995
S'What type of causal agent is present in the image ?'
p4996
tp4997
a(S'representation'
p4998
S'Select the representation represented by the image ?'
p4999
tp5000
asS'6978881720.jpg'
p5001
(lp5002
(S'propulsion'
p5003
S'What type of propulsion is present in the image ?'
p5004
tp5005
asS'325005410.jpg'
p5006
(lp5007
(S'gathering'
p5008
S'What type of gathering is present in the image ?'
p5009
tp5010
asS'4741408543.jpg'
p5011
(lp5012
(S'festival'
p5013
S'What type of festival is present in the image ?'
p5014
tp5015
a(S'art'
p5016
S'Select the art represented by the image ?'
p5017
tp5018
asS'8187910453.jpg'
p5019
(lp5020
(S'masonry'
p5021
S'What type of masonry is present in the image ?'
p5022
tp5023
a(S'paving'
p5024
S'Select the paving represented by the image ?'
p5025
tp5026
asS'7603002860.jpg'
p5027
(lp5028
(S'diversion'
p5029
S'What type of diversion is present in the image ?'
p5030
tp5031
asS'2417341107.jpg'
p5032
(lp5033
(S'body of water'
p5034
S'What type of body of water is present in the image ?'
p5035
tp5036
a(S'leisure'
p5037
S'Select the leisure represented by the image ?'
p5038
tp5039
asS'6126382452.jpg'
p5040
(lp5041
(S'body of water'
p5042
S'What type of body of water is present in the image ?'
p5043
tp5044
a(S'conveyance'
p5045
S'Select the conveyance represented by the image ?'
p5046
tp5047
asS'63787714.jpg'
p5048
(lp5049
(S'sport'
p5050
S'What type of sport is present in the image ?'
p5051
tp5052
a(S'diversion'
p5053
S'Select the diversion represented by the image ?'
p5054
tp5055
asS'7253781238.jpg'
p5056
(lp5057
(S'diversion'
p5058
S'What type of diversion is present in the image ?'
p5059
tp5060
a(S'skating'
p5061
S'Select the skating represented by the image ?'
p5062
tp5063
asS'4559652229.jpg'
p5064
(lp5065
(S'diversion'
p5066
S'What type of diversion is present in the image ?'
p5067
tp5068
a(S'water sport'
p5069
S'Select the water sport represented by the image ?'
p5070
tp5071
asS'340004770.jpg'
p5072
(lp5073
(S'musician'
p5074
S'What type of musician is present in the image ?'
p5075
tp5076
a(S'musician'
p5077
S'Select the musician represented by the image ?'
p5078
tp5079
asS'4451335021.jpg'
p5080
(lp5081
(S'causal agent'
p5082
S'What type of causal agent is present in the image ?'
p5083
tp5084
a(S'buying'
p5085
S'Select the buying represented by the image ?'
p5086
tp5087
asS'3738789925.jpg'
p5088
(lp5089
(S'time period'
p5090
S'What type of time period is present in the image ?'
p5091
tp5092
a(S'soil'
p5093
S'Select the soil represented by the image ?'
p5094
tp5095
asS'3380364224.jpg'
p5096
(lp5097
(S'diversion'
p5098
S'What type of diversion is present in the image ?'
p5099
tp5100
a(S'board'
p5101
S'Select the board represented by the image ?'
p5102
tp5103
asS'3462064866.jpg'
p5104
(lp5105
(S'group'
p5106
S'What type of group is present in the image ?'
p5107
tp5108
a(S'soil'
p5109
S'Select the soil represented by the image ?'
p5110
tp5111
asS'207275121.jpg'
p5112
(lp5113
(S'animal'
p5114
S'What type of animal is present in the image ?'
p5115
tp5116
a(S'organism'
p5117
S'Select the organism represented by the image ?'
p5118
tp5119
asS'4788967880.jpg'
p5120
(lp5121
(S'chromatic color'
p5122
S'What type of chromatic color is present in the image ?'
p5123
tp5124
a(S'consideration'
p5125
S'Select the consideration represented by the image ?'
p5126
tp5127
asS'3415228562.jpg'
p5128
(lp5129
(S'adult'
p5130
S'What type of adult is present in the image ?'
p5131
tp5132
a(S'group'
p5133
S'Select the group represented by the image ?'
p5134
tp5135
asS'3474985382.jpg'
p5136
(lp5137
(S'conveyance'
p5138
S'What type of conveyance is present in the image ?'
p5139
tp5140
a(S'wheeled vehicle'
p5141
S'Select the wheeled vehicle represented by the image ?'
p5142
tp5143
asS'3388094307.jpg'
p5144
(lp5145
(S'diversion'
p5146
S'What type of diversion is present in the image ?'
p5147
tp5148
a(S'court game'
p5149
S'Select the court game represented by the image ?'
p5150
tp5151
asS'6887324285.jpg'
p5152
(lp5153
(S'diversion'
p5154
S'What type of diversion is present in the image ?'
p5155
tp5156
a(S'court'
p5157
S'Select the court represented by the image ?'
p5158
tp5159
asS'3029715635.jpg'
p5160
(lp5161
(S'animal'
p5162
S'What type of animal is present in the image ?'
p5163
tp5164
a(S'canine'
p5165
S'Select the canine represented by the image ?'
p5166
tp5167
asS'2094810449.jpg'
p5168
(lp5169
(S'body of water'
p5170
S'What type of body of water is present in the image ?'
p5171
tp5172
a(S'leisure'
p5173
S'Select the leisure represented by the image ?'
p5174
tp5175
asS'4909614126.jpg'
p5176
(lp5177
(S'municipality'
p5178
S'What type of municipality is present in the image ?'
p5179
tp5180
a(S'substance'
p5181
S'Select the substance represented by the image ?'
p5182
tp5183
asS'3721404396.jpg'
p5184
(lp5185
(S'equine'
p5186
S'What type of equine is present in the image ?'
p5187
tp5188
a(S'farm'
p5189
S'Select the farm represented by the image ?'
p5190
tp5191
asS'3067711936.jpg'
p5192
(lp5193
(S'consumer goods'
p5194
S'What type of consumer goods is present in the image ?'
p5195
tp5196
a(S'appearance'
p5197
S'Select the appearance represented by the image ?'
p5198
tp5199
asS'4694892204.jpg'
p5200
(lp5201
(S'partition'
p5202
S'What type of partition is present in the image ?'
p5203
tp5204
asS'2917057791.jpg'
p5205
(lp5206
(S'path'
p5207
S'What type of path is present in the image ?'
p5208
tp5209
a(S'walk'
p5210
S'Select the walk represented by the image ?'
p5211
tp5212
asS'390671130.jpg'
p5213
(lp5214
(S'animal'
p5215
S'What type of animal is present in the image ?'
p5216
tp5217
a(S'canine'
p5218
S'Select the canine represented by the image ?'
p5219
tp5220
asS'3193671682.jpg'
p5221
(lp5222
(S'time period'
p5223
S'What type of time period is present in the image ?'
p5224
tp5225
a(S'illumination'
p5226
S'Select the illumination represented by the image ?'
p5227
tp5228
asS'2836696661.jpg'
p5229
(lp5230
(S'float'
p5231
S'What type of float is present in the image ?'
p5232
tp5233
asS'4855047455.jpg'
p5234
(lp5235
(S'causal agent'
p5236
S'What type of causal agent is present in the image ?'
p5237
tp5238
asS'118717792.jpg'
p5239
(lp5240
(S'time period'
p5241
S'What type of time period is present in the image ?'
p5242
tp5243
a(S'performer'
p5244
S'Select the performer represented by the image ?'
p5245
tp5246
asS'2291536922.jpg'
p5247
(lp5248
(S'causal agent'
p5249
S'What type of causal agent is present in the image ?'
p5250
tp5251
a(S'occupational group'
p5252
S'Select the occupational group represented by the image ?'
p5253
tp5254
asS'3519155763.jpg'
p5255
(lp5256
(S'vertebrate'
p5257
S'What type of vertebrate is present in the image ?'
p5258
tp5259
a(S'organism'
p5260
S'Select the organism represented by the image ?'
p5261
tp5262
asS'4871633378.jpg'
p5263
(lp5264
(S'causal agent'
p5265
S'What type of causal agent is present in the image ?'
p5266
tp5267
a(S'occupational group'
p5268
S'Select the occupational group represented by the image ?'
p5269
tp5270
asS'2255338013.jpg'
p5271
(lp5272
(S'body of water'
p5273
S'What type of body of water is present in the image ?'
p5274
tp5275
a(S'geological formation'
p5276
S'Select the geological formation represented by the image ?'
p5277
tp5278
asS'4817781260.jpg'
p5279
(lp5280
(S'instrumentality'
p5281
S'What type of instrumentality is present in the image ?'
p5282
tp5283
a(S'structure'
p5284
S'Select the structure represented by the image ?'
p5285
tp5286
asS'5982829174.jpg'
p5287
(lp5288
(S'diversion'
p5289
S'What type of diversion is present in the image ?'
p5290
tp5291
a(S'boat'
p5292
S'Select the boat represented by the image ?'
p5293
tp5294
asS'4971484184.jpg'
p5295
(lp5296
(S'motor vehicle'
p5297
S'What type of motor vehicle is present in the image ?'
p5298
tp5299
a(S'conveyance'
p5300
S'Select the conveyance represented by the image ?'
p5301
tp5302
asS'3560081723.jpg'
p5303
(lp5304
(S'conveyance'
p5305
S'What type of conveyance is present in the image ?'
p5306
tp5307
a(S'sport'
p5308
S'Select the sport represented by the image ?'
p5309
tp5310
asS'627714170.jpg'
p5311
(lp5312
(S'chromatic color'
p5313
S'What type of chromatic color is present in the image ?'
p5314
tp5315
a(S'artifact'
p5316
S'Select the artifact represented by the image ?'
p5317
tp5318
asS'3620247458.jpg'
p5319
(lp5320
(S'juvenile'
p5321
S'What type of juvenile is present in the image ?'
p5322
tp5323
a(S'child'
p5324
S'Select the child represented by the image ?'
p5325
tp5326
asS'2972864304.jpg'
p5327
(lp5328
(S'animal'
p5329
S'What type of animal is present in the image ?'
p5330
tp5331
a(S'plant organ'
p5332
S'Select the plant organ represented by the image ?'
p5333
tp5334
asS'3221769307.jpg'
p5335
(lp5336
(S'art'
p5337
S'What type of art is present in the image ?'
p5338
tp5339
a(S'creation'
p5340
S'Select the creation represented by the image ?'
p5341
tp5342
asS'492104206.jpg'
p5343
(lp5344
(S'time period'
p5345
S'What type of time period is present in the image ?'
p5346
tp5347
a(S'thoroughfare'
p5348
S'Select the thoroughfare represented by the image ?'
p5349
tp5350
asS'24832988.jpg'
p5351
(lp5352
(S'substance'
p5353
S'What type of substance is present in the image ?'
p5354
tp5355
a(S'nutriment'
p5356
S'Select the nutriment represented by the image ?'
p5357
tp5358
asS'7263168156.jpg'
p5359
(lp5360
(S'conveyance'
p5361
S'What type of conveyance is present in the image ?'
p5362
tp5363
asS'2525578978.jpg'
p5364
(lp5365
(S'juvenile'
p5366
S'What type of juvenile is present in the image ?'
p5367
tp5368
a(S'custom'
p5369
S'Select the custom represented by the image ?'
p5370
tp5371
asS'2928580824.jpg'
p5372
(lp5373
(S'conveyance'
p5374
S'What type of conveyance is present in the image ?'
p5375
tp5376
a(S'craft'
p5377
S'Select the craft represented by the image ?'
p5378
tp5379
asS'3494701610.jpg'
p5380
(lp5381
(S'building complex'
p5382
S'What type of building complex is present in the image ?'
p5383
tp5384
a(S'woody plant'
p5385
S'Select the woody plant represented by the image ?'
p5386
tp5387
asS'1511807116.jpg'
p5388
(lp5389
(S'animal'
p5390
S'What type of animal is present in the image ?'
p5391
tp5392
a(S'canine'
p5393
S'Select the canine represented by the image ?'
p5394
tp5395
asS'408695996.jpg'
p5396
(lp5397
(S'conveyance'
p5398
S'What type of conveyance is present in the image ?'
p5399
tp5400
a(S'tractor'
p5401
S'Select the tractor represented by the image ?'
p5402
tp5403
asS'6901983968.jpg'
p5404
(lp5405
(S'juvenile'
p5406
S'What type of juvenile is present in the image ?'
p5407
tp5408
a(S'causal agent'
p5409
S'Select the causal agent represented by the image ?'
p5410
tp5411
asS'4300375062.jpg'
p5412
(lp5413
(S'nutriment'
p5414
S'What type of nutriment is present in the image ?'
p5415
tp5416
asS'6273863290.jpg'
p5417
(lp5418
(S'gramineous plant'
p5419
S'What type of gramineous plant is present in the image ?'
p5420
tp5421
a(S'woody plant'
p5422
S'Select the woody plant represented by the image ?'
p5423
tp5424
asS'6878760811.jpg'
p5425
(lp5426
(S'causal agent'
p5427
S'What type of causal agent is present in the image ?'
p5428
tp5429
a(S'objection'
p5430
S'Select the objection represented by the image ?'
p5431
tp5432
asS'1001633352.jpg'
p5433
(lp5434
(S'adult'
p5435
S'What type of adult is present in the image ?'
p5436
tp5437
a(S'animal'
p5438
S'Select the animal represented by the image ?'
p5439
tp5440
asS'4709236483.jpg'
p5441
(lp5442
(S'municipality'
p5443
S'What type of municipality is present in the image ?'
p5444
tp5445
a(S'municipality'
p5446
S'Select the municipality represented by the image ?'
p5447
tp5448
asS'2633082074.jpg'
p5449
(lp5450
(S'woody plant'
p5451
S'What type of woody plant is present in the image ?'
p5452
tp5453
a(S'division'
p5454
S'Select the division represented by the image ?'
p5455
tp5456
asS'2545723691.jpg'
p5457
(lp5458
(S'actinic radiation'
p5459
S'What type of actinic radiation is present in the image ?'
p5460
tp5461
a(S'illumination'
p5462
S'Select the illumination represented by the image ?'
p5463
tp5464
asS'4896937239.jpg'
p5465
(lp5466
(S'person'
p5467
S'What type of person is present in the image ?'
p5468
tp5469
a(S'causal agent'
p5470
S'Select the causal agent represented by the image ?'
p5471
tp5472
asS'2602085456.jpg'
p5473
(lp5474
(S'body covering'
p5475
S'What type of body covering is present in the image ?'
p5476
tp5477
a(S'hair'
p5478
S'Select the hair represented by the image ?'
p5479
tp5480
asS'78541903.jpg'
p5481
(lp5482
(S'chromatic color'
p5483
S'What type of chromatic color is present in the image ?'
p5484
tp5485
a(S'chromatic color'
p5486
S'Select the chromatic color represented by the image ?'
p5487
tp5488
asS'2842865689.jpg'
p5489
(lp5490
(S'conveyance'
p5491
S'What type of conveyance is present in the image ?'
p5492
tp5493
a(S'motor vehicle'
p5494
S'Select the motor vehicle represented by the image ?'
p5495
tp5496
asS'3963683506.jpg'
p5497
(lp5498
(S'system'
p5499
S'What type of system is present in the image ?'
p5500
tp5501
a(S'unit'
p5502
S'Select the unit represented by the image ?'
p5503
tp5504
asS'230486268.jpg'
p5505
(lp5506
(S'juvenile'
p5507
S'What type of juvenile is present in the image ?'
p5508
tp5509
a(S'dramatic composition'
p5510
S'Select the dramatic composition represented by the image ?'
p5511
tp5512
asS'4694510761.jpg'
p5513
(lp5514
(S'precipitation'
p5515
S'What type of precipitation is present in the image ?'
p5516
tp5517
a(S'path'
p5518
S'Select the path represented by the image ?'
p5519
tp5520
asS'23016091.jpg'
p5521
(lp5522
(S'diversion'
p5523
S'What type of diversion is present in the image ?'
p5524
tp5525
a(S'diversion'
p5526
S'Select the diversion represented by the image ?'
p5527
tp5528
asS'511819129.jpg'
p5529
(lp5530
(S'ceremony'
p5531
S'What type of ceremony is present in the image ?'
p5532
tp5533
a(S'collection'
p5534
S'Select the collection represented by the image ?'
p5535
tp5536
asS'87938334.jpg'
p5537
(lp5538
(S'causal agent'
p5539
S'What type of causal agent is present in the image ?'
p5540
tp5541
asS'2271264741.jpg'
p5542
(lp5543
(S'vertebrate'
p5544
S'What type of vertebrate is present in the image ?'
p5545
tp5546
a(S'organism'
p5547
S'Select the organism represented by the image ?'
p5548
tp5549
asS'4387245953.jpg'
p5550
(lp5551
(S'property'
p5552
S'What type of property is present in the image ?'
p5553
tp5554
a(S'furnishing'
p5555
S'Select the furnishing represented by the image ?'
p5556
tp5557
asS'2374570771.jpg'
p5558
(lp5559
(S'achromatic color'
p5560
S'What type of achromatic color is present in the image ?'
p5561
tp5562
a(S'organism'
p5563
S'Select the organism represented by the image ?'
p5564
tp5565
asS'4981398759.jpg'
p5566
(lp5567
(S'container'
p5568
S'What type of container is present in the image ?'
p5569
tp5570
a(S'nutriment'
p5571
S'Select the nutriment represented by the image ?'
p5572
tp5573
asS'4202061400.jpg'
p5574
(lp5575
(S'auditory communication'
p5576
S'What type of auditory communication is present in the image ?'
p5577
tp5578
a(S'performer'
p5579
S'Select the performer represented by the image ?'
p5580
tp5581
asS'2994104606.jpg'
p5582
(lp5583
(S'animal'
p5584
S'What type of animal is present in the image ?'
p5585
tp5586
a(S'canine'
p5587
S'Select the canine represented by the image ?'
p5588
tp5589
asS'4970561178.jpg'
p5590
(lp5591
(S'motorboat'
p5592
S'What type of motorboat is present in the image ?'
p5593
tp5594
a(S'way'
p5595
S'Select the way represented by the image ?'
p5596
tp5597
asS'2203398833.jpg'
p5598
(lp5599
(S'animal'
p5600
S'What type of animal is present in the image ?'
p5601
tp5602
a(S'horizontal surface'
p5603
S'Select the horizontal surface represented by the image ?'
p5604
tp5605
asS'2752854276.jpg'
p5606
(lp5607
(S'juvenile'
p5608
S'What type of juvenile is present in the image ?'
p5609
tp5610
a(S'dramatic composition'
p5611
S'Select the dramatic composition represented by the image ?'
p5612
tp5613
asS'968081289.jpg'
p5614
(lp5615
(S'body of water'
p5616
S'What type of body of water is present in the image ?'
p5617
tp5618
a(S'leisure'
p5619
S'Select the leisure represented by the image ?'
p5620
tp5621
asS'1936215201.jpg'
p5622
(lp5623
(S'juvenile'
p5624
S'What type of juvenile is present in the image ?'
p5625
tp5626
a(S'dramatic composition'
p5627
S'Select the dramatic composition represented by the image ?'
p5628
tp5629
asS'3272847211.jpg'
p5630
(lp5631
(S'unit'
p5632
S'What type of unit is present in the image ?'
p5633
tp5634
a(S'diversion'
p5635
S'Select the diversion represented by the image ?'
p5636
tp5637
asS'276638308.jpg'
p5638
(lp5639
(S'buying'
p5640
S'What type of buying is present in the image ?'
p5641
tp5642
a(S'enterprise'
p5643
S'Select the enterprise represented by the image ?'
p5644
tp5645
asS'7571856890.jpg'
p5646
(lp5647
(S'juvenile'
p5648
S'What type of juvenile is present in the image ?'
p5649
tp5650
a(S'causal agent'
p5651
S'Select the causal agent represented by the image ?'
p5652
tp5653
asS'2628331789.jpg'
p5654
(lp5655
(S'group'
p5656
S'What type of group is present in the image ?'
p5657
tp5658
a(S'diversion'
p5659
S'Select the diversion represented by the image ?'
p5660
tp5661
asS'2818419321.jpg'
p5662
(lp5663
(S'partition'
p5664
S'What type of partition is present in the image ?'
p5665
tp5666
a(S'creating from raw materials'
p5667
S'Select the creating from raw materials represented by the image ?'
p5668
tp5669
asS'3715172123.jpg'
p5670
(lp5671
(S'disfavor'
p5672
S'What type of disfavor is present in the image ?'
p5673
tp5674
a(S'vegetation'
p5675
S'Select the vegetation represented by the image ?'
p5676
tp5677
asS'3346711367.jpg'
p5678
(lp5679
(S'animal'
p5680
S'What type of animal is present in the image ?'
p5681
tp5682
a(S'canine'
p5683
S'Select the canine represented by the image ?'
p5684
tp5685
asS'2663794355.jpg'
p5686
(lp5687
(S'body of water'
p5688
S'What type of body of water is present in the image ?'
p5689
tp5690
asS'2344875609.jpg'
p5691
(lp5692
(S'drawing'
p5693
S'What type of drawing is present in the image ?'
p5694
tp5695
a(S'juvenile'
p5696
S'Select the juvenile represented by the image ?'
p5697
tp5698
asS'4656715193.jpg'
p5699
(lp5700
(S'sport'
p5701
S'What type of sport is present in the image ?'
p5702
tp5703
a(S'diversion'
p5704
S'Select the diversion represented by the image ?'
p5705
tp5706
asS'4775132222.jpg'
p5707
(lp5708
(S'juvenile'
p5709
S'What type of juvenile is present in the image ?'
p5710
tp5711
a(S'bedroom furniture'
p5712
S'Select the bedroom furniture represented by the image ?'
p5713
tp5714
asS'2869491449.jpg'
p5715
(lp5716
(S'animal'
p5717
S'What type of animal is present in the image ?'
p5718
tp5719
a(S'canine'
p5720
S'Select the canine represented by the image ?'
p5721
tp5722
asS'2979998405.jpg'
p5723
(lp5724
(S'creation'
p5725
S'What type of creation is present in the image ?'
p5726
tp5727
a(S'time period'
p5728
S'Select the time period represented by the image ?'
p5729
tp5730
asS'2741051940.jpg'
p5731
(lp5732
(S'animal'
p5733
S'What type of animal is present in the image ?'
p5734
tp5735
a(S'canine'
p5736
S'Select the canine represented by the image ?'
p5737
tp5738
asS'335047362.jpg'
p5739
(lp5740
(S'group'
p5741
S'What type of group is present in the image ?'
p5742
tp5743
asS'4479482872.jpg'
p5744
(lp5745
(S'body of water'
p5746
S'What type of body of water is present in the image ?'
p5747
tp5748
a(S'geological formation'
p5749
S'Select the geological formation represented by the image ?'
p5750
tp5751
asS'4021561862.jpg'
p5752
(lp5753
(S'diversion'
p5754
S'What type of diversion is present in the image ?'
p5755
tp5756
a(S'field game'
p5757
S'Select the field game represented by the image ?'
p5758
tp5759
asS'5706580028.jpg'
p5760
(lp5761
(S'conveyance'
p5762
S'What type of conveyance is present in the image ?'
p5763
tp5764
asS'3310551665.jpg'
p5765
(lp5766
(S'show'
p5767
S'What type of show is present in the image ?'
p5768
tp5769
a(S'creation'
p5770
S'Select the creation represented by the image ?'
p5771
tp5772
asS'4587901777.jpg'
p5773
(lp5774
(S'group'
p5775
S'What type of group is present in the image ?'
p5776
tp5777
asS'4935946626.jpg'
p5778
(lp5779
(S'conveyance'
p5780
S'What type of conveyance is present in the image ?'
p5781
tp5782
a(S'car'
p5783
S'Select the car represented by the image ?'
p5784
tp5785
asS'1400421768.jpg'
p5786
(lp5787
(S'causal agent'
p5788
S'What type of causal agent is present in the image ?'
p5789
tp5790
a(S'attire'
p5791
S'Select the attire represented by the image ?'
p5792
tp5793
asS'92679312.jpg'
p5794
(lp5795
(S'causal agent'
p5796
S'What type of causal agent is present in the image ?'
p5797
tp5798
asS'4146533978.jpg'
p5799
(lp5800
(S'causal agent'
p5801
S'What type of causal agent is present in the image ?'
p5802
tp5803
a(S'juvenile'
p5804
S'Select the juvenile represented by the image ?'
p5805
tp5806
asS'3542341321.jpg'
p5807
(lp5808
(S'animal'
p5809
S'What type of animal is present in the image ?'
p5810
tp5811
a(S'canine'
p5812
S'Select the canine represented by the image ?'
p5813
tp5814
asS'4869047676.jpg'
p5815
(lp5816
(S'atmospheric phenomenon'
p5817
S'What type of atmospheric phenomenon is present in the image ?'
p5818
tp5819
a(S'precipitation'
p5820
S'Select the precipitation represented by the image ?'
p5821
tp5822
asS'7184992060.jpg'
p5823
(lp5824
(S'completion'
p5825
S'What type of completion is present in the image ?'
p5826
tp5827
a(S'psychological feature'
p5828
S'Select the psychological feature represented by the image ?'
p5829
tp5830
asS'3456579559.jpg'
p5831
(lp5832
(S'animal'
p5833
S'What type of animal is present in the image ?'
p5834
tp5835
a(S'formation'
p5836
S'Select the formation represented by the image ?'
p5837
tp5838
asS'3212671393.jpg'
p5839
(lp5840
(S'water travel'
p5841
S'What type of water travel is present in the image ?'
p5842
tp5843
a(S'conveyance'
p5844
S'Select the conveyance represented by the image ?'
p5845
tp5846
asS'4659955938.jpg'
p5847
(lp5848
(S'causal agent'
p5849
S'What type of causal agent is present in the image ?'
p5850
tp5851
a(S'diversion'
p5852
S'Select the diversion represented by the image ?'
p5853
tp5854
asS'535529555.jpg'
p5855
(lp5856
(S'organism'
p5857
S'What type of organism is present in the image ?'
p5858
tp5859
a(S'vertebrate'
p5860
S'Select the vertebrate represented by the image ?'
p5861
tp5862
asS'2587202919.jpg'
p5863
(lp5864
(S'trouser'
p5865
S'What type of trouser is present in the image ?'
p5866
tp5867
a(S'group'
p5868
S'Select the group represented by the image ?'
p5869
tp5870
asS'3055084591.jpg'
p5871
(lp5872
(S'dirtiness'
p5873
S'What type of dirtiness is present in the image ?'
p5874
tp5875
a(S'field'
p5876
S'Select the field represented by the image ?'
p5877
tp5878
asS'1044764620.jpg'
p5879
(lp5880
(S'artifact'
p5881
S'What type of artifact is present in the image ?'
p5882
tp5883
a(S'upper surface'
p5884
S'Select the upper surface represented by the image ?'
p5885
tp5886
asS'3175887061.jpg'
p5887
(lp5888
(S'nutriment'
p5889
S'What type of nutriment is present in the image ?'
p5890
tp5891
a(S'optical instrument'
p5892
S'Select the optical instrument represented by the image ?'
p5893
tp5894
asS'522700240.jpg'
p5895
(lp5896
(S'causal agent'
p5897
S'What type of causal agent is present in the image ?'
p5898
tp5899
a(S'animal'
p5900
S'Select the animal represented by the image ?'
p5901
tp5902
asS'325487789.jpg'
p5903
(lp5904
(S'yard'
p5905
S'What type of yard is present in the image ?'
p5906
tp5907
a(S'dramatic composition'
p5908
S'Select the dramatic composition represented by the image ?'
p5909
tp5910
asS'3182509825.jpg'
p5911
(lp5912
(S'leisure'
p5913
S'What type of leisure is present in the image ?'
p5914
tp5915
a(S'visual property'
p5916
S'Select the visual property represented by the image ?'
p5917
tp5918
asS'440481388.jpg'
p5919
(lp5920
(S'dramatic composition'
p5921
S'What type of dramatic composition is present in the image ?'
p5922
tp5923
a(S'juvenile'
p5924
S'Select the juvenile represented by the image ?'
p5925
tp5926
asS'5275330163.jpg'
p5927
(lp5928
(S'digit'
p5929
S'What type of digit is present in the image ?'
p5930
tp5931
a(S'articulator'
p5932
S'Select the articulator represented by the image ?'
p5933
tp5934
asS'3249624518.jpg'
p5935
(lp5936
(S'juvenile'
p5937
S'What type of juvenile is present in the image ?'
p5938
tp5939
a(S'causal agent'
p5940
S'Select the causal agent represented by the image ?'
p5941
tp5942
asS'7024549383.jpg'
p5943
(lp5944
(S'performer'
p5945
S'What type of performer is present in the image ?'
p5946
tp5947
asS'2723220367.jpg'
p5948
(lp5949
(S'sculpture'
p5950
S'What type of sculpture is present in the image ?'
p5951
tp5952
a(S'creation'
p5953
S'Select the creation represented by the image ?'
p5954
tp5955
asS'4981855124.jpg'
p5956
(lp5957
(S'artifact'
p5958
S'What type of artifact is present in the image ?'
p5959
tp5960
a(S'plant material'
p5961
S'Select the plant material represented by the image ?'
p5962
tp5963
asS'226481576.jpg'
p5964
(lp5965
(S'consumer goods'
p5966
S'What type of consumer goods is present in the image ?'
p5967
tp5968
a(S'causal agent'
p5969
S'Select the causal agent represented by the image ?'
p5970
tp5971
asS'1355833561.jpg'
p5972
(lp5973
(S'body of water'
p5974
S'What type of body of water is present in the image ?'
p5975
tp5976
a(S'animal'
p5977
S'Select the animal represented by the image ?'
p5978
tp5979
asS'5361551308.jpg'
p5980
(lp5981
(S'outdoor sport'
p5982
S'What type of outdoor sport is present in the image ?'
p5983
tp5984
a(S'creation'
p5985
S'Select the creation represented by the image ?'
p5986
tp5987
asS'249394748.jpg'
p5988
(lp5989
(S'animal'
p5990
S'What type of animal is present in the image ?'
p5991
tp5992
a(S'canine'
p5993
S'Select the canine represented by the image ?'
p5994
tp5995
asS'2663736862.jpg'
p5996
(lp5997
(S'conveyance'
p5998
S'What type of conveyance is present in the image ?'
p5999
tp6000
a(S'unit'
p6001
S'Select the unit represented by the image ?'
p6002
tp6003
asS'204886976.jpg'
p6004
(lp6005
(S'municipality'
p6006
S'What type of municipality is present in the image ?'
p6007
tp6008
a(S'way'
p6009
S'Select the way represented by the image ?'
p6010
tp6011
asS'2445442929.jpg'
p6012
(lp6013
(S'graphic art'
p6014
S'What type of graphic art is present in the image ?'
p6015
tp6016
a(S'representation'
p6017
S'Select the representation represented by the image ?'
p6018
tp6019
asS'4946877047.jpg'
p6020
(lp6021
(S'water travel'
p6022
S'What type of water travel is present in the image ?'
p6023
tp6024
a(S'body of water'
p6025
S'Select the body of water represented by the image ?'
p6026
tp6027
asS'2424111022.jpg'
p6028
(lp6029
(S'disfavor'
p6030
S'What type of disfavor is present in the image ?'
p6031
tp6032
a(S'vegetation'
p6033
S'Select the vegetation represented by the image ?'
p6034
tp6035
asS'3486340101.jpg'
p6036
(lp6037
(S'diversion'
p6038
S'What type of diversion is present in the image ?'
p6039
tp6040
a(S'mobilization'
p6041
S'Select the mobilization represented by the image ?'
p6042
tp6043
asS'2148695079.jpg'
p6044
(lp6045
(S'carnivore'
p6046
S'What type of carnivore is present in the image ?'
p6047
tp6048
a(S'vertebrate'
p6049
S'Select the vertebrate represented by the image ?'
p6050
tp6051
asS'6915121934.jpg'
p6052
(lp6053
(S'diversion'
p6054
S'What type of diversion is present in the image ?'
p6055
tp6056
a(S'contestant'
p6057
S'Select the contestant represented by the image ?'
p6058
tp6059
asS'2267682214.jpg'
p6060
(lp6061
(S'animal'
p6062
S'What type of animal is present in the image ?'
p6063
tp6064
a(S'canine'
p6065
S'Select the canine represented by the image ?'
p6066
tp6067
asS'1318903794.jpg'
p6068
(lp6069
(S'group'
p6070
S'What type of group is present in the image ?'
p6071
tp6072
asS'7867736186.jpg'
p6073
(lp6074
(S'contestant'
p6075
S'What type of contestant is present in the image ?'
p6076
tp6077
a(S'lineman'
p6078
S'Select the lineman represented by the image ?'
p6079
tp6080
asS'3166969425.jpg'
p6081
(lp6082
(S'precipitation'
p6083
S'What type of precipitation is present in the image ?'
p6084
tp6085
a(S'season'
p6086
S'Select the season represented by the image ?'
p6087
tp6088
asS'2940974439.jpg'
p6089
(lp6090
(S'juvenile'
p6091
S'What type of juvenile is present in the image ?'
p6092
tp6093
a(S'group'
p6094
S'Select the group represented by the image ?'
p6095
tp6096
asS'4264701235.jpg'
p6097
(lp6098
(S'way'
p6099
S'What type of way is present in the image ?'
p6100
tp6101
a(S'thoroughfare'
p6102
S'Select the thoroughfare represented by the image ?'
p6103
tp6104
asS'4297543039.jpg'
p6105
(lp6106
(S'portable computer'
p6107
S'What type of portable computer is present in the image ?'
p6108
tp6109
a(S'verbal creation'
p6110
S'Select the verbal creation represented by the image ?'
p6111
tp6112
asS'535399240.jpg'
p6113
(lp6114
(S'leisure'
p6115
S'What type of leisure is present in the image ?'
p6116
tp6117
a(S'tract'
p6118
S'Select the tract represented by the image ?'
p6119
tp6120
asS'5057044059.jpg'
p6121
(lp6122
(S'vacation'
p6123
S'What type of vacation is present in the image ?'
p6124
tp6125
a(S'linear unit'
p6126
S'Select the linear unit represented by the image ?'
p6127
tp6128
asS'3204734746.jpg'
p6129
(lp6130
(S'chromatic color'
p6131
S'What type of chromatic color is present in the image ?'
p6132
tp6133
a(S'adult'
p6134
S'Select the adult represented by the image ?'
p6135
tp6136
asS'2647062476.jpg'
p6137
(lp6138
(S'contestant'
p6139
S'What type of contestant is present in the image ?'
p6140
tp6141
a(S'diversion'
p6142
S'Select the diversion represented by the image ?'
p6143
tp6144
asS'7234519202.jpg'
p6145
(lp6146
(S'diversion'
p6147
S'What type of diversion is present in the image ?'
p6148
tp6149
a(S'causal agent'
p6150
S'Select the causal agent represented by the image ?'
p6151
tp6152
asS'2527713011.jpg'
p6153
(lp6154
(S'diversion'
p6155
S'What type of diversion is present in the image ?'
p6156
tp6157
a(S'sport'
p6158
S'Select the sport represented by the image ?'
p6159
tp6160
asS'2428094795.jpg'
p6161
(lp6162
(S'conveyance'
p6163
S'What type of conveyance is present in the image ?'
p6164
tp6165
a(S'motor vehicle'
p6166
S'Select the motor vehicle represented by the image ?'
p6167
tp6168
asS'1570065565.jpg'
p6169
(lp6170
(S'nutriment'
p6171
S'What type of nutriment is present in the image ?'
p6172
tp6173
a(S'building'
p6174
S'Select the building represented by the image ?'
p6175
tp6176
asS'1302657647.jpg'
p6177
(lp6178
(S'plastic art'
p6179
S'What type of plastic art is present in the image ?'
p6180
tp6181
a(S'animal'
p6182
S'Select the animal represented by the image ?'
p6183
tp6184
asS'2284231661.jpg'
p6185
(lp6186
(S'education'
p6187
S'What type of education is present in the image ?'
p6188
tp6189
asS'4927987115.jpg'
p6190
(lp6191
(S'free-reed instrument'
p6192
S'What type of free-reed instrument is present in the image ?'
p6193
tp6194
asS'4804591106.jpg'
p6195
(lp6196
(S'consumer goods'
p6197
S'What type of consumer goods is present in the image ?'
p6198
tp6199
a(S'chromatic color'
p6200
S'Select the chromatic color represented by the image ?'
p6201
tp6202
asS'288192537.jpg'
p6203
(lp6204
(S'show'
p6205
S'What type of show is present in the image ?'
p6206
tp6207
a(S'creation'
p6208
S'Select the creation represented by the image ?'
p6209
tp6210
asS'2881087519.jpg'
p6211
(lp6212
(S'wheeled vehicle'
p6213
S'What type of wheeled vehicle is present in the image ?'
p6214
tp6215
a(S'diversion'
p6216
S'Select the diversion represented by the image ?'
p6217
tp6218
asS'4004035933.jpg'
p6219
(lp6220
(S'unit'
p6221
S'What type of unit is present in the image ?'
p6222
tp6223
a(S'conveyance'
p6224
S'Select the conveyance represented by the image ?'
p6225
tp6226
asS'118771635.jpg'
p6227
(lp6228
(S'musician'
p6229
S'What type of musician is present in the image ?'
p6230
tp6231
a(S'performer'
p6232
S'Select the performer represented by the image ?'
p6233
tp6234
asS'4781889179.jpg'
p6235
(lp6236
(S'time period'
p6237
S'What type of time period is present in the image ?'
p6238
tp6239
a(S'gathering'
p6240
S'Select the gathering represented by the image ?'
p6241
tp6242
asS'3060519665.jpg'
p6243
(lp6244
(S'juvenile'
p6245
S'What type of juvenile is present in the image ?'
p6246
tp6247
asS'3726590391.jpg'
p6248
(lp6249
(S'causal agent'
p6250
S'What type of causal agent is present in the image ?'
p6251
tp6252
a(S'representation'
p6253
S'Select the representation represented by the image ?'
p6254
tp6255
asS'4613887642.jpg'
p6256
(lp6257
(S'consumer goods'
p6258
S'What type of consumer goods is present in the image ?'
p6259
tp6260
a(S'representation'
p6261
S'Select the representation represented by the image ?'
p6262
tp6263
asS'3377570617.jpg'
p6264
(lp6265
(S'group'
p6266
S'What type of group is present in the image ?'
p6267
tp6268
asS'3820940921.jpg'
p6269
(lp6270
(S'art'
p6271
S'What type of art is present in the image ?'
p6272
tp6273
a(S'diversion'
p6274
S'Select the diversion represented by the image ?'
p6275
tp6276
asS'426920445.jpg'
p6277
(lp6278
(S'animal'
p6279
S'What type of animal is present in the image ?'
p6280
tp6281
a(S'canine'
p6282
S'Select the canine represented by the image ?'
p6283
tp6284
asS'3349258288.jpg'
p6285
(lp6286
(S'diversion'
p6287
S'What type of diversion is present in the image ?'
p6288
tp6289
a(S'board'
p6290
S'Select the board represented by the image ?'
p6291
tp6292
asS'3002092962.jpg'
p6293
(lp6294
(S'causal agent'
p6295
S'What type of causal agent is present in the image ?'
p6296
tp6297
a(S'container'
p6298
S'Select the container represented by the image ?'
p6299
tp6300
asS'4611354093.jpg'
p6301
(lp6302
(S'causal agent'
p6303
S'What type of causal agent is present in the image ?'
p6304
tp6305
a(S'clothing'
p6306
S'Select the clothing represented by the image ?'
p6307
tp6308
asS'2698457631.jpg'
p6309
(lp6310
(S'undertaking'
p6311
S'What type of undertaking is present in the image ?'
p6312
tp6313
a(S'body of water'
p6314
S'Select the body of water represented by the image ?'
p6315
tp6316
asS'4485475920.jpg'
p6317
(lp6318
(S'causal agent'
p6319
S'What type of causal agent is present in the image ?'
p6320
tp6321
a(S'traveler'
p6322
S'Select the traveler represented by the image ?'
p6323
tp6324
asS'4966812836.jpg'
p6325
(lp6326
(S'building'
p6327
S'What type of building is present in the image ?'
p6328
tp6329
asS'2843524276.jpg'
p6330
(lp6331
(S'float'
p6332
S'What type of float is present in the image ?'
p6333
tp6334
asS'3174771296.jpg'
p6335
(lp6336
(S'body of water'
p6337
S'What type of body of water is present in the image ?'
p6338
tp6339
a(S'conveyance'
p6340
S'Select the conveyance represented by the image ?'
p6341
tp6342
asS'4551202777.jpg'
p6343
(lp6344
(S'container'
p6345
S'What type of container is present in the image ?'
p6346
tp6347
a(S'substance'
p6348
S'Select the substance represented by the image ?'
p6349
tp6350
asS'3960632488.jpg'
p6351
(lp6352
(S'chromatic color'
p6353
S'What type of chromatic color is present in the image ?'
p6354
tp6355
a(S'conveyance'
p6356
S'Select the conveyance represented by the image ?'
p6357
tp6358
asS'543797471.jpg'
p6359
(lp6360
(S'instrumentality'
p6361
S'What type of instrumentality is present in the image ?'
p6362
tp6363
a(S'conveyance'
p6364
S'Select the conveyance represented by the image ?'
p6365
tp6366
asS'4834101921.jpg'
p6367
(lp6368
(S'time period'
p6369
S'What type of time period is present in the image ?'
p6370
tp6371
a(S'illumination'
p6372
S'Select the illumination represented by the image ?'
p6373
tp6374
asS'3634400263.jpg'
p6375
(lp6376
(S'wheeled vehicle'
p6377
S'What type of wheeled vehicle is present in the image ?'
p6378
tp6379
a(S'sport'
p6380
S'Select the sport represented by the image ?'
p6381
tp6382
asS'1453366750.jpg'
p6383
(lp6384
(S'chromatic color'
p6385
S'What type of chromatic color is present in the image ?'
p6386
tp6387
a(S'causal agent'
p6388
S'Select the causal agent represented by the image ?'
p6389
tp6390
asS'888425986.jpg'
p6391
(lp6392
(S'sculpture'
p6393
S'What type of sculpture is present in the image ?'
p6394
tp6395
a(S'diversion'
p6396
S'Select the diversion represented by the image ?'
p6397
tp6398
asS'4980042533.jpg'
p6399
(lp6400
(S'chromatic color'
p6401
S'What type of chromatic color is present in the image ?'
p6402
tp6403
a(S'time period'
p6404
S'Select the time period represented by the image ?'
p6405
tp6406
asS'7754645524.jpg'
p6407
(lp6408
(S'group'
p6409
S'What type of group is present in the image ?'
p6410
tp6411
a(S'time period'
p6412
S'Select the time period represented by the image ?'
p6413
tp6414
asS'4813123584.jpg'
p6415
(lp6416
(S'physical phenomenon'
p6417
S'What type of physical phenomenon is present in the image ?'
p6418
tp6419
a(S'structure'
p6420
S'Select the structure represented by the image ?'
p6421
tp6422
asS'4735943244.jpg'
p6423
(lp6424
(S'chromatic color'
p6425
S'What type of chromatic color is present in the image ?'
p6426
tp6427
a(S'way'
p6428
S'Select the way represented by the image ?'
p6429
tp6430
asS'4916469066.jpg'
p6431
(lp6432
(S'diversion'
p6433
S'What type of diversion is present in the image ?'
p6434
tp6435
a(S'creation'
p6436
S'Select the creation represented by the image ?'
p6437
tp6438
asS'7936399880.jpg'
p6439
(lp6440
(S'show'
p6441
S'What type of show is present in the image ?'
p6442
tp6443
a(S'diversion'
p6444
S'Select the diversion represented by the image ?'
p6445
tp6446
asS'6212107040.jpg'
p6447
(lp6448
(S'contestant'
p6449
S'What type of contestant is present in the image ?'
p6450
tp6451
a(S'diversion'
p6452
S'Select the diversion represented by the image ?'
p6453
tp6454
asS'4365035558.jpg'
p6455
(lp6456
(S'leisure'
p6457
S'What type of leisure is present in the image ?'
p6458
tp6459
a(S'chromatic color'
p6460
S'Select the chromatic color represented by the image ?'
p6461
tp6462
asS'1281282435.jpg'
p6463
(lp6464
(S'body of water'
p6465
S'What type of body of water is present in the image ?'
p6466
tp6467
a(S'leisure'
p6468
S'Select the leisure represented by the image ?'
p6469
tp6470
asS'2572810231.jpg'
p6471
(lp6472
(S'group'
p6473
S'What type of group is present in the image ?'
p6474
tp6475
asS'4939706481.jpg'
p6476
(lp6477
(S'causal agent'
p6478
S'What type of causal agent is present in the image ?'
p6479
tp6480
a(S'device'
p6481
S'Select the device represented by the image ?'
p6482
tp6483
asS'3202362346.jpg'
p6484
(lp6485
(S'consumer goods'
p6486
S'What type of consumer goods is present in the image ?'
p6487
tp6488
a(S'causal agent'
p6489
S'Select the causal agent represented by the image ?'
p6490
tp6491
asS'381275595.jpg'
p6492
(lp6493
(S'animal'
p6494
S'What type of animal is present in the image ?'
p6495
tp6496
a(S'canine'
p6497
S'Select the canine represented by the image ?'
p6498
tp6499
asS'4647706823.jpg'
p6500
(lp6501
(S'group'
p6502
S'What type of group is present in the image ?'
p6503
tp6504
a(S'solid'
p6505
S'Select the solid represented by the image ?'
p6506
tp6507
asS'5522177900.jpg'
p6508
(lp6509
(S'horseman'
p6510
S'What type of horseman is present in the image ?'
p6511
tp6512
a(S'sport'
p6513
S'Select the sport represented by the image ?'
p6514
tp6515
asS'1021332107.jpg'
p6516
(lp6517
(S'furnishing'
p6518
S'What type of furnishing is present in the image ?'
p6519
tp6520
a(S'seat'
p6521
S'Select the seat represented by the image ?'
p6522
tp6523
asS'397014085.jpg'
p6524
(lp6525
(S'animal'
p6526
S'What type of animal is present in the image ?'
p6527
tp6528
asS'637457347.jpg'
p6529
(lp6530
(S'causal agent'
p6531
S'What type of causal agent is present in the image ?'
p6532
tp6533
a(S'place of worship'
p6534
S'Select the place of worship represented by the image ?'
p6535
tp6536
asS'3857131306.jpg'
p6537
(lp6538
(S'causal agent'
p6539
S'What type of causal agent is present in the image ?'
p6540
tp6541
a(S'animal'
p6542
S'Select the animal represented by the image ?'
p6543
tp6544
asS'6926577156.jpg'
p6545
(lp6546
(S'court game'
p6547
S'What type of court game is present in the image ?'
p6548
tp6549
a(S'diversion'
p6550
S'Select the diversion represented by the image ?'
p6551
tp6552
asS'1474240647.jpg'
p6553
(lp6554
(S'collection'
p6555
S'What type of collection is present in the image ?'
p6556
tp6557
a(S'way'
p6558
S'Select the way represented by the image ?'
p6559
tp6560
asS'4830850965.jpg'
p6561
(lp6562
(S'group'
p6563
S'What type of group is present in the image ?'
p6564
tp6565
a(S'affair'
p6566
S'Select the affair represented by the image ?'
p6567
tp6568
asS'7874684438.jpg'
p6569
(lp6570
(S'leisure'
p6571
S'What type of leisure is present in the image ?'
p6572
tp6573
a(S'geological formation'
p6574
S'Select the geological formation represented by the image ?'
p6575
tp6576
asS'3367204560.jpg'
p6577
(lp6578
(S'diversion'
p6579
S'What type of diversion is present in the image ?'
p6580
tp6581
a(S'ball game'
p6582
S'Select the ball game represented by the image ?'
p6583
tp6584
asS'3340857141.jpg'
p6585
(lp6586
(S'vertebrate'
p6587
S'What type of vertebrate is present in the image ?'
p6588
tp6589
a(S'organism'
p6590
S'Select the organism represented by the image ?'
p6591
tp6592
asS'4880152580.jpg'
p6593
(lp6594
(S'way'
p6595
S'What type of way is present in the image ?'
p6596
tp6597
a(S'thoroughfare'
p6598
S'Select the thoroughfare represented by the image ?'
p6599
tp6600
asS'2454189540.jpg'
p6601
(lp6602
(S'consumer goods'
p6603
S'What type of consumer goods is present in the image ?'
p6604
tp6605
a(S'chromatic color'
p6606
S'Select the chromatic color represented by the image ?'
p6607
tp6608
asS'217583047.jpg'
p6609
(lp6610
(S'binary compound'
p6611
S'What type of binary compound is present in the image ?'
p6612
tp6613
a(S'water travel'
p6614
S'Select the water travel represented by the image ?'
p6615
tp6616
asS'11079715.jpg'
p6617
(lp6618
(S'chromatic color'
p6619
S'What type of chromatic color is present in the image ?'
p6620
tp6621
a(S'creation'
p6622
S'Select the creation represented by the image ?'
p6623
tp6624
asS'44341044.jpg'
p6625
(lp6626
(S'group'
p6627
S'What type of group is present in the image ?'
p6628
tp6629
asS'7735129098.jpg'
p6630
(lp6631
(S'body of water'
p6632
S'What type of body of water is present in the image ?'
p6633
tp6634
a(S'geological formation'
p6635
S'Select the geological formation represented by the image ?'
p6636
tp6637
asS'4459462025.jpg'
p6638
(lp6639
(S'chromatic color'
p6640
S'What type of chromatic color is present in the image ?'
p6641
tp6642
a(S'way'
p6643
S'Select the way represented by the image ?'
p6644
tp6645
asS'4959266823.jpg'
p6646
(lp6647
(S'chromatic color'
p6648
S'What type of chromatic color is present in the image ?'
p6649
tp6650
a(S'creation'
p6651
S'Select the creation represented by the image ?'
p6652
tp6653
asS'5346389945.jpg'
p6654
(lp6655
(S'undertaking'
p6656
S'What type of undertaking is present in the image ?'
p6657
tp6658
a(S'rise'
p6659
S'Select the rise represented by the image ?'
p6660
tp6661
asS'542405691.jpg'
p6662
(lp6663
(S'dramatic composition'
p6664
S'What type of dramatic composition is present in the image ?'
p6665
tp6666
a(S'artifact'
p6667
S'Select the artifact represented by the image ?'
p6668
tp6669
asS'3679187018.jpg'
p6670
(lp6671
(S'causal agent'
p6672
S'What type of causal agent is present in the image ?'
p6673
tp6674
a(S'animal'
p6675
S'Select the animal represented by the image ?'
p6676
tp6677
asS'3621972977.jpg'
p6678
(lp6679
(S'way'
p6680
S'What type of way is present in the image ?'
p6681
tp6682
a(S'thoroughfare'
p6683
S'Select the thoroughfare represented by the image ?'
p6684
tp6685
asS'3436395540.jpg'
p6686
(lp6687
(S'animal'
p6688
S'What type of animal is present in the image ?'
p6689
tp6690
a(S'organism'
p6691
S'Select the organism represented by the image ?'
p6692
tp6693
asS'2201202388.jpg'
p6694
(lp6695
(S'creation'
p6696
S'What type of creation is present in the image ?'
p6697
tp6698
a(S'actinic radiation'
p6699
S'Select the actinic radiation represented by the image ?'
p6700
tp6701
asS'484500945.jpg'
p6702
(lp6703
(S'causal agent'
p6704
S'What type of causal agent is present in the image ?'
p6705
tp6706
a(S'juvenile'
p6707
S'Select the juvenile represented by the image ?'
p6708
tp6709
asS'3576060775.jpg'
p6710
(lp6711
(S'binary compound'
p6712
S'What type of binary compound is present in the image ?'
p6713
tp6714
a(S'life'
p6715
S'Select the life represented by the image ?'
p6716
tp6717
asS'129981966.jpg'
p6718
(lp6719
(S'chromatic color'
p6720
S'What type of chromatic color is present in the image ?'
p6721
tp6722
a(S'building complex'
p6723
S'Select the building complex represented by the image ?'
p6724
tp6725
asS'603452271.jpg'
p6726
(lp6727
(S'causal agent'
p6728
S'What type of causal agent is present in the image ?'
p6729
tp6730
a(S'chromatic color'
p6731
S'Select the chromatic color represented by the image ?'
p6732
tp6733
asS'2471525587.jpg'
p6734
(lp6735
(S'yard'
p6736
S'What type of yard is present in the image ?'
p6737
tp6738
a(S'leisure'
p6739
S'Select the leisure represented by the image ?'
p6740
tp6741
asS'2398918048.jpg'
p6742
(lp6743
(S'sport'
p6744
S'What type of sport is present in the image ?'
p6745
tp6746
a(S'time period'
p6747
S'Select the time period represented by the image ?'
p6748
tp6749
asS'5941772805.jpg'
p6750
(lp6751
(S'diversion'
p6752
S'What type of diversion is present in the image ?'
p6753
tp6754
a(S'ball game'
p6755
S'Select the ball game represented by the image ?'
p6756
tp6757
asS'817654759.jpg'
p6758
(lp6759
(S'causal agent'
p6760
S'What type of causal agent is present in the image ?'
p6761
tp6762
a(S'diversion'
p6763
S'Select the diversion represented by the image ?'
p6764
tp6765
asS'342289865.jpg'
p6766
(lp6767
(S'causal agent'
p6768
S'What type of causal agent is present in the image ?'
p6769
tp6770
a(S'group'
p6771
S'Select the group represented by the image ?'
p6772
tp6773
asS'3555231025.jpg'
p6774
(lp6775
(S'chromatic color'
p6776
S'What type of chromatic color is present in the image ?'
p6777
tp6778
a(S'causal agent'
p6779
S'Select the causal agent represented by the image ?'
p6780
tp6781
asS'80282277.jpg'
p6782
(lp6783
(S'hotel'
p6784
S'What type of hotel is present in the image ?'
p6785
tp6786
a(S'tract'
p6787
S'Select the tract represented by the image ?'
p6788
tp6789
asS'3528902357.jpg'
p6790
(lp6791
(S'diversion'
p6792
S'What type of diversion is present in the image ?'
p6793
tp6794
a(S'horizontal surface'
p6795
S'Select the horizontal surface represented by the image ?'
p6796
tp6797
asS'1191939974.jpg'
p6798
(lp6799
(S'commercial enterprise'
p6800
S'What type of commercial enterprise is present in the image ?'
p6801
tp6802
asS'125382282.jpg'
p6803
(lp6804
(S'conveyance'
p6805
S'What type of conveyance is present in the image ?'
p6806
tp6807
a(S'motor vehicle'
p6808
S'Select the motor vehicle represented by the image ?'
p6809
tp6810
asS'3138954134.jpg'
p6811
(lp6812
(S'attire'
p6813
S'What type of attire is present in the image ?'
p6814
tp6815
a(S'time period'
p6816
S'Select the time period represented by the image ?'
p6817
tp6818
asS'2515247156.jpg'
p6819
(lp6820
(S'conveyance'
p6821
S'What type of conveyance is present in the image ?'
p6822
tp6823
a(S'formation'
p6824
S'Select the formation represented by the image ?'
p6825
tp6826
asS'228866972.jpg'
p6827
(lp6828
(S'horizontal surface'
p6829
S'What type of horizontal surface is present in the image ?'
p6830
tp6831
a(S'horizontal surface'
p6832
S'Select the horizontal surface represented by the image ?'
p6833
tp6834
asS'3548419843.jpg'
p6835
(lp6836
(S'diversion'
p6837
S'What type of diversion is present in the image ?'
p6838
tp6839
a(S'locomotion'
p6840
S'Select the locomotion represented by the image ?'
p6841
tp6842
asS'654130822.jpg'
p6843
(lp6844
(S'consumer goods'
p6845
S'What type of consumer goods is present in the image ?'
p6846
tp6847
a(S'limb'
p6848
S'Select the limb represented by the image ?'
p6849
tp6850
asS'2950393735.jpg'
p6851
(lp6852
(S'causal agent'
p6853
S'What type of causal agent is present in the image ?'
p6854
tp6855
a(S'adult'
p6856
S'Select the adult represented by the image ?'
p6857
tp6858
asS'7493784578.jpg'
p6859
(lp6860
(S'enterprise'
p6861
S'What type of enterprise is present in the image ?'
p6862
tp6863
asS'3812972187.jpg'
p6864
(lp6865
(S'instrumentality'
p6866
S'What type of instrumentality is present in the image ?'
p6867
tp6868
a(S'painting'
p6869
S'Select the painting represented by the image ?'
p6870
tp6871
asS'483039719.jpg'
p6872
(lp6873
(S'gathering'
p6874
S'What type of gathering is present in the image ?'
p6875
tp6876
a(S'causal agent'
p6877
S'Select the causal agent represented by the image ?'
p6878
tp6879
asS'2858439751.jpg'
p6880
(lp6881
(S'diversion'
p6882
S'What type of diversion is present in the image ?'
p6883
tp6884
a(S'sport'
p6885
S'Select the sport represented by the image ?'
p6886
tp6887
asS'3533470072.jpg'
p6888
(lp6889
(S'body covering'
p6890
S'What type of body covering is present in the image ?'
p6891
tp6892
a(S'hair'
p6893
S'Select the hair represented by the image ?'
p6894
tp6895
asS'3008686435.jpg'
p6896
(lp6897
(S'tract'
p6898
S'What type of tract is present in the image ?'
p6899
tp6900
a(S'building complex'
p6901
S'Select the building complex represented by the image ?'
p6902
tp6903
asS'3183777589.jpg'
p6904
(lp6905
(S'animal'
p6906
S'What type of animal is present in the image ?'
p6907
tp6908
a(S'canine'
p6909
S'Select the canine represented by the image ?'
p6910
tp6911
asS'2750154354.jpg'
p6912
(lp6913
(S'chromatic color'
p6914
S'What type of chromatic color is present in the image ?'
p6915
tp6916
a(S'woody plant'
p6917
S'Select the woody plant represented by the image ?'
p6918
tp6919
asS'3496279461.jpg'
p6920
(lp6921
(S'chromatic color'
p6922
S'What type of chromatic color is present in the image ?'
p6923
tp6924
a(S'woody plant'
p6925
S'Select the woody plant represented by the image ?'
p6926
tp6927
asS'82676766.jpg'
p6928
(lp6929
(S'group'
p6930
S'What type of group is present in the image ?'
p6931
tp6932
asS'3031792444.jpg'
p6933
(lp6934
(S'creation'
p6935
S'What type of creation is present in the image ?'
p6936
tp6937
a(S'performer'
p6938
S'Select the performer represented by the image ?'
p6939
tp6940
asS'4276945993.jpg'
p6941
(lp6942
(S'musician'
p6943
S'What type of musician is present in the image ?'
p6944
tp6945
a(S'actinic radiation'
p6946
S'Select the actinic radiation represented by the image ?'
p6947
tp6948
asS'3903603264.jpg'
p6949
(lp6950
(S'performance'
p6951
S'What type of performance is present in the image ?'
p6952
tp6953
a(S'show'
p6954
S'Select the show represented by the image ?'
p6955
tp6956
asS'245358696.jpg'
p6957
(lp6958
(S'causal agent'
p6959
S'What type of causal agent is present in the image ?'
p6960
tp6961
a(S'occupational group'
p6962
S'Select the occupational group represented by the image ?'
p6963
tp6964
asS'4510135650.jpg'
p6965
(lp6966
(S'representation'
p6967
S'What type of representation is present in the image ?'
p6968
tp6969
a(S'way'
p6970
S'Select the way represented by the image ?'
p6971
tp6972
asS'4634063005.jpg'
p6973
(lp6974
(S'furnishing'
p6975
S'What type of furnishing is present in the image ?'
p6976
tp6977
asS'3826504213.jpg'
p6978
(lp6979
(S'life'
p6980
S'What type of life is present in the image ?'
p6981
tp6982
a(S'vertebrate'
p6983
S'Select the vertebrate represented by the image ?'
p6984
tp6985
asS'7117594795.jpg'
p6986
(lp6987
(S'diversion'
p6988
S'What type of diversion is present in the image ?'
p6989
tp6990
a(S'contestant'
p6991
S'Select the contestant represented by the image ?'
p6992
tp6993
asS'5954497151.jpg'
p6994
(lp6995
(S'dramatic composition'
p6996
S'What type of dramatic composition is present in the image ?'
p6997
tp6998
a(S'diversion'
p6999
S'Select the diversion represented by the image ?'
p7000
tp7001
asS'16151663.jpg'
p7002
(lp7003
(S'dramatic composition'
p7004
S'What type of dramatic composition is present in the image ?'
p7005
tp7006
asS'11245644.jpg'
p7007
(lp7008
(S'structure'
p7009
S'What type of structure is present in the image ?'
p7010
tp7011
a(S'structure'
p7012
S'Select the structure represented by the image ?'
p7013
tp7014
asS'2327088022.jpg'
p7015
(lp7016
(S'diversion'
p7017
S'What type of diversion is present in the image ?'
p7018
tp7019
a(S'rise'
p7020
S'Select the rise represented by the image ?'
p7021
tp7022
asS'2845919674.jpg'
p7023
(lp7024
(S'attire'
p7025
S'What type of attire is present in the image ?'
p7026
tp7027
a(S'time period'
p7028
S'Select the time period represented by the image ?'
p7029
tp7030
asS'374828031.jpg'
p7031
(lp7032
(S'diversion'
p7033
S'What type of diversion is present in the image ?'
p7034
tp7035
a(S'rise'
p7036
S'Select the rise represented by the image ?'
p7037
tp7038
asS'3968045166.jpg'
p7039
(lp7040
(S'water sport'
p7041
S'What type of water sport is present in the image ?'
p7042
tp7043
a(S'diversion'
p7044
S'Select the diversion represented by the image ?'
p7045
tp7046
asS'4438007869.jpg'
p7047
(lp7048
(S'conveyance'
p7049
S'What type of conveyance is present in the image ?'
p7050
tp7051
a(S'instrumentality'
p7052
S'Select the instrumentality represented by the image ?'
p7053
tp7054
asS'4449702874.jpg'
p7055
(lp7056
(S'dramatic composition'
p7057
S'What type of dramatic composition is present in the image ?'
p7058
tp7059
a(S'gramineous plant'
p7060
S'Select the gramineous plant represented by the image ?'
p7061
tp7062
asS'6897514777.jpg'
p7063
(lp7064
(S'conveyance'
p7065
S'What type of conveyance is present in the image ?'
p7066
tp7067
a(S'hose'
p7068
S'Select the hose represented by the image ?'
p7069
tp7070
asS'3604391853.jpg'
p7071
(lp7072
(S'causal agent'
p7073
S'What type of causal agent is present in the image ?'
p7074
tp7075
a(S'chromatic color'
p7076
S'Select the chromatic color represented by the image ?'
p7077
tp7078
asS'6846170910.jpg'
p7079
(lp7080
(S'precipitation'
p7081
S'What type of precipitation is present in the image ?'
p7082
tp7083
a(S'season'
p7084
S'Select the season represented by the image ?'
p7085
tp7086
asS'6195995631.jpg'
p7087
(lp7088
(S'diversion'
p7089
S'What type of diversion is present in the image ?'
p7090
tp7091
a(S'contestant'
p7092
S'Select the contestant represented by the image ?'
p7093
tp7094
asS'2473738924.jpg'
p7095
(lp7096
(S'diversion'
p7097
S'What type of diversion is present in the image ?'
p7098
tp7099
a(S'causal agent'
p7100
S'Select the causal agent represented by the image ?'
p7101
tp7102
asS'4940544962.jpg'
p7103
(lp7104
(S'way'
p7105
S'What type of way is present in the image ?'
p7106
tp7107
a(S'group'
p7108
S'Select the group represented by the image ?'
p7109
tp7110
asS'3284899112.jpg'
p7111
(lp7112
(S'enterprise'
p7113
S'What type of enterprise is present in the image ?'
p7114
tp7115
asS'1181708011.jpg'
p7116
(lp7117
(S'consumer goods'
p7118
S'What type of consumer goods is present in the image ?'
p7119
tp7120
a(S'spectacles'
p7121
S'Select the spectacles represented by the image ?'
p7122
tp7123
asS'157912479.jpg'
p7124
(lp7125
(S'nutriment'
p7126
S'What type of nutriment is present in the image ?'
p7127
tp7128
a(S'container'
p7129
S'Select the container represented by the image ?'
p7130
tp7131
asS'4901256030.jpg'
p7132
(lp7133
(S'plastic art'
p7134
S'What type of plastic art is present in the image ?'
p7135
tp7136
asS'331277641.jpg'
p7137
(lp7138
(S'sign'
p7139
S'What type of sign is present in the image ?'
p7140
tp7141
a(S'promotion'
p7142
S'Select the promotion represented by the image ?'
p7143
tp7144
asS'366567420.jpg'
p7145
(lp7146
(S'adult'
p7147
S'What type of adult is present in the image ?'
p7148
tp7149
a(S'animal'
p7150
S'Select the animal represented by the image ?'
p7151
tp7152
asS'2043989659.jpg'
p7153
(lp7154
(S'adult'
p7155
S'What type of adult is present in the image ?'
p7156
tp7157
a(S'diversion'
p7158
S'Select the diversion represented by the image ?'
p7159
tp7160
asS'745880539.jpg'
p7161
(lp7162
(S'animal'
p7163
S'What type of animal is present in the image ?'
p7164
tp7165
a(S'canine'
p7166
S'Select the canine represented by the image ?'
p7167
tp7168
asS'4857156237.jpg'
p7169
(lp7170
(S'way'
p7171
S'What type of way is present in the image ?'
p7172
tp7173
a(S'thoroughfare'
p7174
S'Select the thoroughfare represented by the image ?'
p7175
tp7176
asS'3026459445.jpg'
p7177
(lp7178
(S'causal agent'
p7179
S'What type of causal agent is present in the image ?'
p7180
tp7181
a(S'group'
p7182
S'Select the group represented by the image ?'
p7183
tp7184
asS'2539157885.jpg'
p7185
(lp7186
(S'causal agent'
p7187
S'What type of causal agent is present in the image ?'
p7188
tp7189
a(S'adult'
p7190
S'Select the adult represented by the image ?'
p7191
tp7192
asS'4861870951.jpg'
p7193
(lp7194
(S'conveyance'
p7195
S'What type of conveyance is present in the image ?'
p7196
tp7197
a(S'wheeled vehicle'
p7198
S'Select the wheeled vehicle represented by the image ?'
p7199
tp7200
asS'6998288112.jpg'
p7201
(lp7202
(S'causal agent'
p7203
S'What type of causal agent is present in the image ?'
p7204
tp7205
a(S'walk'
p7206
S'Select the walk represented by the image ?'
p7207
tp7208
as.