(lp0
(S'clothing'
p1
S'What is the person in the image wearing ?'
p2
S'striped polo shirt'
p3
I1
tp4
a(S'scene'
p5
S'What is the type of scene present in the image ?'
p6
S'seated position'
p7
I1
tp8
a(g5
S'Select the type of scene present in the image ?'
p9
S'motorcycle track'
p10
I1
tp11
a(S'other'
p12
S'Which of the following is present in the image ?'
p13
S'dumbbell'
p14
I1
tp15
a(g12
g13
S'several bags different sizes'
p16
I1
tp17
a(S'people'
p18
S'How many people are present in the image ?'
p19
S'five youngsters'
p20
I1
tp21
a(g12
g13
S'website'
p22
I1
tp23
a(g12
g13
S'recent weeks'
p24
I1
tp25
a(g12
g13
S'brown strap'
p26
I1
tp27
a(g12
g13
S'desk lamp'
p28
I1
tp29
a(g5
S'What is the type of scene present in the image ?'
p30
S'outdoor market'
p31
I1
tp32
a(g12
g13
S'television'
p33
I1
tp34
a(g12
g13
S'green barrier'
p35
I1
tp36
a(g12
g13
S'door'
p37
I1
tp38
a(g5
S'Select the type of scene present in the image ?'
p39
S'sewing factory'
p40
I1
tp41
a(g1
g2
S'long yellow jacket'
p42
I1
tp43
a(g12
g13
S'row yellow chairs'
p44
I1
tp45
a(g12
g13
S'walk'
p46
I1
tp47
a(g5
S'What is the type of scene present in the image ?'
p48
S'merchandise jewelry kiosk'
p49
I1
tp50
a(g12
g13
S'orange snow shovel'
p51
I1
tp52
a(g5
S'Select the type of scene present in the image ?'
p53
S'train track'
p54
I1
tp55
a(g1
g2
S'sports jacket'
p56
I1
tp57
a(g12
g13
S'groceries'
p58
I1
tp59
a(S'vehicles'
p60
S'Which type of vehicle(s) are present in the image ?'
p61
S'bike'
p62
I1
tp63
a(g1
g2
S'traditional finnish clothing'
p64
I1
tp65
a(g12
g13
S'canadian maple leaf'
p66
I1
tp67
a(g5
S'What is the type of scene present in the image ?'
p68
S'busy city'
p69
I1
tp70
a(g1
g2
S'blue sports clothes'
p71
I1
tp72
a(g12
g13
S'new york'
p73
I1
tp74
a(g12
g13
S'100 meter dash'
p75
I1
tp76
a(g12
g13
S'various figurines'
p77
I1
tp78
a(g12
g13
S'water noodle'
p79
I1
tp80
a(g1
g2
S'2 different socks'
p81
I1
tp82
a(g12
g13
S'charity'
p83
I1
tp84
a(g12
g13
S'buddhist hindu decorations'
p85
I1
tp86
a(g5
S'Select the type of scene present in the image ?'
p87
S'school hallway'
p88
I1
tp89
a(g12
g13
S'flyer'
p90
I1
tp91
a(g5
S'What is the type of scene present in the image ?'
p92
S'leafless forest'
p93
I1
tp94
a(g12
g13
S'large community mural'
p95
I1
tp96
a(g12
g13
S'look'
p97
I1
tp98
a(g12
g13
S'reaction'
p99
I1
tp100
a(g5
S'Select the type of scene present in the image ?'
p101
S'asian seafood market'
p102
I1
tp103
a(g5
S'What is the type of scene present in the image ?'
p104
S'damp city street'
p105
I1
tp106
a(g12
g13
S'jars goods'
p107
I1
tp108
a(g12
g13
S'black neon colors'
p109
I1
tp110
a(g12
g13
S'orange traffic cone'
p111
I1
tp112
a(g18
S'How many people are present in the image ?'
p113
S'three roommates'
p114
I1
tp115
a(g5
S'Select the type of scene present in the image ?'
p116
S'grim day'
p117
I1
tp118
a(g12
g13
S'laptop keyboard'
p119
I1
tp120
a(g5
S'What is the type of scene present in the image ?'
p121
S'middle mountains'
p122
I1
tp123
a(g12
g13
S'public square'
p124
I1
tp125
a(g1
g2
S'pair shorts'
p126
I1
tp127
a(g60
g61
S'window public transportation vehicle'
p128
I1
tp129
a(g5
S'Select the type of scene present in the image ?'
p130
S'view intersection'
p131
I1
tp132
a(g12
g13
S'two heavy bags ice'
p133
I1
tp134
a(g12
g13
S'blurred photograph'
p135
I1
tp136
a(g12
g13
S'area full boxes'
p137
I1
tp138
a(g60
g61
S'emergency vehicle'
p139
I1
tp140
a(g5
S'What is the type of scene present in the image ?'
p141
S'rodeo event'
p142
I1
tp143
a(g1
g2
S'white tote bag'
p144
I1
tp145
a(g12
g13
S'someone films'
p146
I1
tp147
a(g12
g13
S'rowboat'
p148
I1
tp149
a(g12
g13
S'white strip'
p150
I1
tp151
a(g12
g13
S'horrific artwork'
p152
I1
tp153
a(g12
g13
S'bike race'
p154
I1
tp155
a(g12
g13
S'dinosaur'
p156
I1
tp157
a(g12
g13
S'woman load'
p158
I1
tp159
a(g5
S'Select the type of scene present in the image ?'
p160
S'starting blocks'
p161
I1
tp162
a(g12
g13
S'burgundy'
p163
I1
tp164
a(g1
g2
S'ladies helmet'
p165
I1
tp166
a(g12
g13
S'white framed glass canopy'
p167
I1
tp168
a(g1
g2
S'different color clothing'
p169
I1
tp170
a(g12
g13
S'mountain bike spokes'
p171
I1
tp172
a(g1
g2
S'darth vader outfit'
p173
I1
tp174
a(g12
g13
S'checkerboard'
p175
I1
tp176
a(g12
g13
S'applauding'
p177
I1
tp178
a(g12
g13
S'barbecues'
p179
I1
tp180
a(g5
S'What is the type of scene present in the image ?'
p181
S'scarf pass'
p182
I1
tp183
a(g12
g13
S'goodies'
p184
I1
tp185
a(g1
g2
S'loincloth'
p186
I1
tp187
a(g5
S'Select the type of scene present in the image ?'
p188
S'bottom small waterfall'
p189
I1
tp190
a(g12
g13
S'jet'
p191
I1
tp192
a(g18
S'How many people are present in the image ?'
p193
S'two adolescent girls'
p194
I1
tp195
a(g12
g13
S'vegetables'
p196
I1
tp197
a(g1
g2
S'blue yarmulke'
p198
I1
tp199
a(g1
g2
S'dark colored clothing'
p200
I1
tp201
a(g18
S'How many people are present in the image ?'
p202
S'two older boy scouts'
p203
I1
tp204
a(g12
g13
S'trash receptacle'
p205
I1
tp206
a(g5
S'What is the type of scene present in the image ?'
p207
S'water flow'
p208
I1
tp209
a(g5
S'Select the type of scene present in the image ?'
p210
S'monkey bars'
p211
I1
tp212
a(g5
S'What is the type of scene present in the image ?'
p213
S'roundabout'
p214
I1
tp215
a(S'bodyparts'
p216
S'Select the type of bodyparts present in the image ?'
p217
S'boy heads'
p218
I1
tp219
a(g1
g2
S'blue white striped sweater'
p220
I1
tp221
a(g1
g2
S'two hats'
p222
I1
tp223
a(g12
g13
S'red long board'
p224
I1
tp225
a(g216
S'What is the type of bodyparts present in the image ?'
p226
S'leg'
p227
I1
tp228
a(g5
S'Select the type of scene present in the image ?'
p229
S'art museum'
p230
I1
tp231
a(g1
g2
S'blue brown shirt'
p232
I1
tp233
a(g5
S'What is the type of scene present in the image ?'
p234
S'ankle'
p235
I1
tp236
a(g12
g13
S'bright red stage lights'
p237
I1
tp238
a(g12
g13
S'one moves'
p239
I1
tp240
a(g18
S'How many people are present in the image ?'
p241
S'one cyclist'
p242
I1
tp243
a(g5
S'Select the type of scene present in the image ?'
p244
S'waterfront street'
p245
I1
tp246
a(g12
g13
S'yellow caution tape'
p247
I1
tp248
a(g12
g13
S'clothes rack'
p249
I1
tp250
a(g12
g13
S'processes'
p251
I1
tp252
a(g12
g13
S'red tomato'
p253
I1
tp254
a(g1
g2
S'black backwards baseball cap'
p255
I1
tp256
a(g5
S'What is the type of scene present in the image ?'
p257
S'convention center'
p258
I1
tp259
a(g1
g2
S'tan khaki shorts'
p260
I1
tp261
a(g18
S'How many people are present in the image ?'
p262
S'two asian chefs'
p263
I1
tp264
a(g5
S'Select the type of scene present in the image ?'
p265
S'busy asian street'
p266
I1
tp267
a(g5
S'What is the type of scene present in the image ?'
p268
S'small brook'
p269
I1
tp270
a(g12
g13
S'oriental style'
p271
I1
tp272
a(g1
g2
S'stylish clothes'
p273
I1
tp274
a(g12
g13
S'flags'
p275
I1
tp276
a(g5
S'Select the type of scene present in the image ?'
p277
S'another event'
p278
I1
tp279
a(g5
S'What is the type of scene present in the image ?'
p280
S'rogue waves'
p281
I1
tp282
a(g1
g2
S'orange'
p283
I1
tp284
a(g12
g13
S'orange roadwork sign'
p285
I1
tp286
a(g12
g13
S'christmas gifts'
p287
I1
tp288
a(g5
S'Select the type of scene present in the image ?'
p289
S'bright blue cloudy sky'
p290
I1
tp291
a(g12
g13
S'big toy'
p292
I1
tp293
a(g1
g2
S'short skirts'
p294
I1
tp295
a(g1
g2
S'black cowboy hat'
p296
I1
tp297
a(g1
g2
S'blue hairnets'
p298
I1
tp299
a(g12
g13
S'stair rail'
p300
I1
tp301
a(g12
g13
S'subway window'
p302
I1
tp303
a(g12
g13
S'black advertising banner'
p304
I1
tp305
a(g1
g2
S'tan sports jacket'
p306
I1
tp307
a(g12
g13
S'ou'
p308
I1
tp309
a(g12
g13
S'camouflage crawls'
p310
I1
tp311
a(g5
S'What is the type of scene present in the image ?'
p312
S'mouth open'
p313
I1
tp314
a(g12
g13
S'couch'
p315
I1
tp316
a(g5
S'Select the type of scene present in the image ?'
p317
S'steps large stone building'
p318
I1
tp319
a(g5
S'What is the type of scene present in the image ?'
p320
S'puppet shop'
p321
I1
tp322
a(g12
g13
S'child post'
p323
I1
tp324
a(g1
g2
S'yankees cap'
p325
I1
tp326
a(g12
g13
S'four wheeler'
p327
I1
tp328
a(g12
g13
S'shade canopy'
p329
I1
tp330
a(g1
g2
S'ken'
p331
I1
tp332
a(g12
g13
S'splits'
p333
I1
tp334
a(g60
g61
S'rapid transit'
p335
I1
tp336
a(g60
g61
S'toy trucks'
p337
I1
tp338
a(g18
S'How many people are present in the image ?'
p339
S'two kayakers'
p340
I1
tp341
a(g12
g13
S'boat race'
p342
I1
tp343
a(g18
S'How many people are present in the image ?'
p344
S'one person'
p345
I1
tp346
a(g12
g13
S'snowboard'
p347
I1
tp348
a(g5
S'Select the type of scene present in the image ?'
p349
S'crowded coffee shop'
p350
I1
tp351
a(g5
S'What is the type of scene present in the image ?'
p352
S'white seat'
p353
I1
tp354
a(g18
S'How many people are present in the image ?'
p355
S'two chefs'
p356
I1
tp357
a(g12
g13
S'french names'
p358
I1
tp359
a(g1
g2
S'green soccer outfit'
p360
I1
tp361
a(g12
g13
S'two displays'
p362
I1
tp363
a(g12
g13
S'push ups'
p364
I1
tp365
a(g1
g2
S'rugby uniform'
p366
I1
tp367
a(g12
g13
S'exercise pylons'
p368
I1
tp369
a(g5
S'Select the type of scene present in the image ?'
p370
S'rough waves'
p371
I1
tp372
a(g5
S'What is the type of scene present in the image ?'
p373
S'splashed water'
p374
I1
tp375
a(g1
g2
S'gray button shirt'
p376
I1
tp377
a(g5
S'Select the type of scene present in the image ?'
p378
S'car seat'
p379
I1
tp380
a(g12
g13
S'meat'
p381
I1
tp382
a(g12
g13
S'cuffs'
p383
I1
tp384
a(g12
g13
S'bike ride race'
p385
I1
tp386
a(g12
g13
S'different editing techniques'
p387
I1
tp388
a(g5
S'What is the type of scene present in the image ?'
p389
S'city road'
p390
I1
tp391
a(g12
g13
S'group speed ice skaters race'
p392
I1
tp393
a(g1
g2
S'blue yellow bodysuit'
p394
I1
tp395
a(g12
g13
S'today'
p396
I1
tp397
a(g1
g2
S'red striped soccer shirt'
p398
I1
tp399
a(g12
g13
S'broken couch'
p400
I1
tp401
a(g216
S'Select the type of bodyparts present in the image ?'
p402
S'concerned faces'
p403
I1
tp404
a(g12
g13
S'foreign festival'
p405
I1
tp406
a(g12
g13
S'pleasure'
p407
I1
tp408
a(g12
g13
S'foods'
p409
I1
tp410
a(g5
S'What is the type of scene present in the image ?'
p411
S'waterfront'
p412
I1
tp413
a(g1
g2
S'red swimsuit'
p414
I1
tp415
a(g12
g13
S'runner '
p416
I1
tp417
a(g216
S'Select the type of bodyparts present in the image ?'
p418
S'fathers shoulders'
p419
I1
tp420
a(g5
S'What is the type of scene present in the image ?'
p421
S'amusement park state fair'
p422
I1
tp423
a(S'instruments'
p424
S'Select the type of instruments present in the image ?'
p425
S'variety musical instruments'
p426
I1
tp427
a(g1
g2
S'businessman '
p428
I1
tp429
a(g12
g13
S'blue netted course'
p430
I1
tp431
a(g12
g13
S'turquoise shirt grocery'
p432
I1
tp433
a(g1
g2
S'dirty white collared shirt'
p434
I1
tp435
a(g12
g13
S'travels'
p436
I1
tp437
a(g1
g2
S'long maroon hat'
p438
I1
tp439
a(g12
g13
S'anticipated path football'
p440
I1
tp441
a(g12
g13
S'soap'
p442
I1
tp443
a(g12
g13
S'stuffed animal prizes'
p444
I1
tp445
a(g12
g13
S'spoon'
p446
I1
tp447
a(g5
S'What is the type of scene present in the image ?'
p448
S'happy day'
p449
I1
tp450
a(g5
S'Select the type of scene present in the image ?'
p451
S'sandy park area'
p452
I1
tp453
a(g12
g13
S'old fashioned'
p454
I1
tp455
a(g1
g2
S'martial arts uniforms'
p456
I1
tp457
a(g60
g61
S'grocery cart'
p458
I1
tp459
a(g12
g13
S'temporary structure'
p460
I1
tp461
a(g12
g13
S'ax'
p462
I1
tp463
a(g1
g2
S'red flower print skirt'
p464
I1
tp465
a(g12
g13
S'gated housing complex'
p466
I1
tp467
a(g1
g2
S'red bathing suit'
p468
I1
tp469
a(g1
g2
S'black jackets'
p470
I1
tp471
a(g5
S'What is the type of scene present in the image ?'
p472
S'archaeological dig'
p473
I1
tp474
a(g12
g13
S'two scientists research biology'
p475
I1
tp476
a(g12
g13
S'sorts'
p477
I1
tp478
a(g12
g13
S'sit'
p479
I1
tp480
a(g12
g13
S'papers'
p481
I1
tp482
a(g12
g13
S'ford'
p483
I1
tp484
a(g1
g2
S'skimpy clothing'
p485
I1
tp486
a(g12
g13
S'beach ball toys'
p487
I1
tp488
a(g1
g2
S'three pairs granny panties'
p489
I1
tp490
a(g12
g13
S'dirty wall'
p491
I1
tp492
a(g12
g13
S'orange cloth'
p493
I1
tp494
a(g12
g13
S'love jesus'
p495
I1
tp496
a(g12
g13
S'asian language'
p497
I1
tp498
a(g5
S'Select the type of scene present in the image ?'
p499
S'crowded street fair'
p500
I1
tp501
a(g5
S'What is the type of scene present in the image ?'
p502
S'burlap sack'
p503
I1
tp504
a(g1
g2
S'garter belt'
p505
I1
tp506
a(g12
g13
S'supplies'
p507
I1
tp508
a(g12
g13
S'oil painting'
p509
I1
tp510
a(g424
S'Select the type of instruments present in the image ?'
p511
S'lawn instrument'
p512
I1
tp513
a(g5
S'What is the type of scene present in the image ?'
p514
S'main area'
p515
I1
tp516
a(g1
g2
S'blue shoes'
p517
I1
tp518
a(g12
g13
S'road cones'
p519
I1
tp520
a(g12
g13
S'fire pit'
p521
I1
tp522
a(g1
g2
S'white uniform'
p523
I1
tp524
a(g1
g2
S'houston uniform'
p525
I1
tp526
a(g12
g13
S'several blurred human figures'
p527
I1
tp528
a(g12
g13
S'offensive line'
p529
I1
tp530
a(g12
g13
S'slalom course'
p531
I1
tp532
a(g5
S'Select the type of scene present in the image ?'
p533
S'high rise building'
p534
I1
tp535
a(g12
g13
S'led sign'
p536
I1
tp537
a(g5
S'What is the type of scene present in the image ?'
p538
S'street bridge'
p539
I1
tp540
a(g12
g13
S'underpants'
p541
I1
tp542
a(g12
g13
S'others'
p543
I1
tp544
a(g12
g13
S'microphone'
p545
I1
tp546
a(g424
S'Select the type of instruments present in the image ?'
p547
S'clarinet'
p548
I1
tp549
a(g12
g13
S'backhoe'
p550
I1
tp551
a(g12
g13
S'steps'
p552
I1
tp553
a(g5
S'What is the type of scene present in the image ?'
p554
S'pink reach'
p555
I1
tp556
a(g12
g13
S'loud'
p557
I1
tp558
a(g1
g2
S'pink umbrella'
p559
I1
tp560
a(g216
S'Select the type of bodyparts present in the image ?'
p561
S'ten fingers'
p562
I1
tp563
a(g5
S'What is the type of scene present in the image ?'
p564
S'empty seats'
p565
I1
tp566
a(g5
S'Select the type of scene present in the image ?'
p567
S'scenic bridge'
p568
I1
tp569
a(g424
S'What is the type of instruments present in the image ?'
p570
S'taiko drum'
p571
I1
tp572
a(g5
S'Select the type of scene present in the image ?'
p573
S'back home'
p574
I1
tp575
a(g216
S'What is the type of bodyparts present in the image ?'
p576
S'whole body'
p577
I1
tp578
a(g12
g13
S'homemade clock'
p579
I1
tp580
a(g5
S'Select the type of scene present in the image ?'
p581
S'common room'
p582
I1
tp583
a(g5
S'What is the type of scene present in the image ?'
p584
S'break'
p585
I1
tp586
a(g216
S'Select the type of bodyparts present in the image ?'
p587
S'crocodile '
p588
I1
tp589
a(g60
g61
S'three wheeled bikes'
p590
I1
tp591
a(g12
g13
S'one shows'
p592
I1
tp593
a(g1
g2
S'blue vest'
p594
I1
tp595
a(g5
S'What is the type of scene present in the image ?'
p596
S'cloudy sky'
p597
I1
tp598
a(g12
g13
S'wall vhs'
p599
I1
tp600
a(g5
S'Select the type of scene present in the image ?'
p601
S'yellow room'
p602
I1
tp603
a(g12
g13
S'snowy hillside'
p604
I1
tp605
a(g1
g2
S'white hat'
p606
I1
tp607
a(g12
g13
S'warrior equipment'
p608
I1
tp609
a(g12
g13
S'wooden cross'
p610
I1
tp611
a(g5
S'What is the type of scene present in the image ?'
p612
S'old looking building'
p613
I1
tp614
a(g12
g13
S'new spring seeds'
p615
I1
tp616
a(g12
g13
S'fast food'
p617
I1
tp618
a(g5
S'Select the type of scene present in the image ?'
p619
S'urban residential area'
p620
I1
tp621
a(g1
g2
S'blue'
p622
I1
tp623
a(g12
g13
S'glasses combs'
p624
I1
tp625
a(g12
g13
S'busy'
p626
I1
tp627
a(g12
g13
S'morning ride'
p628
I1
tp629
a(g1
g2
S'dress shirt'
p630
I1
tp631
a(g12
g13
S'carving'
p632
I1
tp633
a(g12
g13
S'head'
p634
I1
tp635
a(g12
g13
S'ref mid'
p636
I1
tp637
a(g12
g13
S'arizona'
p638
I1
tp639
a(g12
g13
S'every'
p640
I1
tp641
a(g5
S'What is the type of scene present in the image ?'
p642
S'flooded street'
p643
I1
tp644
a(g12
g13
S'scary movie flyer'
p645
I1
tp646
a(g1
g2
S'messenger bags'
p647
I1
tp648
a(g5
S'Select the type of scene present in the image ?'
p649
S'apparently oktoberfest'
p650
I1
tp651
a(g1
g2
S'white karate uniform'
p652
I1
tp653
a(g60
g61
S'parachute glider'
p654
I1
tp655
a(g1
g2
S'rainbow colored bikini tops'
p656
I1
tp657
a(g12
g13
S'fisherman '
p658
I1
tp659
a(g18
S'How many people are present in the image ?'
p660
S'two boy'
p661
I1
tp662
a(g5
S'What is the type of scene present in the image ?'
p663
S'view mountain'
p664
I1
tp665
a(S'animals'
p666
S'How many animals are present in the image ?'
p667
S'one dog'
p668
I1
tp669
a(g18
S'How many people are present in the image ?'
p670
S'one veteran guy'
p671
I1
tp672
a(g5
S'Select the type of scene present in the image ?'
p673
S'view family '
p674
I1
tp675
a(g216
S'What is the type of bodyparts present in the image ?'
p676
S'elderly gentleman '
p677
I1
tp678
a(g1
g2
S'dark hat'
p679
I1
tp680
a(g12
g13
S'soccer net'
p681
I1
tp682
a(g12
g13
S'lounge & grill'
p683
I1
tp684
a(g12
g13
S'dumpsters'
p685
I1
tp686
a(g12
g13
S'white tarp'
p687
I1
tp688
a(g5
S'Select the type of scene present in the image ?'
p689
S'street scene'
p690
I1
tp691
a(g60
g61
S'coffee cart'
p692
I1
tp693
a(g12
g13
S'soccer skills'
p694
I1
tp695
a(g12
g13
S'miles'
p696
I1
tp697
a(g5
S'What is the type of scene present in the image ?'
p698
S'cool '
p699
I1
tp700
a(g12
g13
S'fancy door'
p701
I1
tp702
a(g5
S'Select the type of scene present in the image ?'
p703
S'food court'
p704
I1
tp705
a(g5
S'What is the type of scene present in the image ?'
p706
S'child outside'
p707
I1
tp708
a(g12
g13
S'side half pipe'
p709
I1
tp710
a(g12
g13
S'skateboard bowl'
p711
I1
tp712
a(g12
g13
S'fireworks'
p713
I1
tp714
a(g12
g13
S'single pole'
p715
I1
tp716
a(g12
g13
S'solider'
p717
I1
tp718
a(g12
g13
S'wall'
p719
I1
tp720
a(g1
g2
S'stocking cap'
p721
I1
tp722
a(g5
S'Select the type of scene present in the image ?'
p723
S'snow fence'
p724
I1
tp725
a(g12
g13
S'green shirt paint'
p726
I1
tp727
a(g12
g13
S'george stephanopoulos'
p728
I1
tp729
a(g5
S'What is the type of scene present in the image ?'
p730
S'white building'
p731
I1
tp732
a(g1
g2
S'yellow striped shirt'
p733
I1
tp734
a(g1
g2
S'brown red coat'
p735
I1
tp736
a(g12
g13
S'front window'
p737
I1
tp738
a(g5
S'Select the type of scene present in the image ?'
p739
S'party atmosphere'
p740
I1
tp741
a(g60
g61
S'red food truck'
p742
I1
tp743
a(g12
g13
S'couple shares passion'
p744
I1
tp745
a(g1
g2
S'purple blue dresses'
p746
I1
tp747
a(g12
g13
S'airborne'
p748
I1
tp749
a(g1
g2
S'blue speedo'
p750
I1
tp751
a(g12
g13
S'next piece art'
p752
I1
tp753
a(g12
g13
S'poor conditions'
p754
I1
tp755
a(g12
g13
S'black water'
p756
I1
tp757
a(g12
g13
S'binocular'
p758
I1
tp759
a(g1
g2
S'wicker cowboy hat'
p760
I1
tp761
a(g60
g61
S'decorated car'
p762
I1
tp763
a(g5
S'What is the type of scene present in the image ?'
p764
S'large fountain'
p765
I1
tp766
a(g1
g2
S'hat'
p767
I1
tp768
a(g1
g2
S'shiny orange shirt'
p769
I1
tp770
a(g12
g13
S'blue pants scales'
p771
I1
tp772
a(g12
g13
S'many objects'
p773
I1
tp774
a(g12
g13
S'several cartoon characters'
p775
I1
tp776
a(g12
g13
S'indoor basketball game'
p777
I1
tp778
a(g12
g13
S'stair'
p779
I1
tp780
a(g12
g13
S'heat'
p781
I1
tp782
a(g12
g13
S'white refrigerator'
p783
I1
tp784
a(g18
S'How many people are present in the image ?'
p785
S'one female'
p786
I1
tp787
a(g5
S'Select the type of scene present in the image ?'
p788
S'blue helmet wipes dirt'
p789
I1
tp790
a(g424
S'What is the type of instruments present in the image ?'
p791
S'harmonica'
p792
I1
tp793
a(g12
g13
S'display motorcycles'
p794
I1
tp795
a(g12
g13
S''
p796
I1
tp797
a(g12
g13
S'baby stare'
p798
I1
tp799
a(g5
S'Select the type of scene present in the image ?'
p800
S'food stand'
p801
I1
tp802
a(g5
S'What is the type of scene present in the image ?'
p803
S'desert'
p804
I1
tp805
a(g12
g13
S'computer ink'
p806
I1
tp807
a(g5
S'Select the type of scene present in the image ?'
p808
S'gate post'
p809
I1
tp810
a(g5
S'What is the type of scene present in the image ?'
p811
S'inside kiosk'
p812
I1
tp813
a(g5
S'Select the type of scene present in the image ?'
p814
S'steep rocky cliffs'
p815
I1
tp816
a(g12
g13
S'phone cards'
p817
I1
tp818
a(g12
g13
S'manila folder'
p819
I1
tp820
a(g12
g13
S'women various ages'
p821
I1
tp822
a(g12
g13
S'rescue dummy'
p823
I1
tp824
a(g1
g2
S'african garb'
p825
I1
tp826
a(g216
S'What is the type of bodyparts present in the image ?'
p827
S'nearly four feet'
p828
I1
tp829
a(g5
S'Select the type of scene present in the image ?'
p830
S'sidewalk street'
p831
I1
tp832
a(g12
g13
S'orange wheeled skates'
p833
I1
tp834
a(g12
g13
S'top lungs'
p835
I1
tp836
a(g5
S'What is the type of scene present in the image ?'
p837
S'home'
p838
I1
tp839
a(g12
g13
S'geek squad sign'
p840
I1
tp841
a(g12
g13
S'blue hair ribbon'
p842
I1
tp843
a(g12
g13
S'outdoor carnival'
p844
I1
tp845
a(g12
g13
S'groves pines'
p846
I1
tp847
a(g5
S'Select the type of scene present in the image ?'
p848
S'forest trail'
p849
I1
tp850
a(g18
S'How many people are present in the image ?'
p851
S'three women swimmers'
p852
I1
tp853
a(g5
S'What is the type of scene present in the image ?'
p854
S'glass dolphin enclosure'
p855
I1
tp856
a(g60
g61
S'flatbed'
p857
I1
tp858
a(g5
S'Select the type of scene present in the image ?'
p859
S'area'
p860
I1
tp861
a(g1
g2
S'tan colored shirt'
p862
I1
tp863
a(g12
g13
S'bales hay'
p864
I1
tp865
a(g1
g2
S'sparkly dress'
p866
I1
tp867
a(g12
g13
S'puppets'
p868
I1
tp869
a(g1
g2
S'traditional mexican clothing'
p870
I1
tp871
a(g1
g2
S'ceremonial dress'
p872
I1
tp873
a(g12
g13
S'variety foreign handmade snacks'
p874
I1
tp875
a(g216
S'What is the type of bodyparts present in the image ?'
p876
S'paws'
p877
I1
tp878
a(g12
g13
S'toys'
p879
I1
tp880
a(g12
g13
S'suitcase full toys'
p881
I1
tp882
a(g12
g13
S'cart fruit'
p883
I1
tp884
a(g12
g13
S'pink pants snowboards'
p885
I1
tp886
a(g12
g13
S'green brick walls'
p887
I1
tp888
a(g1
g2
S'white blue shoes'
p889
I1
tp890
a(g216
S'Select the type of bodyparts present in the image ?'
p891
S'pixie haircut'
p892
I1
tp893
a(g1
g2
S'martial arts'
p894
I1
tp895
a(g5
S'What is the type of scene present in the image ?'
p896
S'studio'
p897
I1
tp898
a(g5
S'Select the type of scene present in the image ?'
p899
g597
I1
tp900
a(g12
g13
S'school sweeter'
p901
I1
tp902
a(g12
g13
S'cellphone device'
p903
I1
tp904
a(g12
g13
S'ticket counter'
p905
I1
tp906
a(g12
g13
S'practice details'
p907
I1
tp908
a(g12
g13
S'plug'
p909
I1
tp910
a(g12
g13
S'company'
p911
I1
tp912
a(g5
S'What is the type of scene present in the image ?'
p913
S'construction coal power plant'
p914
I1
tp915
a(g1
g2
g1
I1
tp916
a(g12
g13
S'another closeby'
p917
I1
tp918
a(g1
g2
S'black shoes'
p919
I1
tp920
a(g5
S'Select the type of scene present in the image ?'
p921
S'stone staircase'
p922
I1
tp923
a(g5
S'What is the type of scene present in the image ?'
p924
S'cobbled street'
p925
I1
tp926
a(g12
g13
S'machete'
p927
I1
tp928
a(g12
g13
S'new stunts'
p929
I1
tp930
a(g1
g2
S'pink jacket'
p931
I1
tp932
a(g216
S'Select the type of bodyparts present in the image ?'
p933
S'beret thin mustache'
p934
I1
tp935
a(g5
S'What is the type of scene present in the image ?'
p936
S'chapel'
p937
I1
tp938
a(g5
S'Select the type of scene present in the image ?'
p939
S'second'
p940
I1
tp941
a(g60
g61
S'back car'
p942
I1
tp943
a(g12
g13
S'red stick'
p944
I1
tp945
a(g12
g13
S'green buckets'
p946
I1
tp947
a(g5
S'What is the type of scene present in the image ?'
p948
S'steep hill'
p949
I1
tp950
a(g12
g13
S'dark pants hammers'
p951
I1
tp952
a(g12
g13
S'large pillars'
p953
I1
tp954
a(g60
g61
S'yellow moped'
p955
I1
tp956
a(g1
g2
S'cheeky wings'
p957
I1
tp958
a(g1
g2
S'grayish blue shirt'
p959
I1
tp960
a(g216
S'Select the type of bodyparts present in the image ?'
p961
S'lip'
p962
I1
tp963
a(g12
g13
S'jelly'
p964
I1
tp965
a(g18
S'How many people are present in the image ?'
p966
S'shoulders two children'
p967
I1
tp968
a(g18
S'How many people are present in the image ?'
p969
S'7 army men'
p970
I1
tp971
a(g5
S'What is the type of scene present in the image ?'
p972
S'outside beautiful building'
p973
I1
tp974
a(g216
S'Select the type of bodyparts present in the image ?'
p975
S'folded hands'
p976
I1
tp977
a(g12
g13
S'pair red tights'
p978
I1
tp979
a(g12
g13
S'smartphone'
p980
I1
tp981
a(g12
g13
S'group people socialize'
p982
I1
tp983
a(g1
g2
S'blue jerseys'
p984
I1
tp985
a(g216
S'What is the type of bodyparts present in the image ?'
p986
S'shoulder length brown hair'
p987
I1
tp988
a(g12
g13
S'floral patterened couch'
p989
I1
tp990
a(g12
g13
S'colorful sticks'
p991
I1
tp992
a(g18
S'How many people are present in the image ?'
p993
S'one younger child'
p994
I1
tp995
a(g12
g13
S'navy sparkly blue warms'
p996
I1
tp997
a(g12
g13
S'playground equipment'
p998
I1
tp999
a(g5
S'Select the type of scene present in the image ?'
p1000
S'antique shop'
p1001
I1
tp1002
a(g12
g13
S'climbing rocks'
p1003
I1
tp1004
a(g12
g13
S'taco'
p1005
I1
tp1006
a(g12
g13
S'yellow kayak'
p1007
I1
tp1008
a(g12
g13
S'car race'
p1009
I1
tp1010
a(g216
S'What is the type of bodyparts present in the image ?'
p1011
S'green hair'
p1012
I1
tp1013
a(g1
g2
S'black white bag'
p1014
I1
tp1015
a(g12
g13
S'packing boxes'
p1016
I1
tp1017
a(g12
g13
S'usa'
p1018
I1
tp1019
a(g12
g13
S'scissors'
p1020
I1
tp1021
a(g1
g2
S'wild outfit'
p1022
I1
tp1023
a(g12
g13
S'brown lawn chairs'
p1024
I1
tp1025
a(g12
g13
S'tall ceilings'
p1026
I1
tp1027
a(g5
S'Select the type of scene present in the image ?'
p1028
S'side building'
p1029
I1
tp1030
a(g12
g13
S'silver wall'
p1031
I1
tp1032
a(g12
g13
S'pink shit'
p1033
I1
tp1034
a(g12
g13
S'fabric flowers'
p1035
I1
tp1036
a(g1
g2
S'navy pants'
p1037
I1
tp1038
a(g12
g13
g442
I1
tp1039
a(g12
g13
S'tall sticks'
p1040
I1
tp1041
a(g216
S'What is the type of bodyparts present in the image ?'
p1042
S'goggles frowns'
p1043
I1
tp1044
a(g12
g13
S'palm trees'
p1045
I1
tp1046
a(g12
g13
S'clipboard'
p1047
I1
tp1048
a(g12
g13
S'tray small toys'
p1049
I1
tp1050
a(g12
g13
S'buffet'
p1051
I1
tp1052
a(g5
S'Select the type of scene present in the image ?'
p1053
S'hot sunny day'
p1054
I1
tp1055
a(g12
g13
S'red mark'
p1056
I1
tp1057
a(g12
g13
S'recital'
p1058
I1
tp1059
a(g1
g2
S'american flag costume'
p1060
I1
tp1061
a(g1
g2
S'back jumpsuits'
p1062
I1
tp1063
a(g1
g2
S'green brown shirt'
p1064
I1
tp1065
a(g18
S'How many people are present in the image ?'
p1066
S'one guy'
p1067
I1
tp1068
a(g18
S'How many people are present in the image ?'
p1069
S'two young siblings'
p1070
I1
tp1071
a(g12
g13
S'carved lintel'
p1072
I1
tp1073
a(g5
S'What is the type of scene present in the image ?'
p1074
S'rubble'
p1075
I1
tp1076
a(g5
S'Select the type of scene present in the image ?'
p1077
S'urban park'
p1078
I1
tp1079
a(g5
S'What is the type of scene present in the image ?'
p1080
S'field aviation museum'
p1081
I1
tp1082
a(g5
S'Select the type of scene present in the image ?'
p1083
S'realty store'
p1084
I1
tp1085
a(g1
g2
S'judge costume'
p1086
I1
tp1087
a(g5
S'What is the type of scene present in the image ?'
p1088
S'wet soccer field'
p1089
I1
tp1090
a(g12
g13
S'bag trash'
p1091
I1
tp1092
a(g12
g13
S'heavy loading machinery'
p1093
I1
tp1094
a(g60
g61
S'red trucks'
p1095
I1
tp1096
a(g1
g2
S'sleeve'
p1097
I1
tp1098
a(g12
g13
S'outside playing cards'
p1099
I1
tp1100
a(g12
g13
S'white piece plastic'
p1101
I1
tp1102
a(g12
g13
S'pic'
p1103
I1
tp1104
a(g12
g13
S'golf skills'
p1105
I1
tp1106
a(g12
g13
S'statue liberty'
p1107
I1
tp1108
a(g60
g61
S'mural car'
p1109
I1
tp1110
a(g12
g13
S'two others'
p1111
I1
tp1112
a(g1
g2
g283
I1
tp1113
a(g5
S'Select the type of scene present in the image ?'
p1114
S'pretzel stand'
p1115
I1
tp1116
a(g1
g2
S'light blue bag'
p1117
I1
tp1118
a(g1
g2
S'gray winter hat'
p1119
I1
tp1120
a(g5
S'What is the type of scene present in the image ?'
p1121
S'bushes'
p1122
I1
tp1123
a(g5
S'Select the type of scene present in the image ?'
p1124
S'temple'
p1125
I1
tp1126
a(g216
S'What is the type of bodyparts present in the image ?'
p1127
S'retro hairstyle'
p1128
I1
tp1129
a(g12
g13
S'52'
p1130
I1
tp1131
a(g12
g13
S'birthday candle'
p1132
I1
tp1133
a(g12
g13
S'pink picks flowers'
p1134
I1
tp1135
a(g12
g13
S'traditional gaucho wear'
p1136
I1
tp1137
a(g5
S'Select the type of scene present in the image ?'
p1138
S'grass'
p1139
I1
tp1140
a(g216
S'What is the type of bodyparts present in the image ?'
p1141
S'hands'
p1142
I1
tp1143
a(g12
g13
S'monopoly'
p1144
I1
tp1145
a(g12
g13
S'ships'
p1146
I1
tp1147
a(g12
g13
S'keyboard'
p1148
I1
tp1149
a(g12
g13
S'yellow curtain'
p1150
I1
tp1151
a(g5
S'Select the type of scene present in the image ?'
p1152
S'outdoor public space'
p1153
I1
tp1154
a(g12
g13
S'totes'
p1155
I1
tp1156
a(g12
g13
S'# 28'
p1157
I1
tp1158
a(g1
g2
S'bright orange uniforms'
p1159
I1
tp1160
a(g12
g13
S'thin tree'
p1161
I1
tp1162
a(g12
g13
S'strange stage show'
p1163
I1
tp1164
a(g12
g13
S'concrete wall'
p1165
I1
tp1166
a(g1
g2
S'long veils'
p1167
I1
tp1168
a(g12
g13
S'clean indoor station'
p1169
I1
tp1170
a(g12
g13
S'bottom set'
p1171
I1
tp1172
a(g1
g2
S'british shirt'
p1173
I1
tp1174
a(g12
g13
S'newest museum exhibit'
p1175
I1
tp1176
a(g12
g13
S'orange pillow'
p1177
I1
tp1178
a(g12
g13
S'glides'
p1179
I1
tp1180
a(g60
g61
S'old couples bike'
p1181
I1
tp1182
a(g1
g2
S'exotic outfit'
p1183
I1
tp1184
a(g12
g13
S'pink blanket'
p1185
I1
tp1186
a(g5
S'What is the type of scene present in the image ?'
p1187
S'downtown area'
p1188
I1
tp1189
a(g12
g13
S'printed material'
p1190
I1
tp1191
a(g12
g13
S'dance'
p1192
I1
tp1193
a(g12
g13
S'teal colored wall'
p1194
I1
tp1195
a(g5
S'Select the type of scene present in the image ?'
p1196
S'living area'
p1197
I1
tp1198
a(g12
g13
S'holiday display'
p1199
I1
tp1200
a(g5
S'What is the type of scene present in the image ?'
p1201
S'pretty day'
p1202
I1
tp1203
a(g1
g2
S'blue yellow feathers'
p1204
I1
tp1205
a(g1
g2
S'dressy clothes'
p1206
I1
tp1207
a(g1
g2
S'black rimmed glasses'
p1208
I1
tp1209
a(g12
g13
S'first glimpse wonders'
p1210
I1
tp1211
a(g1
g2
S'light pink jacket'
p1212
I1
tp1213
a(g1
g2
S'blue jean jacket'
p1214
I1
tp1215
a(g12
g13
S'yoga mats'
p1216
I1
tp1217
a(g12
g13
S'food concessions'
p1218
I1
tp1219
a(g12
g13
S'hats paddle'
p1220
I1
tp1221
a(g18
S'How many people are present in the image ?'
p1222
S'two ambulance workers'
p1223
I1
tp1224
a(g12
g13
S'hose'
p1225
I1
tp1226
a(g1
g2
S'pink bottoms'
p1227
I1
tp1228
a(g5
S'Select the type of scene present in the image ?'
p1229
S'edge swimming pool'
p1230
I1
tp1231
a(g1
g2
S'tattered clothes'
p1232
I1
tp1233
a(g60
g61
S'many different types vehicles'
p1234
I1
tp1235
a(g1
g2
S'hello kitty mittens'
p1236
I1
tp1237
a(g12
g13
S'chilly morning'
p1238
I1
tp1239
a(g12
g13
S'high'
p1240
I1
tp1241
a(g12
g13
S'purple jug'
p1242
I1
tp1243
a(g1
g2
S'red dress'
p1244
I1
tp1245
a(g12
g13
S'record'
p1246
I1
tp1247
a(g12
g13
S'santa claus'
p1248
I1
tp1249
a(g1
g2
S'biking suits'
p1250
I1
tp1251
a(g12
g13
S'food'
p1252
I1
tp1253
a(g1
g2
S'red glasses'
p1254
I1
tp1255
a(g1
g2
S'mask'
p1256
I1
tp1257
a(g12
g13
S'white plastic chairs'
p1258
I1
tp1259
a(g12
g13
S'plant related task'
p1260
I1
tp1261
a(g5
S'What is the type of scene present in the image ?'
p1262
S'straw roof'
p1263
I1
tp1264
a(g12
g13
S'champagne corks'
p1265
I1
tp1266
a(g12
g13
S'brown horses race'
p1267
I1
tp1268
a(g12
g13
S'ceiling railway'
p1269
I1
tp1270
a(g1
g2
S'dark plaid shirt'
p1271
I1
tp1272
a(g12
g13
S'prepared course'
p1273
I1
tp1274
a(g1
g2
S'gloves'
p1275
I1
tp1276
a(g12
g13
S'blue net'
p1277
I1
tp1278
a(g12
g13
S'coral'
p1279
I1
tp1280
a(g12
g13
S'maroon cloth'
p1281
I1
tp1282
a(g12
g13
S'door step'
p1283
I1
tp1284
a(g12
g13
S'yellow splashes'
p1285
I1
tp1286
a(g12
g13
S'mixed martial arts competition'
p1287
I1
tp1288
a(g1
g2
S'flip blue'
p1289
I1
tp1290
a(g12
g13
S'opposite couches'
p1291
I1
tp1292
a(g12
g13
S'games'
p1293
I1
tp1294
a(g12
g13
S'work'
p1295
I1
tp1296
a(g5
S'Select the type of scene present in the image ?'
p1297
S'staircase'
p1298
I1
tp1299
a(g60
g61
S'toy truck'
p1300
I1
tp1301
a(g12
g13
S'green handrail'
p1302
I1
tp1303
a(g12
g13
S'top trapeze'
p1304
I1
tp1305
a(g12
g13
S'kind party'
p1306
I1
tp1307
a(g12
g13
S'outside wall'
p1308
I1
tp1309
a(g12
g13
S'graduation'
p1310
I1
tp1311
a(g12
g13
S'banner'
p1312
I1
tp1313
a(g12
g13
S'figures'
p1314
I1
tp1315
a(g1
g2
S'superman cape'
p1316
I1
tp1317
a(g12
g13
S'statue bust'
p1318
I1
tp1319
a(g12
g13
S'lip balm'
p1320
I1
tp1321
a(g18
S'How many people are present in the image ?'
p1322
S'ballet class five girls'
p1323
I1
tp1324
a(g12
g13
S'icing'
p1325
I1
tp1326
a(g12
g13
S'electric candles'
p1327
I1
tp1328
a(g5
S'What is the type of scene present in the image ?'
p1329
S'small indoor space'
p1330
I1
tp1331
a(g12
g13
S'amp'
p1332
I1
tp1333
a(g12
g13
S'number'
p1334
I1
tp1335
a(g12
g13
S'announcement'
p1336
I1
tp1337
a(g5
S'Select the type of scene present in the image ?'
p1338
S'sides entrance'
p1339
I1
tp1340
a(g18
S'How many people are present in the image ?'
p1341
S'five girls'
p1342
I1
tp1343
a(g12
g13
S'large metal bowl'
p1344
I1
tp1345
a(g5
S'What is the type of scene present in the image ?'
p1346
S'paved road'
p1347
I1
tp1348
a(g1
g2
S'one colorful sock'
p1349
I1
tp1350
a(g1
g2
S'red uniform'
p1351
I1
tp1352
a(g12
g13
S'fire stick'
p1353
I1
tp1354
a(g12
g13
S'musical equipment'
p1355
I1
tp1356
a(g12
g13
S'stairs monument'
p1357
I1
tp1358
a(g5
S'Select the type of scene present in the image ?'
p1359
S'summer'
p1360
I1
tp1361
a(g12
g13
S'stops'
p1362
I1
tp1363
a(g12
g13
S'conclusion doubles tennis match'
p1364
I1
tp1365
a(g1
g2
S'blue pants'
p1366
I1
tp1367
a(g12
g13
S'distance move'
p1368
I1
tp1369
a(g5
S'What is the type of scene present in the image ?'
p1370
S'pavilion'
p1371
I1
tp1372
a(g12
g13
S'gold tag'
p1373
I1
tp1374
a(g12
g13
S'star wars'
p1375
I1
tp1376
a(g12
g13
S'screaming'
p1377
I1
tp1378
a(g5
S'Select the type of scene present in the image ?'
p1379
S'sunny cold day'
p1380
I1
tp1381
a(g1
g2
S'bathing suits'
p1382
I1
tp1383
a(g1
g2
S'blue red gloves'
p1384
I1
tp1385
a(g1
g2
S'leather glove'
p1386
I1
tp1387
a(g12
g13
S'browsing'
p1388
I1
tp1389
a(g1
g2
S'blue pink swimsuit'
p1390
I1
tp1391
a(g12
g13
S'twister'
p1392
I1
tp1393
a(g12
g13
S'painted glass cups'
p1394
I1
tp1395
a(g12
g13
S'contents bottle'
p1396
I1
tp1397
a(g5
S'What is the type of scene present in the image ?'
p1398
S'middle lot'
p1399
I1
tp1400
a(g5
S'Select the type of scene present in the image ?'
p1401
S'grill outside'
p1402
I1
tp1403
a(g12
g13
S'exhaust pipe'
p1404
I1
tp1405
a(g12
g13
S'towel'
p1406
I1
tp1407
a(g60
g61
S'subway car'
p1408
I1
tp1409
a(g1
g2
S'brimmed hat'
p1410
I1
tp1411
a(g5
S'What is the type of scene present in the image ?'
p1412
S'white red car tips'
p1413
I1
tp1414
a(g12
g13
S'large rocky boulder'
p1415
I1
tp1416
a(g12
g13
S'college basketball'
p1417
I1
tp1418
a(g12
g13
S'sub sandwiches'
p1419
I1
tp1420
a(g216
S'Select the type of bodyparts present in the image ?'
p1421
S'front paws'
p1422
I1
tp1423
a(g5
S'What is the type of scene present in the image ?'
p1424
S'united states'
p1425
I1
tp1426
a(g12
g13
S'crab dinner'
p1427
I1
tp1428
a(g1
g2
S'bright yellow red vests'
p1429
I1
tp1430
a(g12
g13
S'sports spark'
p1431
I1
tp1432
a(g60
g61
S'drivers seat car'
p1433
I1
tp1434
a(g12
g13
S'tae kwon'
p1435
I1
tp1436
a(g12
g13
S'dust mop'
p1437
I1
tp1438
a(g12
g13
S'two pails'
p1439
I1
tp1440
a(g1
g2
S'clown costume'
p1441
I1
tp1442
a(g5
S'Select the type of scene present in the image ?'
p1443
S'cow farm'
p1444
I1
tp1445
a(g18
S'How many people are present in the image ?'
p1446
S'sounds 4 men'
p1447
I1
tp1448
a(g12
g13
S'recent roller derby match'
p1449
I1
tp1450
a(g12
g13
S'game fencing'
p1451
I1
tp1452
a(g12
g13
S'bike pedals'
p1453
I1
tp1454
a(g1
g2
S'black sailor '
p1455
I1
tp1456
a(g5
S'What is the type of scene present in the image ?'
p1457
S'cement floor'
p1458
I1
tp1459
a(g1
g2
S'olive drab uniforms'
p1460
I1
tp1461
a(g12
g13
S'portrait'
p1462
I1
tp1463
a(g5
S'Select the type of scene present in the image ?'
p1464
S'evening'
p1465
I1
tp1466
a(g1
g2
S'black white jersey'
p1467
I1
tp1468
a(g5
S'What is the type of scene present in the image ?'
p1469
S'shabby house'
p1470
I1
tp1471
a(g12
g13
S'white tub'
p1472
I1
tp1473
a(g1
g2
S'green work helmet'
p1474
I1
tp1475
a(g1
g2
S'brown shoes'
p1476
I1
tp1477
a(g1
g2
S'white blue green shirt'
p1478
I1
tp1479
a(g424
S'Select the type of instruments present in the image ?'
p1480
S'bagpipes'
p1481
I1
tp1482
a(g12
g13
S'brick'
p1483
I1
tp1484
a(g5
S'What is the type of scene present in the image ?'
p1485
S'green shrubbery'
p1486
I1
tp1487
a(g12
g13
S'one star'
p1488
I1
tp1489
a(g12
g13
S'secrets'
p1490
I1
tp1491
a(g12
g13
S'rickshaw handcart'
p1492
I1
tp1493
a(g12
g13
S'meet'
p1494
I1
tp1495
a(g12
g13
S'saguaro cactus'
p1496
I1
tp1497
a(g18
S'How many people are present in the image ?'
p1498
S'two sumo wrestlers'
p1499
I1
tp1500
a(g12
g13
S'small notebook'
p1501
I1
tp1502
a(g1
g2
S'scary costume'
p1503
I1
tp1504
a(g1
g2
S'white shawl'
p1505
I1
tp1506
a(g12
g13
S'paper item'
p1507
I1
tp1508
a(g12
g13
S'two'
p1509
I1
tp1510
a(g12
g13
S'closed sign'
p1511
I1
tp1512
a(g12
g13
S'blue towel'
p1513
I1
tp1514
a(g5
S'Select the type of scene present in the image ?'
p1515
S'pile blocks'
p1516
I1
tp1517
a(g216
S'What is the type of bodyparts present in the image ?'
p1518
S'front hair'
p1519
I1
tp1520
a(g12
g13
S'install new shingles'
p1521
I1
tp1522
a(g12
g13
S'bar stool'
p1523
I1
tp1524
a(g1
g2
S'sailor whites'
p1525
I1
tp1526
a(g12
g13
S'bun'
p1527
I1
tp1528
a(g12
g13
S'lights'
p1529
I1
tp1530
a(g5
S'Select the type of scene present in the image ?'
p1531
S'great spot'
p1532
I1
tp1533
a(g12
g13
S'foundation'
p1534
I1
tp1535
a(g12
g13
S'red'
p1536
I1
tp1537
a(g5
S'What is the type of scene present in the image ?'
p1538
S'cemetery'
p1539
I1
tp1540
a(g12
g13
S'branches leafless tree'
p1541
I1
tp1542
a(g216
S'Select the type of bodyparts present in the image ?'
p1543
S'hand'
p1544
I1
tp1545
a(g12
g13
S'run'
p1546
I1
tp1547
a(g5
S'What is the type of scene present in the image ?'
p1548
S'skirvin farms'
p1549
I1
tp1550
a(g12
g13
S'racket'
p1551
I1
tp1552
a(g12
g13
S'computer mice'
p1553
I1
tp1554
a(g12
g13
S'green head garment painting'
p1555
I1
tp1556
a(g1
g2
S'matching outfits'
p1557
I1
tp1558
a(g12
g13
S'cliffside vista'
p1559
I1
tp1560
a(g12
g13
S'business'
p1561
I1
tp1562
a(g12
g13
S'bright yellow construction gear'
p1563
I1
tp1564
a(g12
g13
S'jog'
p1565
I1
tp1566
a(g5
S'Select the type of scene present in the image ?'
p1567
S'pink building'
p1568
I1
tp1569
a(g12
g13
S'bubble bath'
p1570
I1
tp1571
a(g12
g13
S'wire'
p1572
I1
tp1573
a(g1
g2
S'accented shirts'
p1574
I1
tp1575
a(g12
g13
S'great enjoyment'
p1576
I1
tp1577
a(g12
g13
S'old style microphone'
p1578
I1
tp1579
a(g18
S'How many people are present in the image ?'
p1580
S'one young girl'
p1581
I1
tp1582
a(g12
g13
S'sewer drain'
p1583
I1
tp1584
a(g12
g13
S'dance competition'
p1585
I1
tp1586
a(g12
g13
S'green lights'
p1587
I1
tp1588
a(g5
S'What is the type of scene present in the image ?'
p1589
S'inside building'
p1590
I1
tp1591
a(g5
S'Select the type of scene present in the image ?'
p1592
S'wet grass'
p1593
I1
tp1594
a(g12
g13
S'plastic bottles'
p1595
I1
tp1596
a(g216
S'What is the type of bodyparts present in the image ?'
p1597
S'red facial hair'
p1598
I1
tp1599
a(g5
S'Select the type of scene present in the image ?'
p1600
S'shower'
p1601
I1
tp1602
a(g12
g13
S'small box'
p1603
I1
tp1604
a(g12
g13
S'opposite direction others'
p1605
I1
tp1606
a(g12
g13
S'competition'
p1607
I1
tp1608
a(g1
g2
S'green sports bra'
p1609
I1
tp1610
a(g5
S'What is the type of scene present in the image ?'
p1611
S'park'
p1612
I1
tp1613
a(g12
g13
S'neon yellow reflectors'
p1614
I1
tp1615
a(g12
g13
S'religious ceremonies'
p1616
I1
tp1617
a(g5
S'Select the type of scene present in the image ?'
p1618
S'interior kitchen'
p1619
I1
tp1620
a(g12
g13
S'children sign'
p1621
I1
tp1622
a(g1
g2
S'blue basketball uniforms'
p1623
I1
tp1624
a(g5
S'What is the type of scene present in the image ?'
p1625
S'trumpet outside'
p1626
I1
tp1627
a(g5
S'Select the type of scene present in the image ?'
p1628
S'street poor'
p1629
I1
tp1630
a(g60
g61
S'model biplane'
p1631
I1
tp1632
a(g12
g13
S'red top rail'
p1633
I1
tp1634
a(g12
g13
S'yellow warning tape'
p1635
I1
tp1636
a(g5
S'What is the type of scene present in the image ?'
p1637
S'open plaza'
p1638
I1
tp1639
a(g5
S'Select the type of scene present in the image ?'
p1640
S'department store'
p1641
I1
tp1642
a(g12
g13
S'side wall'
p1643
I1
tp1644
a(g5
S'What is the type of scene present in the image ?'
p1645
S'nice lawn'
p1646
I1
tp1647
a(g12
g13
S'wall mirrors'
p1648
I1
tp1649
a(g5
S'Select the type of scene present in the image ?'
p1650
S'metal piece fence'
p1651
I1
tp1652
a(g5
S'What is the type of scene present in the image ?'
p1653
S'item stand'
p1654
I1
tp1655
a(g12
g13
S'hot pads'
p1656
I1
tp1657
a(g12
g13
S'wooden box'
p1658
I1
tp1659
a(g5
S'Select the type of scene present in the image ?'
p1660
S'sandy floor'
p1661
I1
tp1662
a(g5
S'What is the type of scene present in the image ?'
p1663
S'white tee'
p1664
I1
tp1665
a(g12
g13
S'maybe tokyo'
p1666
I1
tp1667
a(g12
g13
S'apron cuts'
p1668
I1
tp1669
a(g12
g13
S'mushroom'
p1670
I1
tp1671
a(g12
g13
S'winter wear'
p1672
I1
tp1673
a(g12
g13
S'two women '
p1674
I1
tp1675
a(g12
g13
S'scale'
p1676
I1
tp1677
a(g1
g2
S'full face mask'
p1678
I1
tp1679
a(g1
g2
S'doctors coat'
p1680
I1
tp1681
a(g1
g2
S'matching mask'
p1682
I1
tp1683
a(g1
g2
S'red print dress'
p1684
I1
tp1685
a(g12
g13
S'bungee'
p1686
I1
tp1687
a(g216
S'Select the type of bodyparts present in the image ?'
p1688
S'blond woman '
p1689
I1
tp1690
a(g12
g13
S'land mass'
p1691
I1
tp1692
a(g5
S'What is the type of scene present in the image ?'
p1693
S'small garden outside'
p1694
I1
tp1695
a(g5
S'Select the type of scene present in the image ?'
p1696
S'rock bridge'
p1697
I1
tp1698
a(g18
S'How many people are present in the image ?'
p1699
S'two helmeted men'
p1700
I1
tp1701
a(g5
S'What is the type of scene present in the image ?'
p1702
S'tomb'
p1703
I1
tp1704
a(g12
g13
S'armchair'
p1705
I1
tp1706
a(g18
S'How many people are present in the image ?'
p1707
S'one indian boy'
p1708
I1
tp1709
a(g1
g2
S'black sling bag'
p1710
I1
tp1711
a(g1
g2
S'blue purple striped shirt'
p1712
I1
tp1713
a(g12
g13
S'adult soccer game'
p1714
I1
tp1715
a(g5
S'Select the type of scene present in the image ?'
p1716
S'large pier'
p1717
I1
tp1718
a(g18
S'How many people are present in the image ?'
p1719
S'middle four men'
p1720
I1
tp1721
a(g5
S'What is the type of scene present in the image ?'
p1722
S'old building'
p1723
I1
tp1724
a(g12
g13
S'battery powered locomotives'
p1725
I1
tp1726
a(g5
S'Select the type of scene present in the image ?'
p1727
S'oriental shop'
p1728
I1
tp1729
a(g1
g2
S'wings'
p1730
I1
tp1731
a(g12
g13
S'red white confetti'
p1732
I1
tp1733
a(g1
g2
S'large goggles'
p1734
I1
tp1735
a(g12
g13
S'plastic sled'
p1736
I1
tp1737
a(g12
g13
S'stone table'
p1738
I1
tp1739
a(g216
S'What is the type of bodyparts present in the image ?'
p1740
S'tongue'
p1741
I1
tp1742
a(g1
g2
S'blue plaid shirt'
p1743
I1
tp1744
a(g5
S'Select the type of scene present in the image ?'
p1745
S'pier lake'
p1746
I1
tp1747
a(g12
g13
S'colorful squares'
p1748
I1
tp1749
a(g12
g13
S'powerpoint'
p1750
I1
tp1751
a(g1
g2
S'muddy jeans'
p1752
I1
tp1753
a(g12
g13
S'dinner conversation'
p1754
I1
tp1755
a(g5
S'What is the type of scene present in the image ?'
p1756
S'heavily tree'
p1757
I1
tp1758
a(g18
S'How many people are present in the image ?'
p1759
S'two teens'
p1760
I1
tp1761
a(g5
S'Select the type of scene present in the image ?'
p1762
S'tiled street'
p1763
I1
tp1764
a(g1
g2
S'red headband'
p1765
I1
tp1766
a(g5
S'What is the type of scene present in the image ?'
p1767
S'grassy parking area'
p1768
I1
tp1769
a(g12
g13
S'picture fruit'
p1770
I1
tp1771
a(g12
g13
S'dinner'
p1772
I1
tp1773
a(g12
g13
S'candle'
p1774
I1
tp1775
a(g12
g13
S'plastic toys'
p1776
I1
tp1777
a(g5
S'Select the type of scene present in the image ?'
p1778
S'water jets'
p1779
I1
tp1780
a(g5
S'What is the type of scene present in the image ?'
p1781
S'left'
p1782
I1
tp1783
a(g12
g13
S'sun'
p1784
I1
tp1785
a(g12
g13
S'life fitness treadmill'
p1786
I1
tp1787
a(g216
S'Select the type of bodyparts present in the image ?'
p1788
S'low wave head'
p1789
I1
tp1790
a(g1
g2
S'blue orange dress'
p1791
I1
tp1792
a(g1
g2
S'shoe'
p1793
I1
tp1794
a(g5
S'What is the type of scene present in the image ?'
p1795
S'family room'
p1796
I1
tp1797
a(g12
g13
g191
I1
tp1798
a(g5
S'Select the type of scene present in the image ?'
p1799
S'shipping harbor'
p1800
I1
tp1801
a(g216
S'What is the type of bodyparts present in the image ?'
p1802
S'bald head'
p1803
I1
tp1804
a(g12
g13
S'metal pole'
p1805
I1
tp1806
a(g12
g13
S'blue street sign'
p1807
I1
tp1808
a(g12
g13
S'wooden boards'
p1809
I1
tp1810
a(g12
g13
S'perfume'
p1811
I1
tp1812
a(g12
g13
S'railway lines'
p1813
I1
tp1814
a(g1
g2
S'yellow'
p1815
I1
tp1816
a(g666
S'How many animals are present in the image ?'
p1817
S'two geese'
p1818
I1
tp1819
a(g12
g13
S'red lights flash'
p1820
I1
tp1821
a(g12
g13
S'rodeo'
p1822
I1
tp1823
a(g60
g61
S'nearby scooter'
p1824
I1
tp1825
a(g5
S'Select the type of scene present in the image ?'
p1826
S'hill'
p1827
I1
tp1828
a(g12
g13
S'outdoor group exercise'
p1829
I1
tp1830
a(g1
g2
S'long black coat'
p1831
I1
tp1832
a(g12
g13
S'magnifying lenses'
p1833
I1
tp1834
a(g12
g13
S'entrance cafe'
p1835
I1
tp1836
a(g12
g13
S'mulch'
p1837
I1
tp1838
a(g12
g13
S'field fresh corn'
p1839
I1
tp1840
a(g12
g13
S'orange bonnet'
p1841
I1
tp1842
a(g5
S'What is the type of scene present in the image ?'
p1843
S'workplace'
p1844
I1
tp1845
a(g5
S'Select the type of scene present in the image ?'
p1846
S'picturesque day'
p1847
I1
tp1848
a(g12
g13
S'similar shaped object'
p1849
I1
tp1850
a(g5
S'What is the type of scene present in the image ?'
p1851
S'large white building'
p1852
I1
tp1853
a(g60
g61
S'cars'
p1854
I1
tp1855
a(g5
S'Select the type of scene present in the image ?'
p1856
S'wooden walkway'
p1857
I1
tp1858
a(g12
g13
S'black tassel'
p1859
I1
tp1860
a(g5
S'What is the type of scene present in the image ?'
p1861
S'skydiving drip'
p1862
I1
tp1863
a(g12
g13
S'onions'
p1864
I1
tp1865
a(g12
g13
S'maintenance work'
p1866
I1
tp1867
a(g216
S'Select the type of bodyparts present in the image ?'
p1868
g796
I1
tp1869
a(g12
g13
S'caboose'
p1870
I1
tp1871
a(g18
S'How many people are present in the image ?'
p1872
S'two potential customers'
p1873
I1
tp1874
a(g12
g13
S'boy shovels sand'
p1875
I1
tp1876
a(g12
g13
S'temporary railings'
p1877
I1
tp1878
a(g216
S'What is the type of bodyparts present in the image ?'
p1879
S'protective knee'
p1880
I1
tp1881
a(g12
g13
S'building debris'
p1882
I1
tp1883
a(g1
g2
S'striped blue polo shirts'
p1884
I1
tp1885
a(g18
S'How many people are present in the image ?'
p1886
S'two guys'
p1887
I1
tp1888
a(g12
g13
S'sludge hammer'
p1889
I1
tp1890
a(g12
g13
S'public sprinklers'
p1891
I1
tp1892
a(g12
g13
S'cowboy hat ropes'
p1893
I1
tp1894
a(g5
S'Select the type of scene present in the image ?'
p1895
S'italian airport'
p1896
I1
tp1897
a(g12
g13
S'rooming'
p1898
I1
tp1899
a(g12
g13
S'interaction'
p1900
I1
tp1901
a(g1
g2
S'red helmet'
p1902
I1
tp1903
a(g12
g13
S'money hahaha'
p1904
I1
tp1905
a(g12
g13
S'handle grill'
p1906
I1
tp1907
a(g5
S'What is the type of scene present in the image ?'
p1908
S'powerade sponsored event'
p1909
I1
tp1910
a(g12
g13
S'dirt racetrack'
p1911
I1
tp1912
a(g1
g2
S'gray shirt'
p1913
I1
tp1914
a(g5
S'Select the type of scene present in the image ?'
p1915
S'grassy park'
p1916
I1
tp1917
a(g12
g13
S'patio one'
p1918
I1
tp1919
a(g12
g13
S'grocery '
p1920
I1
tp1921
a(g12
g13
S'saris hair wraps'
p1922
I1
tp1923
a(g12
g13
S'field flowers'
p1924
I1
tp1925
a(g5
S'What is the type of scene present in the image ?'
p1926
S'states'
p1927
I1
tp1928
a(g12
g13
S'green white striped awning'
p1929
I1
tp1930
a(g12
g13
S'red heart'
p1931
I1
tp1932
a(g12
g13
S'blue chair'
p1933
I1
tp1934
a(g12
g13
S'6 beers'
p1935
I1
tp1936
a(g12
g13
S'easels'
p1937
I1
tp1938
a.