(lp0
(S'clothing'
p1
S'What is the person in the image wearing ?'
p2
S'striped polo shirt'
p3
I1
tp4
a(g1
S'What is the type of clothing present in the image ?'
p5
g3
I1
tp6
a(S'scene'
p7
S'Select the type of scene present in the image ?'
p8
S'seated position'
p9
I1
tp10
a(g7
S'What is the type of scene present in the image ?'
p11
S'motorcycle track'
p12
I1
tp13
a(S'other'
p14
S'Which of the following is present in the image ?'
p15
S'dumbbell'
p16
I1
tp17
a(g14
g15
S'several bags different sizes'
p18
I1
tp19
a(S'people'
p20
S'How many youngsters are there in the image ?'
p21
S'five youngsters'
p22
I0
tp23
a(g20
S'Select the type of people present in the image ?'
p24
g22
I1
tp25
a(g14
g15
S'website'
p26
I1
tp27
a(g14
g15
S'recent weeks'
p28
I1
tp29
a(g14
g15
S'brown strap'
p30
I1
tp31
a(g14
g15
S'desk lamp'
p32
I1
tp33
a(g7
S'What is the type of scene present in the image ?'
p34
S'outdoor market'
p35
I1
tp36
a(g14
g15
S'television'
p37
I1
tp38
a(g14
g15
S'green barrier'
p39
I1
tp40
a(g14
g15
S'door'
p41
I1
tp42
a(g7
S'Select the type of scene present in the image ?'
p43
S'sewing factory'
p44
I1
tp45
a(g20
S'What is the type of people present in the image ?'
p46
S'sponsor'
p47
I1
tp48
a(g20
S'Select the type of people present in the image ?'
p49
g20
I1
tp50
a(g1
g2
S'long yellow jacket'
p51
I1
tp52
a(g1
S'What is the type of clothing present in the image ?'
p53
g51
I1
tp54
a(g14
g15
S'row yellow chairs'
p55
I1
tp56
a(g14
g15
S'walk'
p57
I1
tp58
a(g7
S'Select the type of scene present in the image ?'
p59
S'merchandise jewelry kiosk'
p60
I1
tp61
a(g14
g15
S'orange snow shovel'
p62
I1
tp63
a(g7
S'What is the type of scene present in the image ?'
p64
S'train track'
p65
I1
tp66
a(g1
g2
S'sports jacket'
p67
I1
tp68
a(g1
S'Select the type of clothing present in the image ?'
p69
g67
I1
tp70
a(g14
g15
S'groceries'
p71
I1
tp72
a(S'vehicles'
p73
S'What is the type of vehicles present in the image ?'
p74
S'bike'
p75
I1
tp76
a(g1
g2
S'traditional finnish clothing'
p77
I1
tp78
a(g1
S'Select the type of clothing present in the image ?'
p79
g77
I1
tp80
a(g14
g15
S'canadian maple leaf'
p81
I1
tp82
a(g7
S'What is the type of scene present in the image ?'
p83
S'busy city'
p84
I1
tp85
a(g1
g2
S'blue sports clothes'
p86
I1
tp87
a(g1
S'Select the type of clothing present in the image ?'
p88
g86
I1
tp89
a(g14
g15
S'new york'
p90
I1
tp91
a(g14
g15
S'100 meter dash'
p92
I1
tp93
a(g14
g15
S'various figurines'
p94
I1
tp95
a(g14
g15
S'water noodle'
p96
I1
tp97
a(g20
S'What is the type of people present in the image ?'
p98
S'brightly dressed man'
p99
I1
tp100
a(g1
g2
S'2 different socks'
p101
I1
tp102
a(g1
S'Select the type of clothing present in the image ?'
p103
g101
I1
tp104
a(g20
S'What is the type of people present in the image ?'
p105
S'male choir'
p106
I1
tp107
a(g20
S'Select the type of people present in the image ?'
p108
S'player'
p109
I1
tp110
a(g20
S'What is the type of people present in the image ?'
p111
S'rock band'
p112
I1
tp113
a(g14
g15
S'charity'
p114
I1
tp115
a(g14
g15
S'buddhist hindu decorations'
p116
I1
tp117
a(g7
S'Select the type of scene present in the image ?'
p118
S'school hallway'
p119
I1
tp120
a(g14
g15
S'flyer'
p121
I1
tp122
a(g7
S'What is the type of scene present in the image ?'
p123
S'leafless forest'
p124
I1
tp125
a(g14
g15
S'large community mural'
p126
I1
tp127
a(g14
g15
S'look'
p128
I1
tp129
a(g14
g15
S'reaction'
p130
I1
tp131
a(g20
S'Select the type of people present in the image ?'
p132
S'red soccer team'
p133
I1
tp134
a(g7
S'What is the type of scene present in the image ?'
p135
S'asian seafood market'
p136
I1
tp137
a(g20
S'Select the type of people present in the image ?'
p138
S'dish jet washer'
p139
I1
tp140
a(g7
S'What is the type of scene present in the image ?'
p141
S'damp city street'
p142
I1
tp143
a(g14
g15
S'jars goods'
p144
I1
tp145
a(g14
g15
S'black neon colors'
p146
I1
tp147
a(g14
g15
S'orange traffic cone'
p148
I1
tp149
a(g20
S'How many roommates are there in the image ?'
p150
S'three roommates'
p151
I0
tp152
a(g20
S'Select the type of people present in the image ?'
p153
g151
I1
tp154
a(g7
S'What is the type of scene present in the image ?'
p155
S'grim day'
p156
I1
tp157
a(g14
g15
S'laptop keyboard'
p158
I1
tp159
a(g7
S'Select the type of scene present in the image ?'
p160
S'middle mountains'
p161
I1
tp162
a(g14
g15
S'public square'
p163
I1
tp164
a(g1
g2
S'pair shorts'
p165
I1
tp166
a(g1
S'What is the type of clothing present in the image ?'
p167
g165
I1
tp168
a(g73
S'Select the type of vehicles present in the image ?'
p169
S'window public transportation vehicle'
p170
I1
tp171
a(g7
S'What is the type of scene present in the image ?'
p172
S'view intersection'
p173
I1
tp174
a(g14
g15
S'two heavy bags ice'
p175
I1
tp176
a(g14
g15
S'blurred photograph'
p177
I1
tp178
a(g14
g15
S'area full boxes'
p179
I1
tp180
a(g73
S'Select the type of vehicles present in the image ?'
p181
S'emergency vehicle'
p182
I1
tp183
a(g7
S'What is the type of scene present in the image ?'
p184
S'rodeo event'
p185
I1
tp186
a(g1
g2
S'white tote bag'
p187
I1
tp188
a(g1
S'Select the type of clothing present in the image ?'
p189
g187
I1
tp190
a(g14
g15
S'someone films'
p191
I1
tp192
a(g14
g15
S'rowboat'
p193
I1
tp194
a(g14
g15
S'white strip'
p195
I1
tp196
a(g14
g15
S'horrific artwork'
p197
I1
tp198
a(g14
g15
S'bike race'
p199
I1
tp200
a(g14
g15
S'dinosaur'
p201
I1
tp202
a(g20
S'What is the type of people present in the image ?'
p203
S'action shot surfer'
p204
I1
tp205
a(g14
g15
S'woman load'
p206
I1
tp207
a(g7
S'Select the type of scene present in the image ?'
p208
S'starting blocks'
p209
I1
tp210
a(g14
g15
S'burgundy'
p211
I1
tp212
a(g1
g2
S'ladies helmet'
p213
I1
tp214
a(g1
S'What is the type of clothing present in the image ?'
p215
g213
I1
tp216
a(g14
g15
S'white framed glass canopy'
p217
I1
tp218
a(g1
g2
S'different color clothing'
p219
I1
tp220
a(g1
S'Select the type of clothing present in the image ?'
p221
g219
I1
tp222
a(g14
g15
S'mountain bike spokes'
p223
I1
tp224
a(g1
g2
S'darth vader outfit'
p225
I1
tp226
a(g1
S'What is the type of clothing present in the image ?'
p227
g225
I1
tp228
a(g14
g15
S'checkerboard'
p229
I1
tp230
a(g14
g15
S'applauding'
p231
I1
tp232
a(g14
g15
S'barbecues'
p233
I1
tp234
a(g7
S'Select the type of scene present in the image ?'
p235
S'scarf pass'
p236
I1
tp237
a(g20
S'What is the type of people present in the image ?'
p238
S'several background people'
p239
I1
tp240
a(S'animals'
p241
S'Select the type of animals present in the image ?'
p242
S'different varieties fish'
p243
I1
tp244
a(g20
S'What is the type of people present in the image ?'
p245
S'old '
p246
I1
tp247
a(g14
g15
S'goodies'
p248
I1
tp249
a(g1
g2
S'loincloth'
p250
I1
tp251
a(g1
S'Select the type of clothing present in the image ?'
p252
g250
I1
tp253
a(g7
S'What is the type of scene present in the image ?'
p254
S'bottom small waterfall'
p255
I1
tp256
a(g14
g15
S'jet'
p257
I1
tp258
a(g20
S'How many adolescent girls are there in the image ?'
p259
S'two adolescent girls'
p260
I0
tp261
a(g20
S'Select the type of people present in the image ?'
p262
g260
I1
tp263
a(g14
g15
S'vegetables'
p264
I1
tp265
a(g20
S'What is the type of people present in the image ?'
p266
S'striped flowered jumper'
p267
I1
tp268
a(g1
g2
S'blue yarmulke'
p269
I1
tp270
a(g1
S'Select the type of clothing present in the image ?'
p271
g269
I1
tp272
a(g1
g2
S'dark colored clothing'
p273
I1
tp274
a(g1
S'What is the type of clothing present in the image ?'
p275
g273
I1
tp276
a(g20
S'How many older boy scouts are there in the image ?'
p277
S'two older boy scouts'
p278
I0
tp279
a(g20
S'Select the type of people present in the image ?'
p280
g278
I1
tp281
a(g14
g15
S'trash receptacle'
p282
I1
tp283
a(g7
S'What is the type of scene present in the image ?'
p284
S'water flow'
p285
I1
tp286
a(g7
S'Select the type of scene present in the image ?'
p287
S'monkey bars'
p288
I1
tp289
a(g7
S'What is the type of scene present in the image ?'
p290
S'roundabout'
p291
I1
tp292
a(S'bodyparts'
p293
S'Select the type of bodyparts present in the image ?'
p294
S'boy heads'
p295
I1
tp296
a(g1
g2
S'blue white striped sweater'
p297
I1
tp298
a(g1
S'What is the type of clothing present in the image ?'
p299
g297
I1
tp300
a(g1
g2
S'two hats'
p301
I1
tp302
a(g1
S'Select the type of clothing present in the image ?'
p303
g301
I1
tp304
a(g14
g15
S'red long board'
p305
I1
tp306
a(g293
S'What is the type of bodyparts present in the image ?'
p307
S'leg'
p308
I1
tp309
a(g20
S'Select the type of people present in the image ?'
p310
S'actual baseball players'
p311
I1
tp312
a(g7
S'What is the type of scene present in the image ?'
p313
S'art museum'
p314
I1
tp315
a(g1
g2
S'blue brown shirt'
p316
I1
tp317
a(g1
S'Select the type of clothing present in the image ?'
p318
g316
I1
tp319
a(g20
S'What is the type of people present in the image ?'
p320
S'announcer'
p321
I1
tp322
a(g7
S'Select the type of scene present in the image ?'
p323
S'ankle'
p324
I1
tp325
a(g14
g15
S'bright red stage lights'
p326
I1
tp327
a(g14
g15
S'one moves'
p328
I1
tp329
a(g20
S'How many cyclist are there in the image ?'
p330
S'one cyclist'
p331
I0
tp332
a(g20
S'What is the type of people present in the image ?'
p333
g331
I1
tp334
a(g7
S'Select the type of scene present in the image ?'
p335
S'waterfront street'
p336
I1
tp337
a(g14
g15
S'yellow caution tape'
p338
I1
tp339
a(g14
g15
S'clothes rack'
p340
I1
tp341
a(g14
g15
S'processes'
p342
I1
tp343
a(g14
g15
S'red tomato'
p344
I1
tp345
a(g1
g2
S'black backwards baseball cap'
p346
I1
tp347
a(g1
S'What is the type of clothing present in the image ?'
p348
g346
I1
tp349
a(g241
S'Select the type of animals present in the image ?'
p350
S'black dog'
p351
I1
tp352
a(g7
S'What is the type of scene present in the image ?'
p353
S'convention center'
p354
I1
tp355
a(g20
S'Select the type of people present in the image ?'
p356
S'similar ensembles'
p357
I1
tp358
a(g1
g2
S'tan khaki shorts'
p359
I1
tp360
a(g1
S'What is the type of clothing present in the image ?'
p361
g359
I1
tp362
a(g20
S'How many asian chefs are there in the image ?'
p363
S'two asian chefs'
p364
I0
tp365
a(g20
S'Select the type of people present in the image ?'
p366
g364
I1
tp367
a(g7
S'What is the type of scene present in the image ?'
p368
S'busy asian street'
p369
I1
tp370
a(g7
S'Select the type of scene present in the image ?'
p371
S'small brook'
p372
I1
tp373
a(g14
g15
S'oriental style'
p374
I1
tp375
a(g1
g2
S'stylish clothes'
p376
I1
tp377
a(g1
S'What is the type of clothing present in the image ?'
p378
g376
I1
tp379
a(g14
g15
S'flags'
p380
I1
tp381
a(g7
S'Select the type of scene present in the image ?'
p382
S'another event'
p383
I1
tp384
a(g7
S'What is the type of scene present in the image ?'
p385
S'rogue waves'
p386
I1
tp387
a(g1
g2
S'orange'
p388
I1
tp389
a(g1
S'Select the type of clothing present in the image ?'
p390
g388
I1
tp391
a(g14
g15
S'orange roadwork sign'
p392
I1
tp393
a(g14
g15
S'christmas gifts'
p394
I1
tp395
a(g7
S'What is the type of scene present in the image ?'
p396
S'bright blue cloudy sky'
p397
I1
tp398
a(g14
g15
S'big toy'
p399
I1
tp400
a(g1
g2
S'short skirts'
p401
I1
tp402
a(g1
S'Select the type of clothing present in the image ?'
p403
g401
I1
tp404
a(g1
g2
S'black cowboy hat'
p405
I1
tp406
a(g1
S'What is the type of clothing present in the image ?'
p407
g405
I1
tp408
a(g1
g2
S'blue hairnets'
p409
I1
tp410
a(g1
S'Select the type of clothing present in the image ?'
p411
g409
I1
tp412
a(g14
g15
S'stair rail'
p413
I1
tp414
a(g14
g15
S'subway window'
p415
I1
tp416
a(g14
g15
S'black advertising banner'
p417
I1
tp418
a(g1
g2
S'tan sports jacket'
p419
I1
tp420
a(g1
S'What is the type of clothing present in the image ?'
p421
g419
I1
tp422
a(g14
g15
S'ou'
p423
I1
tp424
a(g14
g15
S'camouflage crawls'
p425
I1
tp426
a(g20
S'Select the type of people present in the image ?'
p427
S'chinese olympic squash player'
p428
I1
tp429
a(g7
S'What is the type of scene present in the image ?'
p430
S'mouth open'
p431
I1
tp432
a(g14
g15
S'couch'
p433
I1
tp434
a(g7
S'Select the type of scene present in the image ?'
p435
S'steps large stone building'
p436
I1
tp437
a(g7
S'What is the type of scene present in the image ?'
p438
S'puppet shop'
p439
I1
tp440
a(g14
g15
S'child post'
p441
I1
tp442
a(g1
g2
S'yankees cap'
p443
I1
tp444
a(g1
S'Select the type of clothing present in the image ?'
p445
g443
I1
tp446
a(g20
S'What is the type of people present in the image ?'
p447
S'small '
p448
I1
tp449
a(g14
g15
S'four wheeler'
p450
I1
tp451
a(g14
g15
S'shade canopy'
p452
I1
tp453
a(g20
S'Select the type of people present in the image ?'
p454
S'logo woman'
p455
I1
tp456
a(g1
g2
S'ken'
p457
I1
tp458
a(g1
S'What is the type of clothing present in the image ?'
p459
g457
I1
tp460
a(g20
S'Select the type of people present in the image ?'
p461
S'large crowd people'
p462
I1
tp463
a(g14
g15
S'splits'
p464
I1
tp465
a(g73
S'What is the type of vehicles present in the image ?'
p466
S'rapid transit'
p467
I1
tp468
a(g73
S'Select the type of vehicles present in the image ?'
p469
S'toy trucks'
p470
I1
tp471
a(g20
S'What is the type of people present in the image ?'
p472
S'athlete'
p473
I1
tp474
a(g20
S'Select the type of people present in the image ?'
p475
S'group asian people'
p476
I1
tp477
a(g20
S'How many kayakers are there in the image ?'
p478
S'two kayakers'
p479
I0
tp480
a(g20
S'What is the type of people present in the image ?'
p481
g479
I1
tp482
a(g14
g15
S'boat race'
p483
I1
tp484
a(g20
S'How many person are there in the image ?'
p485
S'one person'
p486
I0
tp487
a(g20
S'Select the type of people present in the image ?'
p488
g486
I1
tp489
a(g14
g15
S'snowboard'
p490
I1
tp491
a(g20
S'What is the type of people present in the image ?'
p492
S'graffiti artists'
p493
I1
tp494
a(g7
S'Select the type of scene present in the image ?'
p495
S'crowded coffee shop'
p496
I1
tp497
a(g7
S'What is the type of scene present in the image ?'
p498
S'white seat'
p499
I1
tp500
a(g20
S'How many chefs are there in the image ?'
p501
S'two chefs'
p502
I0
tp503
a(g20
S'Select the type of people present in the image ?'
p504
g502
I1
tp505
a(g20
S'What is the type of people present in the image ?'
p506
S'sunglasses peers'
p507
I1
tp508
a(g14
g15
S'french names'
p509
I1
tp510
a(g20
S'Select the type of people present in the image ?'
p511
S'masked men'
p512
I1
tp513
a(g20
S'What is the type of people present in the image ?'
p514
S'another wrestler'
p515
I1
tp516
a(g1
g2
S'green soccer outfit'
p517
I1
tp518
a(g1
S'Select the type of clothing present in the image ?'
p519
g517
I1
tp520
a(g14
g15
S'two displays'
p521
I1
tp522
a(g20
S'What is the type of people present in the image ?'
p523
S'working women'
p524
I1
tp525
a(g14
g15
S'push ups'
p526
I1
tp527
a(g1
g2
S'rugby uniform'
p528
I1
tp529
a(g1
S'Select the type of clothing present in the image ?'
p530
g528
I1
tp531
a(g14
g15
S'exercise pylons'
p532
I1
tp533
a(g7
S'What is the type of scene present in the image ?'
p534
S'rough waves'
p535
I1
tp536
a(g7
S'Select the type of scene present in the image ?'
p537
S'splashed water'
p538
I1
tp539
a(g20
S'What is the type of people present in the image ?'
p540
S'class art students'
p541
I1
tp542
a(g1
g2
S'gray button shirt'
p543
I1
tp544
a(g1
S'Select the type of clothing present in the image ?'
p545
g543
I1
tp546
a(g20
S'What is the type of people present in the image ?'
p547
S'determined crosscountry runner'
p548
I1
tp549
a(g7
S'Select the type of scene present in the image ?'
p550
S'car seat'
p551
I1
tp552
a(g14
g15
S'meat'
p553
I1
tp554
a(g14
g15
S'cuffs'
p555
I1
tp556
a(g14
g15
S'bike ride race'
p557
I1
tp558
a(g14
g15
S'different editing techniques'
p559
I1
tp560
a(g7
S'What is the type of scene present in the image ?'
p561
S'city road'
p562
I1
tp563
a(g14
g15
S'group speed ice skaters race'
p564
I1
tp565
a(g20
S'Select the type of people present in the image ?'
p566
S'couple friends'
p567
I1
tp568
a(g1
g2
S'blue yellow bodysuit'
p569
I1
tp570
a(g1
S'What is the type of clothing present in the image ?'
p571
g569
I1
tp572
a(g14
g15
S'today'
p573
I1
tp574
a(g1
g2
S'red striped soccer shirt'
p575
I1
tp576
a(g1
S'Select the type of clothing present in the image ?'
p577
g575
I1
tp578
a(g14
g15
S'broken couch'
p579
I1
tp580
a(g293
S'What is the type of bodyparts present in the image ?'
p581
S'concerned faces'
p582
I1
tp583
a(g14
g15
S'foreign festival'
p584
I1
tp585
a(g14
g15
S'pleasure'
p586
I1
tp587
a(g14
g15
S'foods'
p588
I1
tp589
a(g7
S'Select the type of scene present in the image ?'
p590
S'waterfront'
p591
I1
tp592
a(g1
g2
S'red swimsuit'
p593
I1
tp594
a(g1
S'What is the type of clothing present in the image ?'
p595
g593
I1
tp596
a(g14
g15
S'runner '
p597
I1
tp598
a(g20
S'Select the type of people present in the image ?'
p599
S'soccer players'
p600
I1
tp601
a(g293
S'What is the type of bodyparts present in the image ?'
p602
S'fathers shoulders'
p603
I1
tp604
a(g20
S'Select the type of people present in the image ?'
p605
S'old chinese man'
p606
I1
tp607
a(g7
S'What is the type of scene present in the image ?'
p608
S'amusement park state fair'
p609
I1
tp610
a(S'instruments'
p611
S'Select the type of instruments present in the image ?'
p612
S'variety musical instruments'
p613
I1
tp614
a(g20
S'What is the type of people present in the image ?'
p615
S'young football player'
p616
I1
tp617
a(g1
g2
S'businessman '
p618
I1
tp619
a(g1
S'Select the type of clothing present in the image ?'
p620
g618
I1
tp621
a(g14
g15
S'blue netted course'
p622
I1
tp623
a(g14
g15
S'turquoise shirt grocery'
p624
I1
tp625
a(g1
g2
S'dirty white collared shirt'
p626
I1
tp627
a(g1
S'What is the type of clothing present in the image ?'
p628
g626
I1
tp629
a(g14
g15
S'travels'
p630
I1
tp631
a(g20
S'Select the type of people present in the image ?'
p632
S'foot riot police'
p633
I1
tp634
a(g1
g2
S'long maroon hat'
p635
I1
tp636
a(g1
S'What is the type of clothing present in the image ?'
p637
g635
I1
tp638
a(g14
g15
S'anticipated path football'
p639
I1
tp640
a(g14
g15
S'soap'
p641
I1
tp642
a(g14
g15
S'stuffed animal prizes'
p643
I1
tp644
a(g14
g15
S'spoon'
p645
I1
tp646
a(g20
S'Select the type of people present in the image ?'
p647
S'seamstress'
p648
I1
tp649
a(g7
S'What is the type of scene present in the image ?'
p650
S'happy day'
p651
I1
tp652
a(g7
S'Select the type of scene present in the image ?'
p653
S'sandy park area'
p654
I1
tp655
a(g14
g15
S'old fashioned'
p656
I1
tp657
a(g1
g2
S'martial arts uniforms'
p658
I1
tp659
a(g1
S'What is the type of clothing present in the image ?'
p660
g658
I1
tp661
a(g73
S'Select the type of vehicles present in the image ?'
p662
S'grocery cart'
p663
I1
tp664
a(g14
g15
S'temporary structure'
p665
I1
tp666
a(g14
g15
S'ax'
p667
I1
tp668
a(g1
g2
S'red flower print skirt'
p669
I1
tp670
a(g1
S'What is the type of clothing present in the image ?'
p671
g669
I1
tp672
a(g14
g15
S'gated housing complex'
p673
I1
tp674
a(g1
g2
S'red bathing suit'
p675
I1
tp676
a(g1
S'Select the type of clothing present in the image ?'
p677
g675
I1
tp678
a(g1
g2
S'black jackets'
p679
I1
tp680
a(g1
S'What is the type of clothing present in the image ?'
p681
g679
I1
tp682
a(g7
S'Select the type of scene present in the image ?'
p683
S'archaeological dig'
p684
I1
tp685
a(g14
g15
S'two scientists research biology'
p686
I1
tp687
a(g20
S'What is the type of people present in the image ?'
p688
S'pianist'
p689
I1
tp690
a(g20
S'Select the type of people present in the image ?'
p691
S'swimming instructors'
p692
I1
tp693
a(g14
g15
S'sorts'
p694
I1
tp695
a(g14
g15
S'sit'
p696
I1
tp697
a(g14
g15
S'papers'
p698
I1
tp699
a(g14
g15
S'ford'
p700
I1
tp701
a(g1
g2
S'skimpy clothing'
p702
I1
tp703
a(g1
S'What is the type of clothing present in the image ?'
p704
g702
I1
tp705
a(g14
g15
S'beach ball toys'
p706
I1
tp707
a(g1
g2
S'three pairs granny panties'
p708
I1
tp709
a(g1
S'Select the type of clothing present in the image ?'
p710
g708
I1
tp711
a(g20
S'What is the type of people present in the image ?'
p712
S'large marble support column'
p713
I1
tp714
a(g14
g15
S'dirty wall'
p715
I1
tp716
a(g14
g15
S'orange cloth'
p717
I1
tp718
a(g14
g15
S'love jesus'
p719
I1
tp720
a(g14
g15
S'asian language'
p721
I1
tp722
a(g7
S'Select the type of scene present in the image ?'
p723
S'crowded street fair'
p724
I1
tp725
a(g7
S'What is the type of scene present in the image ?'
p726
S'burlap sack'
p727
I1
tp728
a(g1
g2
S'garter belt'
p729
I1
tp730
a(g1
S'Select the type of clothing present in the image ?'
p731
g729
I1
tp732
a(g20
S'What is the type of people present in the image ?'
p733
S'priest'
p734
I1
tp735
a(g14
g15
S'supplies'
p736
I1
tp737
a(g14
g15
S'oil painting'
p738
I1
tp739
a(g611
S'Select the type of instruments present in the image ?'
p740
S'lawn instrument'
p741
I1
tp742
a(g20
S'What is the type of people present in the image ?'
p743
S'texas a&m football player'
p744
I1
tp745
a(g7
S'Select the type of scene present in the image ?'
p746
S'main area'
p747
I1
tp748
a(g1
g2
S'blue shoes'
p749
I1
tp750
a(g1
S'What is the type of clothing present in the image ?'
p751
g749
I1
tp752
a(g14
g15
S'road cones'
p753
I1
tp754
a(g14
g15
S'fire pit'
p755
I1
tp756
a(g1
g2
S'white uniform'
p757
I1
tp758
a(g1
S'Select the type of clothing present in the image ?'
p759
g757
I1
tp760
a(g1
g2
S'houston uniform'
p761
I1
tp762
a(g1
S'What is the type of clothing present in the image ?'
p763
g761
I1
tp764
a(g14
g15
S'several blurred human figures'
p765
I1
tp766
a(g14
g15
S'offensive line'
p767
I1
tp768
a(g14
g15
S'slalom course'
p769
I1
tp770
a(g7
S'Select the type of scene present in the image ?'
p771
S'high rise building'
p772
I1
tp773
a(g14
g15
S'led sign'
p774
I1
tp775
a(g7
S'What is the type of scene present in the image ?'
p776
S'street bridge'
p777
I1
tp778
a(g14
g15
S'underpants'
p779
I1
tp780
a(g14
g15
S'others'
p781
I1
tp782
a(g14
g15
S'microphone'
p783
I1
tp784
a(g611
S'Select the type of instruments present in the image ?'
p785
S'clarinet'
p786
I1
tp787
a(g14
g15
S'backhoe'
p788
I1
tp789
a(g14
g15
S'steps'
p790
I1
tp791
a(g20
S'What is the type of people present in the image ?'
p792
S'group twenty'
p793
I1
tp794
a(g7
S'Select the type of scene present in the image ?'
p795
S'pink reach'
p796
I1
tp797
a(g14
g15
S'loud'
p798
I1
tp799
a(g1
g2
S'pink umbrella'
p800
I1
tp801
a(g1
S'What is the type of clothing present in the image ?'
p802
g800
I1
tp803
a(g20
S'Select the type of people present in the image ?'
p804
S'blond guitarist'
p805
I1
tp806
a(g293
S'What is the type of bodyparts present in the image ?'
p807
S'ten fingers'
p808
I1
tp809
a(g7
S'Select the type of scene present in the image ?'
p810
S'empty seats'
p811
I1
tp812
a(g7
S'What is the type of scene present in the image ?'
p813
S'scenic bridge'
p814
I1
tp815
a(g611
S'Select the type of instruments present in the image ?'
p816
S'taiko drum'
p817
I1
tp818
a(g7
S'What is the type of scene present in the image ?'
p819
S'back home'
p820
I1
tp821
a(g241
S'Select the type of animals present in the image ?'
p822
S'brightly colored bird'
p823
I1
tp824
a(g293
S'What is the type of bodyparts present in the image ?'
p825
S'whole body'
p826
I1
tp827
a(g14
g15
S'homemade clock'
p828
I1
tp829
a(g7
S'Select the type of scene present in the image ?'
p830
S'common room'
p831
I1
tp832
a(g7
S'What is the type of scene present in the image ?'
p833
S'break'
p834
I1
tp835
a(g293
S'Select the type of bodyparts present in the image ?'
p836
S'crocodile '
p837
I1
tp838
a(g20
S'What is the type of people present in the image ?'
p839
S'fellow fireman'
p840
I1
tp841
a(g20
S'Select the type of people present in the image ?'
p842
S'cedar park football team quarterback'
p843
I1
tp844
a(g73
S'How many wheeled bikes are present in the image ?'
p845
S'three wheeled bikes'
p846
I0
tp847
a(g73
S'What is the type of vehicles present in the image ?'
p848
g846
I1
tp849
a(g14
g15
S'one shows'
p850
I1
tp851
a(g1
g2
S'blue vest'
p852
I1
tp853
a(g1
S'Select the type of clothing present in the image ?'
p854
g852
I1
tp855
a(g7
S'What is the type of scene present in the image ?'
p856
S'cloudy sky'
p857
I1
tp858
a(g14
g15
S'wall vhs'
p859
I1
tp860
a(g7
S'Select the type of scene present in the image ?'
p861
S'yellow room'
p862
I1
tp863
a(g14
g15
S'snowy hillside'
p864
I1
tp865
a(g1
g2
S'white hat'
p866
I1
tp867
a(g1
S'What is the type of clothing present in the image ?'
p868
g866
I1
tp869
a(g241
S'Select the type of animals present in the image ?'
p870
S'puppy'
p871
I1
tp872
a(g14
g15
S'warrior equipment'
p873
I1
tp874
a(g14
g15
S'wooden cross'
p875
I1
tp876
a(g20
S'What is the type of people present in the image ?'
p877
S'shot opposing player'
p878
I1
tp879
a(g7
S'Select the type of scene present in the image ?'
p880
S'old looking building'
p881
I1
tp882
a(g14
g15
S'new spring seeds'
p883
I1
tp884
a(g14
g15
S'fast food'
p885
I1
tp886
a(g7
S'What is the type of scene present in the image ?'
p887
S'urban residential area'
p888
I1
tp889
a(g1
g2
S'blue'
p890
I1
tp891
a(g1
S'Select the type of clothing present in the image ?'
p892
g890
I1
tp893
a(g14
g15
S'glasses combs'
p894
I1
tp895
a(g14
g15
S'busy'
p896
I1
tp897
a(g14
g15
S'morning ride'
p898
I1
tp899
a(g1
g2
S'dress shirt'
p900
I1
tp901
a(g1
S'What is the type of clothing present in the image ?'
p902
g900
I1
tp903
a(g20
S'Select the type of people present in the image ?'
p904
S'group navy men'
p905
I1
tp906
a(g241
S'What is the type of animals present in the image ?'
p907
S'horned cows'
p908
I1
tp909
a(g14
g15
S'carving'
p910
I1
tp911
a(g14
g15
S'head'
p912
I1
tp913
a(g14
g15
S'ref mid'
p914
I1
tp915
a(g14
g15
S'arizona'
p916
I1
tp917
a(g14
g15
S'every'
p918
I1
tp919
a(g7
S'Select the type of scene present in the image ?'
p920
S'flooded street'
p921
I1
tp922
a(g14
g15
S'scary movie flyer'
p923
I1
tp924
a(g1
g2
S'messenger bags'
p925
I1
tp926
a(g1
S'What is the type of clothing present in the image ?'
p927
g925
I1
tp928
a(g7
S'Select the type of scene present in the image ?'
p929
S'apparently oktoberfest'
p930
I1
tp931
a(g1
g2
S'white karate uniform'
p932
I1
tp933
a(g1
S'What is the type of clothing present in the image ?'
p934
g932
I1
tp935
a(g73
S'Select the type of vehicles present in the image ?'
p936
S'parachute glider'
p937
I1
tp938
a(g1
g2
S'rainbow colored bikini tops'
p939
I1
tp940
a(g1
S'What is the type of clothing present in the image ?'
p941
g939
I1
tp942
a(g14
g15
S'fisherman '
p943
I1
tp944
a(g20
S'How many boy are there in the image ?'
p945
S'two boy'
p946
I0
tp947
a(g20
S'Select the type of people present in the image ?'
p948
g946
I1
tp949
a(g7
S'What is the type of scene present in the image ?'
p950
S'view mountain'
p951
I1
tp952
a(g241
S'How many dog are present in the image ?'
p953
S'one dog'
p954
I0
tp955
a(g241
S'Select the type of animals present in the image ?'
p956
g954
I1
tp957
a(g20
S'How many veteran guy are there in the image ?'
p958
S'one veteran guy'
p959
I0
tp960
a(g20
S'What is the type of people present in the image ?'
p961
g959
I1
tp962
a(g7
S'Select the type of scene present in the image ?'
p963
S'view family '
p964
I1
tp965
a(g293
S'What is the type of bodyparts present in the image ?'
p966
S'elderly gentleman '
p967
I1
tp968
a(g1
g2
S'dark hat'
p969
I1
tp970
a(g1
S'Select the type of clothing present in the image ?'
p971
g969
I1
tp972
a(g14
g15
S'soccer net'
p973
I1
tp974
a(g20
S'What is the type of people present in the image ?'
p975
S'tired looking man'
p976
I1
tp977
a(g14
g15
S'lounge & grill'
p978
I1
tp979
a(g14
g15
S'dumpsters'
p980
I1
tp981
a(g14
g15
S'white tarp'
p982
I1
tp983
a(g7
S'Select the type of scene present in the image ?'
p984
S'street scene'
p985
I1
tp986
a(g73
S'What is the type of vehicles present in the image ?'
p987
S'coffee cart'
p988
I1
tp989
a(g14
g15
S'soccer skills'
p990
I1
tp991
a(g14
g15
S'miles'
p992
I1
tp993
a(g7
S'Select the type of scene present in the image ?'
p994
S'cool '
p995
I1
tp996
a(g14
g15
S'fancy door'
p997
I1
tp998
a(g20
S'What is the type of people present in the image ?'
p999
S''
p1000
I1
tp1001
a(g20
S'Select the type of people present in the image ?'
p1002
S'guide'
p1003
I1
tp1004
a(g7
S'What is the type of scene present in the image ?'
p1005
S'food court'
p1006
I1
tp1007
a(g20
S'Select the type of people present in the image ?'
p1008
S'strangers'
p1009
I1
tp1010
a(g7
S'What is the type of scene present in the image ?'
p1011
S'child outside'
p1012
I1
tp1013
a(g14
g15
S'side half pipe'
p1014
I1
tp1015
a(g14
g15
S'skateboard bowl'
p1016
I1
tp1017
a(g20
S'Select the type of people present in the image ?'
p1018
S'large class'
p1019
I1
tp1020
a(g14
g15
S'fireworks'
p1021
I1
tp1022
a(g14
g15
S'single pole'
p1023
I1
tp1024
a(g20
S'What is the type of people present in the image ?'
p1025
S'parents'
p1026
I1
tp1027
a(g14
g15
S'solider'
p1028
I1
tp1029
a(g241
S'Select the type of animals present in the image ?'
p1030
S'ox'
p1031
I1
tp1032
a(g14
g15
S'wall'
p1033
I1
tp1034
a(g20
S'What is the type of people present in the image ?'
p1035
S'young cheerleaders'
p1036
I1
tp1037
a(g1
g2
S'stocking cap'
p1038
I1
tp1039
a(g1
S'Select the type of clothing present in the image ?'
p1040
g1038
I1
tp1041
a(g7
S'What is the type of scene present in the image ?'
p1042
S'snow fence'
p1043
I1
tp1044
a(g14
g15
S'green shirt paint'
p1045
I1
tp1046
a(g14
g15
S'george stephanopoulos'
p1047
I1
tp1048
a(g7
S'Select the type of scene present in the image ?'
p1049
S'white building'
p1050
I1
tp1051
a(g20
S'What is the type of people present in the image ?'
p1052
S'woman cop'
p1053
I1
tp1054
a(g1
g2
S'yellow striped shirt'
p1055
I1
tp1056
a(g1
S'Select the type of clothing present in the image ?'
p1057
g1055
I1
tp1058
a(g1
g2
S'brown red coat'
p1059
I1
tp1060
a(g1
S'What is the type of clothing present in the image ?'
p1061
g1059
I1
tp1062
a(g14
g15
S'front window'
p1063
I1
tp1064
a(g7
S'Select the type of scene present in the image ?'
p1065
S'party atmosphere'
p1066
I1
tp1067
a(g73
S'What is the type of vehicles present in the image ?'
p1068
S'red food truck'
p1069
I1
tp1070
a(g14
g15
S'couple shares passion'
p1071
I1
tp1072
a(g1
g2
S'purple blue dresses'
p1073
I1
tp1074
a(g1
S'Select the type of clothing present in the image ?'
p1075
g1073
I1
tp1076
a(g14
g15
S'airborne'
p1077
I1
tp1078
a(g1
g2
S'blue speedo'
p1079
I1
tp1080
a(g1
S'What is the type of clothing present in the image ?'
p1081
g1079
I1
tp1082
a(g14
g15
S'next piece art'
p1083
I1
tp1084
a(g14
g15
S'poor conditions'
p1085
I1
tp1086
a(g14
g15
S'black water'
p1087
I1
tp1088
a(g14
g15
S'binocular'
p1089
I1
tp1090
a(g241
S'Select the type of animals present in the image ?'
p1091
S'red clad camels'
p1092
I1
tp1093
a(g241
S'What is the type of animals present in the image ?'
p1094
S'white gray dog'
p1095
I1
tp1096
a(g1
g2
S'wicker cowboy hat'
p1097
I1
tp1098
a(g1
S'Select the type of clothing present in the image ?'
p1099
g1097
I1
tp1100
a(g20
S'What is the type of people present in the image ?'
p1101
g20
I1
tp1102
a(g73
S'Select the type of vehicles present in the image ?'
p1103
S'decorated car'
p1104
I1
tp1105
a(g241
S'What is the type of animals present in the image ?'
p1106
S'several brown roosters'
p1107
I1
tp1108
a(g7
S'Select the type of scene present in the image ?'
p1109
S'large fountain'
p1110
I1
tp1111
a(g1
g2
S'hat'
p1112
I1
tp1113
a(g1
S'What is the type of clothing present in the image ?'
p1114
g1112
I1
tp1115
a(g1
g2
S'shiny orange shirt'
p1116
I1
tp1117
a(g1
S'Select the type of clothing present in the image ?'
p1118
g1116
I1
tp1119
a(g14
g15
S'blue pants scales'
p1120
I1
tp1121
a(g14
g15
S'many objects'
p1122
I1
tp1123
a(g14
g15
S'several cartoon characters'
p1124
I1
tp1125
a(g14
g15
S'indoor basketball game'
p1126
I1
tp1127
a(g14
g15
S'stair'
p1128
I1
tp1129
a(g14
g15
S'heat'
p1130
I1
tp1131
a(g14
g15
S'white refrigerator'
p1132
I1
tp1133
a(g20
S'How many female are there in the image ?'
p1134
S'one female'
p1135
I0
tp1136
a(g20
S'What is the type of people present in the image ?'
p1137
g1135
I1
tp1138
a(g7
S'Select the type of scene present in the image ?'
p1139
S'blue helmet wipes dirt'
p1140
I1
tp1141
a(g611
S'What is the type of instruments present in the image ?'
p1142
S'harmonica'
p1143
I1
tp1144
a(g14
g15
S'display motorcycles'
p1145
I1
tp1146
a(g14
g15
g1000
I1
tp1147
a(g14
g15
S'baby stare'
p1148
I1
tp1149
a(g7
S'Select the type of scene present in the image ?'
p1150
S'food stand'
p1151
I1
tp1152
a(g7
S'What is the type of scene present in the image ?'
p1153
S'desert'
p1154
I1
tp1155
a(g14
g15
S'computer ink'
p1156
I1
tp1157
a(g7
S'Select the type of scene present in the image ?'
p1158
S'gate post'
p1159
I1
tp1160
a(g7
S'What is the type of scene present in the image ?'
p1161
S'inside kiosk'
p1162
I1
tp1163
a(g7
S'Select the type of scene present in the image ?'
p1164
S'steep rocky cliffs'
p1165
I1
tp1166
a(g14
g15
S'phone cards'
p1167
I1
tp1168
a(g14
g15
S'manila folder'
p1169
I1
tp1170
a(g14
g15
S'women various ages'
p1171
I1
tp1172
a(g14
g15
S'rescue dummy'
p1173
I1
tp1174
a(g1
g2
S'african garb'
p1175
I1
tp1176
a(g1
S'What is the type of clothing present in the image ?'
p1177
g1175
I1
tp1178
a(g293
S'Select the type of bodyparts present in the image ?'
p1179
S'nearly four feet'
p1180
I1
tp1181
a(g7
S'What is the type of scene present in the image ?'
p1182
S'sidewalk street'
p1183
I1
tp1184
a(g14
g15
S'orange wheeled skates'
p1185
I1
tp1186
a(g14
g15
S'top lungs'
p1187
I1
tp1188
a(g7
S'Select the type of scene present in the image ?'
p1189
S'home'
p1190
I1
tp1191
a(g14
g15
S'geek squad sign'
p1192
I1
tp1193
a(g14
g15
S'blue hair ribbon'
p1194
I1
tp1195
a(g14
g15
S'outdoor carnival'
p1196
I1
tp1197
a(g14
g15
S'groves pines'
p1198
I1
tp1199
a(g241
S'What is the type of animals present in the image ?'
p1200
S'fuzzy goat'
p1201
I1
tp1202
a(g7
S'Select the type of scene present in the image ?'
p1203
S'forest trail'
p1204
I1
tp1205
a(g20
S'How many women swimmers are there in the image ?'
p1206
S'three women swimmers'
p1207
I0
tp1208
a(g20
S'What is the type of people present in the image ?'
p1209
g1207
I1
tp1210
a(g7
S'Select the type of scene present in the image ?'
p1211
S'glass dolphin enclosure'
p1212
I1
tp1213
a(g73
S'What is the type of vehicles present in the image ?'
p1214
S'flatbed'
p1215
I1
tp1216
a(g7
S'Select the type of scene present in the image ?'
p1217
S'area'
p1218
I1
tp1219
a(g1
g2
S'tan colored shirt'
p1220
I1
tp1221
a(g1
S'What is the type of clothing present in the image ?'
p1222
g1220
I1
tp1223
a(g20
S'Select the type of people present in the image ?'
p1224
S'bmx racers'
p1225
I1
tp1226
a(g14
g15
S'bales hay'
p1227
I1
tp1228
a(g1
g2
S'sparkly dress'
p1229
I1
tp1230
a(g1
S'What is the type of clothing present in the image ?'
p1231
g1229
I1
tp1232
a(g14
g15
S'puppets'
p1233
I1
tp1234
a(g1
g2
S'traditional mexican clothing'
p1235
I1
tp1236
a(g1
S'Select the type of clothing present in the image ?'
p1237
g1235
I1
tp1238
a(g1
g2
S'ceremonial dress'
p1239
I1
tp1240
a(g1
S'What is the type of clothing present in the image ?'
p1241
g1239
I1
tp1242
a(g14
g15
S'variety foreign handmade snacks'
p1243
I1
tp1244
a(g293
S'Select the type of bodyparts present in the image ?'
p1245
S'paws'
p1246
I1
tp1247
a(g14
g15
S'toys'
p1248
I1
tp1249
a(g20
S'What is the type of people present in the image ?'
p1250
S'young boy'
p1251
I1
tp1252
a(g14
g15
S'suitcase full toys'
p1253
I1
tp1254
a(g241
S'Select the type of animals present in the image ?'
p1255
S'kitty'
p1256
I1
tp1257
a(g20
S'What is the type of people present in the image ?'
p1258
S'guy kisses girl'
p1259
I1
tp1260
a(g14
g15
S'cart fruit'
p1261
I1
tp1262
a(g14
g15
S'pink pants snowboards'
p1263
I1
tp1264
a(g14
g15
S'green brick walls'
p1265
I1
tp1266
a(g1
g2
S'white blue shoes'
p1267
I1
tp1268
a(g1
S'Select the type of clothing present in the image ?'
p1269
g1267
I1
tp1270
a(g293
S'What is the type of bodyparts present in the image ?'
p1271
S'pixie haircut'
p1272
I1
tp1273
a(g1
g2
S'martial arts'
p1274
I1
tp1275
a(g1
S'Select the type of clothing present in the image ?'
p1276
g1274
I1
tp1277
a(g7
S'What is the type of scene present in the image ?'
p1278
S'studio'
p1279
I1
tp1280
a(g7
S'Select the type of scene present in the image ?'
p1281
g857
I1
tp1282
a(g14
g15
S'school sweeter'
p1283
I1
tp1284
a(g14
g15
S'cellphone device'
p1285
I1
tp1286
a(g14
g15
S'ticket counter'
p1287
I1
tp1288
a(g14
g15
S'practice details'
p1289
I1
tp1290
a(g14
g15
S'plug'
p1291
I1
tp1292
a(g14
g15
S'company'
p1293
I1
tp1294
a(g7
S'What is the type of scene present in the image ?'
p1295
S'construction coal power plant'
p1296
I1
tp1297
a(g1
g2
g1
I1
tp1298
a(g1
S'Select the type of clothing present in the image ?'
p1299
g1
I1
tp1300
a(g20
S'What is the type of people present in the image ?'
p1301
S'metro'
p1302
I1
tp1303
a(g14
g15
S'another closeby'
p1304
I1
tp1305
a(g1
g2
S'black shoes'
p1306
I1
tp1307
a(g1
S'Select the type of clothing present in the image ?'
p1308
g1306
I1
tp1309
a(g7
S'What is the type of scene present in the image ?'
p1310
S'stone staircase'
p1311
I1
tp1312
a(g7
S'Select the type of scene present in the image ?'
p1313
S'cobbled street'
p1314
I1
tp1315
a(g14
g15
S'machete'
p1316
I1
tp1317
a(g20
S'What is the type of people present in the image ?'
p1318
S'pretty girl'
p1319
I1
tp1320
a(g14
g15
S'new stunts'
p1321
I1
tp1322
a(g241
S'Select the type of animals present in the image ?'
p1323
S'big brown dog'
p1324
I1
tp1325
a(g1
g2
S'pink jacket'
p1326
I1
tp1327
a(g1
S'What is the type of clothing present in the image ?'
p1328
g1326
I1
tp1329
a(g293
S'Select the type of bodyparts present in the image ?'
p1330
S'beret thin mustache'
p1331
I1
tp1332
a(g7
S'What is the type of scene present in the image ?'
p1333
S'chapel'
p1334
I1
tp1335
a(g7
S'Select the type of scene present in the image ?'
p1336
S'second'
p1337
I1
tp1338
a(g73
S'What is the type of vehicles present in the image ?'
p1339
S'back car'
p1340
I1
tp1341
a(g14
g15
S'red stick'
p1342
I1
tp1343
a(g14
g15
S'green buckets'
p1344
I1
tp1345
a(g20
S'Select the type of people present in the image ?'
p1346
S'many elderly people'
p1347
I1
tp1348
a(g7
S'What is the type of scene present in the image ?'
p1349
S'steep hill'
p1350
I1
tp1351
a(g14
g15
S'dark pants hammers'
p1352
I1
tp1353
a(g14
g15
S'large pillars'
p1354
I1
tp1355
a(g73
S'Select the type of vehicles present in the image ?'
p1356
S'yellow moped'
p1357
I1
tp1358
a(g1
g2
S'cheeky wings'
p1359
I1
tp1360
a(g1
S'What is the type of clothing present in the image ?'
p1361
g1359
I1
tp1362
a(g1
g2
S'grayish blue shirt'
p1363
I1
tp1364
a(g1
S'Select the type of clothing present in the image ?'
p1365
g1363
I1
tp1366
a(g293
S'What is the type of bodyparts present in the image ?'
p1367
S'lip'
p1368
I1
tp1369
a(g14
g15
S'jelly'
p1370
I1
tp1371
a(g20
S'Select the type of people present in the image ?'
p1372
S'bicycle performer'
p1373
I1
tp1374
a(g20
S'How many shoulders  children are there in the image ?'
p1375
S'shoulders two children'
p1376
I0
tp1377
a(g20
S'What is the type of people present in the image ?'
p1378
g1376
I1
tp1379
a(g20
S'How many army men are there in the image ?'
p1380
S'7 army men'
p1381
I0
tp1382
a(g20
S'Select the type of people present in the image ?'
p1383
g1381
I1
tp1384
a(g20
S'What is the type of people present in the image ?'
p1385
S'couple musicians'
p1386
I1
tp1387
a(g20
S'Select the type of people present in the image ?'
p1388
S'losers'
p1389
I1
tp1390
a(g7
S'What is the type of scene present in the image ?'
p1391
S'outside beautiful building'
p1392
I1
tp1393
a(g293
S'Select the type of bodyparts present in the image ?'
p1394
S'folded hands'
p1395
I1
tp1396
a(g14
g15
S'pair red tights'
p1397
I1
tp1398
a(g20
S'What is the type of people present in the image ?'
p1399
S'stuff animal prizes people'
p1400
I1
tp1401
a(g14
g15
S'smartphone'
p1402
I1
tp1403
a(g14
g15
S'group people socialize'
p1404
I1
tp1405
a(g1
g2
S'blue jerseys'
p1406
I1
tp1407
a(g1
S'Select the type of clothing present in the image ?'
p1408
g1406
I1
tp1409
a(g20
S'What is the type of people present in the image ?'
p1410
S'tired determined looking woman'
p1411
I1
tp1412
a(g293
S'Select the type of bodyparts present in the image ?'
p1413
S'shoulder length brown hair'
p1414
I1
tp1415
a(g14
g15
S'floral patterened couch'
p1416
I1
tp1417
a(g14
g15
S'colorful sticks'
p1418
I1
tp1419
a(g20
S'How many younger child are there in the image ?'
p1420
S'one younger child'
p1421
I0
tp1422
a(g20
S'What is the type of people present in the image ?'
p1423
g1421
I1
tp1424
a(g20
S'Select the type of people present in the image ?'
p1425
S'many kids'
p1426
I1
tp1427
a(g14
g15
S'navy sparkly blue warms'
p1428
I1
tp1429
a(g14
g15
S'playground equipment'
p1430
I1
tp1431
a(g7
S'What is the type of scene present in the image ?'
p1432
S'antique shop'
p1433
I1
tp1434
a(g20
S'Select the type of people present in the image ?'
p1435
S'almost nude woman'
p1436
I1
tp1437
a(g14
g15
S'climbing rocks'
p1438
I1
tp1439
a(g14
g15
S'taco'
p1440
I1
tp1441
a(g14
g15
S'yellow kayak'
p1442
I1
tp1443
a(g14
g15
S'car race'
p1444
I1
tp1445
a(g293
S'What is the type of bodyparts present in the image ?'
p1446
S'green hair'
p1447
I1
tp1448
a(g1
g2
S'black white bag'
p1449
I1
tp1450
a(g1
S'Select the type of clothing present in the image ?'
p1451
g1449
I1
tp1452
a(g14
g15
S'packing boxes'
p1453
I1
tp1454
a(g14
g15
S'usa'
p1455
I1
tp1456
a(g14
g15
S'scissors'
p1457
I1
tp1458
a(g1
g2
S'wild outfit'
p1459
I1
tp1460
a(g1
S'What is the type of clothing present in the image ?'
p1461
g1459
I1
tp1462
a(g20
S'Select the type of people present in the image ?'
p1463
S'skin women'
p1464
I1
tp1465
a(g14
g15
S'brown lawn chairs'
p1466
I1
tp1467
a(g14
g15
S'tall ceilings'
p1468
I1
tp1469
a(g7
S'What is the type of scene present in the image ?'
p1470
S'side building'
p1471
I1
tp1472
a(g14
g15
S'silver wall'
p1473
I1
tp1474
a(g14
g15
S'pink shit'
p1475
I1
tp1476
a(g14
g15
S'fabric flowers'
p1477
I1
tp1478
a(g20
S'Select the type of people present in the image ?'
p1479
S'nurses'
p1480
I1
tp1481
a(g1
g2
S'navy pants'
p1482
I1
tp1483
a(g1
S'What is the type of clothing present in the image ?'
p1484
g1482
I1
tp1485
a(g14
g15
g641
I1
tp1486
a(g14
g15
S'tall sticks'
p1487
I1
tp1488
a(g293
S'Select the type of bodyparts present in the image ?'
p1489
S'goggles frowns'
p1490
I1
tp1491
a(g14
g15
S'palm trees'
p1492
I1
tp1493
a(g14
g15
S'clipboard'
p1494
I1
tp1495
a(g14
g15
S'tray small toys'
p1496
I1
tp1497
a(g20
S'What is the type of people present in the image ?'
p1498
S'director'
p1499
I1
tp1500
a(g14
g15
S'buffet'
p1501
I1
tp1502
a(g7
S'Select the type of scene present in the image ?'
p1503
S'hot sunny day'
p1504
I1
tp1505
a(g14
g15
S'red mark'
p1506
I1
tp1507
a(g14
g15
S'recital'
p1508
I1
tp1509
a(g1
g2
S'american flag costume'
p1510
I1
tp1511
a(g1
S'What is the type of clothing present in the image ?'
p1512
g1510
I1
tp1513
a(g1
g2
S'back jumpsuits'
p1514
I1
tp1515
a(g1
S'Select the type of clothing present in the image ?'
p1516
g1514
I1
tp1517
a(g1
g2
S'green brown shirt'
p1518
I1
tp1519
a(g1
S'What is the type of clothing present in the image ?'
p1520
g1518
I1
tp1521
a(g20
S'Select the type of people present in the image ?'
p1522
S'littler girl'
p1523
I1
tp1524
a(g20
S'What is the type of people present in the image ?'
p1525
S'bunch hippies'
p1526
I1
tp1527
a(g20
S'How many guy are there in the image ?'
p1528
S'one guy'
p1529
I0
tp1530
a(g20
S'Select the type of people present in the image ?'
p1531
g1529
I1
tp1532
a(g20
S'How many young siblings are there in the image ?'
p1533
S'two young siblings'
p1534
I0
tp1535
a(g20
S'What is the type of people present in the image ?'
p1536
g1534
I1
tp1537
a(g14
g15
S'carved lintel'
p1538
I1
tp1539
a(g7
S'Select the type of scene present in the image ?'
p1540
S'rubble'
p1541
I1
tp1542
a(g7
S'What is the type of scene present in the image ?'
p1543
S'urban park'
p1544
I1
tp1545
a(g7
S'Select the type of scene present in the image ?'
p1546
S'field aviation museum'
p1547
I1
tp1548
a(g7
S'What is the type of scene present in the image ?'
p1549
S'realty store'
p1550
I1
tp1551
a(g1
g2
S'judge costume'
p1552
I1
tp1553
a(g1
S'Select the type of clothing present in the image ?'
p1554
g1552
I1
tp1555
a(g7
S'What is the type of scene present in the image ?'
p1556
S'wet soccer field'
p1557
I1
tp1558
a(g14
g15
S'bag trash'
p1559
I1
tp1560
a(g14
g15
S'heavy loading machinery'
p1561
I1
tp1562
a(g73
S'Select the type of vehicles present in the image ?'
p1563
S'red trucks'
p1564
I1
tp1565
a(g1
g2
S'sleeve'
p1566
I1
tp1567
a(g1
S'What is the type of clothing present in the image ?'
p1568
g1566
I1
tp1569
a(g20
S'Select the type of people present in the image ?'
p1570
S'bigger group people'
p1571
I1
tp1572
a(g14
g15
S'outside playing cards'
p1573
I1
tp1574
a(g14
g15
S'white piece plastic'
p1575
I1
tp1576
a(g14
g15
S'pic'
p1577
I1
tp1578
a(g14
g15
S'golf skills'
p1579
I1
tp1580
a(g14
g15
S'statue liberty'
p1581
I1
tp1582
a(g73
S'What is the type of vehicles present in the image ?'
p1583
S'mural car'
p1584
I1
tp1585
a(g14
g15
S'two others'
p1586
I1
tp1587
a(g1
g2
g388
I1
tp1588
a(g1
S'Select the type of clothing present in the image ?'
p1589
g388
I1
tp1590
a(g20
S'What is the type of people present in the image ?'
p1591
S'army soldiers'
p1592
I1
tp1593
a(g7
S'Select the type of scene present in the image ?'
p1594
S'pretzel stand'
p1595
I1
tp1596
a(g1
g2
S'light blue bag'
p1597
I1
tp1598
a(g1
S'What is the type of clothing present in the image ?'
p1599
g1597
I1
tp1600
a(g1
g2
S'gray winter hat'
p1601
I1
tp1602
a(g1
S'Select the type of clothing present in the image ?'
p1603
g1601
I1
tp1604
a(g7
S'What is the type of scene present in the image ?'
p1605
S'bushes'
p1606
I1
tp1607
a(g7
S'Select the type of scene present in the image ?'
p1608
S'temple'
p1609
I1
tp1610
a(g293
S'What is the type of bodyparts present in the image ?'
p1611
S'retro hairstyle'
p1612
I1
tp1613
a(g241
S'Select the type of animals present in the image ?'
p1614
S'small dog'
p1615
I1
tp1616
a(g14
g15
S'52'
p1617
I1
tp1618
a(g14
g15
S'birthday candle'
p1619
I1
tp1620
a(g14
g15
S'pink picks flowers'
p1621
I1
tp1622
a(g14
g15
S'traditional gaucho wear'
p1623
I1
tp1624
a(g7
S'What is the type of scene present in the image ?'
p1625
S'grass'
p1626
I1
tp1627
a(g293
S'Select the type of bodyparts present in the image ?'
p1628
S'hands'
p1629
I1
tp1630
a(g20
S'What is the type of people present in the image ?'
p1631
S'chest older man'
p1632
I1
tp1633
a(g14
g15
S'monopoly'
p1634
I1
tp1635
a(g20
S'Select the type of people present in the image ?'
p1636
S'large gathering people'
p1637
I1
tp1638
a(g14
g15
S'ships'
p1639
I1
tp1640
a(g14
g15
S'keyboard'
p1641
I1
tp1642
a(g20
S'What is the type of people present in the image ?'
p1643
S'adult woman'
p1644
I1
tp1645
a(g14
g15
S'yellow curtain'
p1646
I1
tp1647
a(g20
S'Select the type of people present in the image ?'
p1648
S'female hockey player'
p1649
I1
tp1650
a(g7
S'What is the type of scene present in the image ?'
p1651
S'outdoor public space'
p1652
I1
tp1653
a(g14
g15
S'totes'
p1654
I1
tp1655
a(g14
g15
S'# 28'
p1656
I1
tp1657
a(g1
g2
S'bright orange uniforms'
p1658
I1
tp1659
a(g1
S'Select the type of clothing present in the image ?'
p1660
g1658
I1
tp1661
a(g14
g15
S'thin tree'
p1662
I1
tp1663
a(g14
g15
S'strange stage show'
p1664
I1
tp1665
a(g14
g15
S'concrete wall'
p1666
I1
tp1667
a(g1
g2
S'long veils'
p1668
I1
tp1669
a(g1
S'What is the type of clothing present in the image ?'
p1670
g1668
I1
tp1671
a(g14
g15
S'clean indoor station'
p1672
I1
tp1673
a(g14
g15
S'bottom set'
p1674
I1
tp1675
a(g1
g2
S'british shirt'
p1676
I1
tp1677
a(g1
S'Select the type of clothing present in the image ?'
p1678
g1676
I1
tp1679
a(g20
S'What is the type of people present in the image ?'
p1680
S'hands adult'
p1681
I1
tp1682
a(g14
g15
S'newest museum exhibit'
p1683
I1
tp1684
a(g14
g15
S'orange pillow'
p1685
I1
tp1686
a(g14
g15
S'glides'
p1687
I1
tp1688
a(g73
S'Select the type of vehicles present in the image ?'
p1689
S'old couples bike'
p1690
I1
tp1691
a(g1
g2
S'exotic outfit'
p1692
I1
tp1693
a(g1
S'What is the type of clothing present in the image ?'
p1694
g1692
I1
tp1695
a(g14
g15
S'pink blanket'
p1696
I1
tp1697
a(g7
S'Select the type of scene present in the image ?'
p1698
S'downtown area'
p1699
I1
tp1700
a(g14
g15
S'printed material'
p1701
I1
tp1702
a(g14
g15
S'dance'
p1703
I1
tp1704
a(g14
g15
S'teal colored wall'
p1705
I1
tp1706
a(g7
S'What is the type of scene present in the image ?'
p1707
S'living area'
p1708
I1
tp1709
a(g14
g15
S'holiday display'
p1710
I1
tp1711
a(g7
S'Select the type of scene present in the image ?'
p1712
S'pretty day'
p1713
I1
tp1714
a(g20
S'What is the type of people present in the image ?'
p1715
S'blue team'
p1716
I1
tp1717
a(g1
g2
S'blue yellow feathers'
p1718
I1
tp1719
a(g1
S'Select the type of clothing present in the image ?'
p1720
g1718
I1
tp1721
a(g1
g2
S'dressy clothes'
p1722
I1
tp1723
a(g1
S'What is the type of clothing present in the image ?'
p1724
g1722
I1
tp1725
a(g1
g2
S'black rimmed glasses'
p1726
I1
tp1727
a(g1
S'Select the type of clothing present in the image ?'
p1728
g1726
I1
tp1729
a(g14
g15
S'first glimpse wonders'
p1730
I1
tp1731
a(g1
g2
S'light pink jacket'
p1732
I1
tp1733
a(g1
S'What is the type of clothing present in the image ?'
p1734
g1732
I1
tp1735
a(g1
g2
S'blue jean jacket'
p1736
I1
tp1737
a(g1
S'Select the type of clothing present in the image ?'
p1738
g1736
I1
tp1739
a(g14
g15
S'yoga mats'
p1740
I1
tp1741
a(g20
S'What is the type of people present in the image ?'
p1742
S'drinking husband'
p1743
I1
tp1744
a(g14
g15
S'food concessions'
p1745
I1
tp1746
a(g14
g15
S'hats paddle'
p1747
I1
tp1748
a(g20
S'How many ambulance workers are there in the image ?'
p1749
S'two ambulance workers'
p1750
I0
tp1751
a(g20
S'Select the type of people present in the image ?'
p1752
g1750
I1
tp1753
a(g14
g15
S'hose'
p1754
I1
tp1755
a(g1
g2
S'pink bottoms'
p1756
I1
tp1757
a(g1
S'What is the type of clothing present in the image ?'
p1758
g1756
I1
tp1759
a(g20
S'Select the type of people present in the image ?'
p1760
S'camper'
p1761
I1
tp1762
a(g7
S'What is the type of scene present in the image ?'
p1763
S'edge swimming pool'
p1764
I1
tp1765
a(g1
g2
S'tattered clothes'
p1766
I1
tp1767
a(g1
S'Select the type of clothing present in the image ?'
p1768
g1766
I1
tp1769
a(g73
S'What is the type of vehicles present in the image ?'
p1770
S'many different types vehicles'
p1771
I1
tp1772
a(g1
g2
S'hello kitty mittens'
p1773
I1
tp1774
a(g1
S'Select the type of clothing present in the image ?'
p1775
g1773
I1
tp1776
a(g14
g15
S'chilly morning'
p1777
I1
tp1778
a(g14
g15
S'high'
p1779
I1
tp1780
a(g14
g15
S'purple jug'
p1781
I1
tp1782
a(g1
g2
S'red dress'
p1783
I1
tp1784
a(g1
S'What is the type of clothing present in the image ?'
p1785
g1783
I1
tp1786
a(g241
S'Select the type of animals present in the image ?'
p1787
S'angry birds'
p1788
I1
tp1789
a(g14
g15
S'record'
p1790
I1
tp1791
a(g14
g15
S'santa claus'
p1792
I1
tp1793
a(g1
g2
S'biking suits'
p1794
I1
tp1795
a(g1
S'What is the type of clothing present in the image ?'
p1796
g1794
I1
tp1797
a(g14
g15
S'food'
p1798
I1
tp1799
a(g1
g2
S'red glasses'
p1800
I1
tp1801
a(g1
S'Select the type of clothing present in the image ?'
p1802
g1800
I1
tp1803
a(g1
g2
S'mask'
p1804
I1
tp1805
a(g1
S'What is the type of clothing present in the image ?'
p1806
g1804
I1
tp1807
a(g14
g15
S'white plastic chairs'
p1808
I1
tp1809
a(g14
g15
S'plant related task'
p1810
I1
tp1811
a(g7
S'Select the type of scene present in the image ?'
p1812
S'straw roof'
p1813
I1
tp1814
a(g14
g15
S'champagne corks'
p1815
I1
tp1816
a(g14
g15
S'brown horses race'
p1817
I1
tp1818
a(g14
g15
S'ceiling railway'
p1819
I1
tp1820
a(g1
g2
S'dark plaid shirt'
p1821
I1
tp1822
a(g1
S'What is the type of clothing present in the image ?'
p1823
g1821
I1
tp1824
a(g14
g15
S'prepared course'
p1825
I1
tp1826
a(g1
g2
S'gloves'
p1827
I1
tp1828
a(g1
S'Select the type of clothing present in the image ?'
p1829
g1827
I1
tp1830
a(g20
S'What is the type of people present in the image ?'
p1831
S'running child'
p1832
I1
tp1833
a(g14
g15
S'blue net'
p1834
I1
tp1835
a(g14
g15
S'coral'
p1836
I1
tp1837
a(g14
g15
S'maroon cloth'
p1838
I1
tp1839
a(g14
g15
S'door step'
p1840
I1
tp1841
a(g14
g15
S'yellow splashes'
p1842
I1
tp1843
a(g20
S'Select the type of people present in the image ?'
p1844
S'villagers'
p1845
I1
tp1846
a(g241
S'What is the type of animals present in the image ?'
p1847
S'dog'
p1848
I1
tp1849
a(g14
g15
S'mixed martial arts competition'
p1850
I1
tp1851
a(g1
g2
S'flip blue'
p1852
I1
tp1853
a(g1
S'Select the type of clothing present in the image ?'
p1854
g1852
I1
tp1855
a(g14
g15
S'opposite couches'
p1856
I1
tp1857
a(g14
g15
S'games'
p1858
I1
tp1859
a(g20
S'What is the type of people present in the image ?'
p1860
S'breakdancer'
p1861
I1
tp1862
a(g241
S'Select the type of animals present in the image ?'
p1863
S'pony'
p1864
I1
tp1865
a(g14
g15
S'work'
p1866
I1
tp1867
a(g7
S'What is the type of scene present in the image ?'
p1868
S'staircase'
p1869
I1
tp1870
a(g73
S'Select the type of vehicles present in the image ?'
p1871
S'toy truck'
p1872
I1
tp1873
a(g14
g15
S'green handrail'
p1874
I1
tp1875
a(g14
g15
S'top trapeze'
p1876
I1
tp1877
a(g14
g15
S'kind party'
p1878
I1
tp1879
a(g14
g15
S'outside wall'
p1880
I1
tp1881
a(g14
g15
S'graduation'
p1882
I1
tp1883
a(g14
g15
S'banner'
p1884
I1
tp1885
a(g14
g15
S'figures'
p1886
I1
tp1887
a(g1
g2
S'superman cape'
p1888
I1
tp1889
a(g1
S'What is the type of clothing present in the image ?'
p1890
g1888
I1
tp1891
a(g14
g15
S'statue bust'
p1892
I1
tp1893
a(g14
g15
S'lip balm'
p1894
I1
tp1895
a(g20
S'How many ballet class  girls are there in the image ?'
p1896
S'ballet class five girls'
p1897
I0
tp1898
a(g20
S'Select the type of people present in the image ?'
p1899
g1897
I1
tp1900
a(g14
g15
S'icing'
p1901
I1
tp1902
a(g20
S'What is the type of people present in the image ?'
p1903
S'yoga class'
p1904
I1
tp1905
a(g14
g15
S'electric candles'
p1906
I1
tp1907
a(g7
S'Select the type of scene present in the image ?'
p1908
S'small indoor space'
p1909
I1
tp1910
a(g14
g15
S'amp'
p1911
I1
tp1912
a(g14
g15
S'number'
p1913
I1
tp1914
a(g14
g15
S'announcement'
p1915
I1
tp1916
a(g7
S'What is the type of scene present in the image ?'
p1917
S'sides entrance'
p1918
I1
tp1919
a(g20
S'How many girls are there in the image ?'
p1920
S'five girls'
p1921
I0
tp1922
a(g20
S'Select the type of people present in the image ?'
p1923
g1921
I1
tp1924
a(g14
g15
S'large metal bowl'
p1925
I1
tp1926
a(g7
S'What is the type of scene present in the image ?'
p1927
S'paved road'
p1928
I1
tp1929
a(g1
g2
S'one colorful sock'
p1930
I1
tp1931
a(g1
S'Select the type of clothing present in the image ?'
p1932
g1930
I1
tp1933
a(g20
S'What is the type of people present in the image ?'
p1934
S'barefoot woman'
p1935
I1
tp1936
a(g20
S'Select the type of people present in the image ?'
p1937
S'disk jockey'
p1938
I1
tp1939
a(g1
g2
S'red uniform'
p1940
I1
tp1941
a(g1
S'What is the type of clothing present in the image ?'
p1942
g1940
I1
tp1943
a(g14
g15
S'fire stick'
p1944
I1
tp1945
a(g20
S'Select the type of people present in the image ?'
p1946
S'asian person'
p1947
I1
tp1948
a(g14
g15
S'musical equipment'
p1949
I1
tp1950
a(g14
g15
S'stairs monument'
p1951
I1
tp1952
a(g7
S'What is the type of scene present in the image ?'
p1953
S'summer'
p1954
I1
tp1955
a(g20
S'Select the type of people present in the image ?'
p1956
S'performer'
p1957
I1
tp1958
a(g14
g15
S'stops'
p1959
I1
tp1960
a(g14
g15
S'conclusion doubles tennis match'
p1961
I1
tp1962
a(g20
S'What is the type of people present in the image ?'
p1963
S'water polo goalie'
p1964
I1
tp1965
a(g1
g2
S'blue pants'
p1966
I1
tp1967
a(g1
S'Select the type of clothing present in the image ?'
p1968
g1966
I1
tp1969
a(g14
g15
S'distance move'
p1970
I1
tp1971
a(g7
S'What is the type of scene present in the image ?'
p1972
S'pavilion'
p1973
I1
tp1974
a(g14
g15
S'gold tag'
p1975
I1
tp1976
a(g20
S'Select the type of people present in the image ?'
p1977
S'picture team'
p1978
I1
tp1979
a(g14
g15
S'star wars'
p1980
I1
tp1981
a(g14
g15
S'screaming'
p1982
I1
tp1983
a(g7
S'What is the type of scene present in the image ?'
p1984
S'sunny cold day'
p1985
I1
tp1986
a(g1
g2
S'bathing suits'
p1987
I1
tp1988
a(g1
S'Select the type of clothing present in the image ?'
p1989
g1987
I1
tp1990
a(g1
g2
S'blue red gloves'
p1991
I1
tp1992
a(g1
S'What is the type of clothing present in the image ?'
p1993
g1991
I1
tp1994
a(g20
S'Select the type of people present in the image ?'
p1995
S'visitors'
p1996
I1
tp1997
a(g1
g2
S'leather glove'
p1998
I1
tp1999
a(g1
S'What is the type of clothing present in the image ?'
p2000
g1998
I1
tp2001
a(g14
g15
S'browsing'
p2002
I1
tp2003
a(g241
S'Select the type of animals present in the image ?'
p2004
S'picture wasp'
p2005
I1
tp2006
a(g1
g2
S'blue pink swimsuit'
p2007
I1
tp2008
a(g1
S'What is the type of clothing present in the image ?'
p2009
g2007
I1
tp2010
a(g20
S'Select the type of people present in the image ?'
p2011
S'tall man'
p2012
I1
tp2013
a(g20
S'What is the type of people present in the image ?'
p2014
S'customers'
p2015
I1
tp2016
a(g14
g15
S'twister'
p2017
I1
tp2018
a(g14
g15
S'painted glass cups'
p2019
I1
tp2020
a(g14
g15
S'contents bottle'
p2021
I1
tp2022
a(g7
S'Select the type of scene present in the image ?'
p2023
S'middle lot'
p2024
I1
tp2025
a(g7
S'What is the type of scene present in the image ?'
p2026
S'grill outside'
p2027
I1
tp2028
a(g14
g15
S'exhaust pipe'
p2029
I1
tp2030
a(g14
g15
S'towel'
p2031
I1
tp2032
a(g73
S'Select the type of vehicles present in the image ?'
p2033
S'subway car'
p2034
I1
tp2035
a(g1
g2
S'brimmed hat'
p2036
I1
tp2037
a(g1
S'What is the type of clothing present in the image ?'
p2038
g2036
I1
tp2039
a(g7
S'Select the type of scene present in the image ?'
p2040
S'white red car tips'
p2041
I1
tp2042
a(g241
S'What is the type of animals present in the image ?'
p2043
S'mechanical rabbit'
p2044
I1
tp2045
a(g14
g15
S'large rocky boulder'
p2046
I1
tp2047
a(g20
S'Select the type of people present in the image ?'
p2048
S'new york yankees'
p2049
I1
tp2050
a(g14
g15
S'college basketball'
p2051
I1
tp2052
a(g14
g15
S'sub sandwiches'
p2053
I1
tp2054
a(g293
S'What is the type of bodyparts present in the image ?'
p2055
S'front paws'
p2056
I1
tp2057
a(g7
S'Select the type of scene present in the image ?'
p2058
S'united states'
p2059
I1
tp2060
a(g14
g15
S'crab dinner'
p2061
I1
tp2062
a(g1
g2
S'bright yellow red vests'
p2063
I1
tp2064
a(g1
S'What is the type of clothing present in the image ?'
p2065
g2063
I1
tp2066
a(g14
g15
S'sports spark'
p2067
I1
tp2068
a(g20
S'Select the type of people present in the image ?'
p2069
S'boys'
p2070
I1
tp2071
a(g241
S'What is the type of animals present in the image ?'
p2072
S'big tan dog'
p2073
I1
tp2074
a(g73
S'Select the type of vehicles present in the image ?'
p2075
S'drivers seat car'
p2076
I1
tp2077
a(g14
g15
S'tae kwon'
p2078
I1
tp2079
a(g14
g15
S'dust mop'
p2080
I1
tp2081
a(g14
g15
S'two pails'
p2082
I1
tp2083
a(g1
g2
S'clown costume'
p2084
I1
tp2085
a(g1
S'What is the type of clothing present in the image ?'
p2086
g2084
I1
tp2087
a(g20
S'Select the type of people present in the image ?'
p2088
S'walkway bunch'
p2089
I1
tp2090
a(g7
S'What is the type of scene present in the image ?'
p2091
S'cow farm'
p2092
I1
tp2093
a(g20
S'How many sounds  men are there in the image ?'
p2094
S'sounds 4 men'
p2095
I0
tp2096
a(g20
S'Select the type of people present in the image ?'
p2097
g2095
I1
tp2098
a(g14
g15
S'recent roller derby match'
p2099
I1
tp2100
a(g20
S'What is the type of people present in the image ?'
p2101
S'naked man'
p2102
I1
tp2103
a(g14
g15
S'game fencing'
p2104
I1
tp2105
a(g14
g15
S'bike pedals'
p2106
I1
tp2107
a(g20
S'Select the type of people present in the image ?'
p2108
S'couple ladies'
p2109
I1
tp2110
a(g20
S'What is the type of people present in the image ?'
p2111
S'third person'
p2112
I1
tp2113
a(g1
g2
S'black sailor '
p2114
I1
tp2115
a(g1
S'Select the type of clothing present in the image ?'
p2116
g2114
I1
tp2117
a(g7
S'What is the type of scene present in the image ?'
p2118
S'cement floor'
p2119
I1
tp2120
a(g1
g2
S'olive drab uniforms'
p2121
I1
tp2122
a(g1
S'Select the type of clothing present in the image ?'
p2123
g2121
I1
tp2124
a(g14
g15
S'portrait'
p2125
I1
tp2126
a(g7
S'What is the type of scene present in the image ?'
p2127
S'evening'
p2128
I1
tp2129
a(g1
g2
S'black white jersey'
p2130
I1
tp2131
a(g1
S'Select the type of clothing present in the image ?'
p2132
g2130
I1
tp2133
a(g7
S'What is the type of scene present in the image ?'
p2134
S'shabby house'
p2135
I1
tp2136
a(g14
g15
S'white tub'
p2137
I1
tp2138
a(g1
g2
S'green work helmet'
p2139
I1
tp2140
a(g1
S'Select the type of clothing present in the image ?'
p2141
g2139
I1
tp2142
a(g1
g2
S'brown shoes'
p2143
I1
tp2144
a(g1
S'What is the type of clothing present in the image ?'
p2145
g2143
I1
tp2146
a(g1
g2
S'white blue green shirt'
p2147
I1
tp2148
a(g1
S'Select the type of clothing present in the image ?'
p2149
g2147
I1
tp2150
a(g611
S'What is the type of instruments present in the image ?'
p2151
S'bagpipes'
p2152
I1
tp2153
a(g14
g15
S'brick'
p2154
I1
tp2155
a(g7
S'Select the type of scene present in the image ?'
p2156
S'green shrubbery'
p2157
I1
tp2158
a(g14
g15
S'one star'
p2159
I1
tp2160
a(g14
g15
S'secrets'
p2161
I1
tp2162
a(g20
S'What is the type of people present in the image ?'
p2163
S'cheerleaders'
p2164
I1
tp2165
a(g14
g15
S'rickshaw handcart'
p2166
I1
tp2167
a(g14
g15
S'meet'
p2168
I1
tp2169
a(g14
g15
S'saguaro cactus'
p2170
I1
tp2171
a(g20
S'Select the type of people present in the image ?'
p2172
S'colleagues'
p2173
I1
tp2174
a(g20
S'How many sumo wrestlers are there in the image ?'
p2175
S'two sumo wrestlers'
p2176
I0
tp2177
a(g20
S'What is the type of people present in the image ?'
p2178
g2176
I1
tp2179
a(g14
g15
S'small notebook'
p2180
I1
tp2181
a(g1
g2
S'scary costume'
p2182
I1
tp2183
a(g1
S'Select the type of clothing present in the image ?'
p2184
g2182
I1
tp2185
a(g1
g2
S'white shawl'
p2186
I1
tp2187
a(g1
S'What is the type of clothing present in the image ?'
p2188
g2186
I1
tp2189
a(g14
g15
S'paper item'
p2190
I1
tp2191
a(g14
g15
S'two'
p2192
I1
tp2193
a(g14
g15
S'closed sign'
p2194
I1
tp2195
a(g14
g15
S'blue towel'
p2196
I1
tp2197
a(g7
S'Select the type of scene present in the image ?'
p2198
S'pile blocks'
p2199
I1
tp2200
a(g293
S'What is the type of bodyparts present in the image ?'
p2201
S'front hair'
p2202
I1
tp2203
a(g14
g15
S'install new shingles'
p2204
I1
tp2205
a(g14
g15
S'bar stool'
p2206
I1
tp2207
a(g1
g2
S'sailor whites'
p2208
I1
tp2209
a(g1
S'Select the type of clothing present in the image ?'
p2210
g2208
I1
tp2211
a(g14
g15
S'bun'
p2212
I1
tp2213
a(g14
g15
S'lights'
p2214
I1
tp2215
a(g7
S'What is the type of scene present in the image ?'
p2216
S'great spot'
p2217
I1
tp2218
a(g14
g15
S'foundation'
p2219
I1
tp2220
a(g20
S'Select the type of people present in the image ?'
p2221
S'group bikers'
p2222
I1
tp2223
a(g14
g15
S'red'
p2224
I1
tp2225
a(g7
S'What is the type of scene present in the image ?'
p2226
S'cemetery'
p2227
I1
tp2228
a(g14
g15
S'branches leafless tree'
p2229
I1
tp2230
a(g293
S'Select the type of bodyparts present in the image ?'
p2231
S'hand'
p2232
I1
tp2233
a(g14
g15
S'run'
p2234
I1
tp2235
a(g7
S'What is the type of scene present in the image ?'
p2236
S'skirvin farms'
p2237
I1
tp2238
a(g14
g15
S'racket'
p2239
I1
tp2240
a(g14
g15
S'computer mice'
p2241
I1
tp2242
a(g20
S'Select the type of people present in the image ?'
p2243
S'girls'
p2244
I1
tp2245
a(g14
g15
S'green head garment painting'
p2246
I1
tp2247
a(g1
g2
S'matching outfits'
p2248
I1
tp2249
a(g1
S'What is the type of clothing present in the image ?'
p2250
g2248
I1
tp2251
a(g20
S'Select the type of people present in the image ?'
p2252
S'large crowd'
p2253
I1
tp2254
a(g14
g15
S'cliffside vista'
p2255
I1
tp2256
a(g14
g15
S'business'
p2257
I1
tp2258
a(g14
g15
S'bright yellow construction gear'
p2259
I1
tp2260
a(g14
g15
S'jog'
p2261
I1
tp2262
a(g7
S'What is the type of scene present in the image ?'
p2263
S'pink building'
p2264
I1
tp2265
a(g20
S'Select the type of people present in the image ?'
p2266
S'drag racer'
p2267
I1
tp2268
a(g14
g15
S'bubble bath'
p2269
I1
tp2270
a(g20
S'What is the type of people present in the image ?'
p2271
S'traditional dancers'
p2272
I1
tp2273
a(g14
g15
S'wire'
p2274
I1
tp2275
a(g1
g2
S'accented shirts'
p2276
I1
tp2277
a(g1
S'Select the type of clothing present in the image ?'
p2278
g2276
I1
tp2279
a(g14
g15
S'great enjoyment'
p2280
I1
tp2281
a(g14
g15
S'old style microphone'
p2282
I1
tp2283
a(g20
S'How many young girl are there in the image ?'
p2284
S'one young girl'
p2285
I0
tp2286
a(g20
S'What is the type of people present in the image ?'
p2287
g2285
I1
tp2288
a(g14
g15
S'sewer drain'
p2289
I1
tp2290
a(g14
g15
S'dance competition'
p2291
I1
tp2292
a(g14
g15
S'green lights'
p2293
I1
tp2294
a(g7
S'Select the type of scene present in the image ?'
p2295
S'inside building'
p2296
I1
tp2297
a(g7
S'What is the type of scene present in the image ?'
p2298
S'wet grass'
p2299
I1
tp2300
a(g14
g15
S'plastic bottles'
p2301
I1
tp2302
a(g293
S'Select the type of bodyparts present in the image ?'
p2303
S'red facial hair'
p2304
I1
tp2305
a(g7
S'What is the type of scene present in the image ?'
p2306
S'shower'
p2307
I1
tp2308
a(g14
g15
S'small box'
p2309
I1
tp2310
a(g14
g15
S'opposite direction others'
p2311
I1
tp2312
a(g14
g15
S'competition'
p2313
I1
tp2314
a(g1
g2
S'green sports bra'
p2315
I1
tp2316
a(g1
S'Select the type of clothing present in the image ?'
p2317
g2315
I1
tp2318
a(g7
S'What is the type of scene present in the image ?'
p2319
S'park'
p2320
I1
tp2321
a(g14
g15
S'neon yellow reflectors'
p2322
I1
tp2323
a(g20
S'Select the type of people present in the image ?'
p2324
S'older conductor'
p2325
I1
tp2326
a(g14
g15
S'religious ceremonies'
p2327
I1
tp2328
a(g7
S'What is the type of scene present in the image ?'
p2329
S'interior kitchen'
p2330
I1
tp2331
a(g14
g15
S'children sign'
p2332
I1
tp2333
a(g20
S'Select the type of people present in the image ?'
p2334
S'sidewalk artist'
p2335
I1
tp2336
a(g1
g2
S'blue basketball uniforms'
p2337
I1
tp2338
a(g1
S'What is the type of clothing present in the image ?'
p2339
g2337
I1
tp2340
a(g7
S'Select the type of scene present in the image ?'
p2341
S'trumpet outside'
p2342
I1
tp2343
a(g7
S'What is the type of scene present in the image ?'
p2344
S'street poor'
p2345
I1
tp2346
a(g73
S'Select the type of vehicles present in the image ?'
p2347
S'model biplane'
p2348
I1
tp2349
a(g14
g15
S'red top rail'
p2350
I1
tp2351
a(g14
g15
S'yellow warning tape'
p2352
I1
tp2353
a(g7
S'What is the type of scene present in the image ?'
p2354
S'open plaza'
p2355
I1
tp2356
a(g20
S'Select the type of people present in the image ?'
p2357
S'rugby player'
p2358
I1
tp2359
a(g20
S'What is the type of people present in the image ?'
p2360
S'teenager'
p2361
I1
tp2362
a(g7
S'Select the type of scene present in the image ?'
p2363
S'department store'
p2364
I1
tp2365
a(g14
g15
S'side wall'
p2366
I1
tp2367
a(g7
S'What is the type of scene present in the image ?'
p2368
S'nice lawn'
p2369
I1
tp2370
a(g20
S'Select the type of people present in the image ?'
p2371
S'boy'
p2372
I1
tp2373
a(g14
g15
S'wall mirrors'
p2374
I1
tp2375
a(g7
S'What is the type of scene present in the image ?'
p2376
S'metal piece fence'
p2377
I1
tp2378
a(g7
S'Select the type of scene present in the image ?'
p2379
S'item stand'
p2380
I1
tp2381
a(g14
g15
S'hot pads'
p2382
I1
tp2383
a(g14
g15
S'wooden box'
p2384
I1
tp2385
a(g20
S'What is the type of people present in the image ?'
p2386
S'ozzy osbourne fan'
p2387
I1
tp2388
a(g7
S'Select the type of scene present in the image ?'
p2389
S'sandy floor'
p2390
I1
tp2391
a(g7
S'What is the type of scene present in the image ?'
p2392
S'white tee'
p2393
I1
tp2394
a(g14
g15
S'maybe tokyo'
p2395
I1
tp2396
a(g14
g15
S'apron cuts'
p2397
I1
tp2398
a(g14
g15
S'mushroom'
p2399
I1
tp2400
a(g14
g15
S'winter wear'
p2401
I1
tp2402
a(g14
g15
S'two women '
p2403
I1
tp2404
a(g20
S'Select the type of people present in the image ?'
p2405
S'handsome caucasian boy'
p2406
I1
tp2407
a(g14
g15
S'scale'
p2408
I1
tp2409
a(g1
g2
S'full face mask'
p2410
I1
tp2411
a(g1
S'What is the type of clothing present in the image ?'
p2412
g2410
I1
tp2413
a(g1
g2
S'doctors coat'
p2414
I1
tp2415
a(g1
S'Select the type of clothing present in the image ?'
p2416
g2414
I1
tp2417
a(g1
g2
S'matching mask'
p2418
I1
tp2419
a(g1
S'What is the type of clothing present in the image ?'
p2420
g2418
I1
tp2421
a(g1
g2
S'red print dress'
p2422
I1
tp2423
a(g1
S'Select the type of clothing present in the image ?'
p2424
g2422
I1
tp2425
a(g14
g15
S'bungee'
p2426
I1
tp2427
a(g293
S'What is the type of bodyparts present in the image ?'
p2428
S'blond woman '
p2429
I1
tp2430
a(g14
g15
S'land mass'
p2431
I1
tp2432
a(g7
S'Select the type of scene present in the image ?'
p2433
S'small garden outside'
p2434
I1
tp2435
a(g7
S'What is the type of scene present in the image ?'
p2436
S'rock bridge'
p2437
I1
tp2438
a(g20
S'How many helmeted men are there in the image ?'
p2439
S'two helmeted men'
p2440
I0
tp2441
a(g20
S'Select the type of people present in the image ?'
p2442
g2440
I1
tp2443
a(g7
S'What is the type of scene present in the image ?'
p2444
S'tomb'
p2445
I1
tp2446
a(g14
g15
S'armchair'
p2447
I1
tp2448
a(g20
S'How many indian boy are there in the image ?'
p2449
S'one indian boy'
p2450
I0
tp2451
a(g20
S'Select the type of people present in the image ?'
p2452
g2450
I1
tp2453
a(g1
g2
S'black sling bag'
p2454
I1
tp2455
a(g1
S'What is the type of clothing present in the image ?'
p2456
g2454
I1
tp2457
a(g1
g2
S'blue purple striped shirt'
p2458
I1
tp2459
a(g1
S'Select the type of clothing present in the image ?'
p2460
g2458
I1
tp2461
a(g14
g15
S'adult soccer game'
p2462
I1
tp2463
a(g7
S'What is the type of scene present in the image ?'
p2464
S'large pier'
p2465
I1
tp2466
a(g20
S'How many middle  men are there in the image ?'
p2467
S'middle four men'
p2468
I0
tp2469
a(g20
S'Select the type of people present in the image ?'
p2470
g2468
I1
tp2471
a(g7
S'What is the type of scene present in the image ?'
p2472
S'old building'
p2473
I1
tp2474
a(g14
g15
S'battery powered locomotives'
p2475
I1
tp2476
a(g7
S'Select the type of scene present in the image ?'
p2477
S'oriental shop'
p2478
I1
tp2479
a(g1
g2
S'wings'
p2480
I1
tp2481
a(g1
S'What is the type of clothing present in the image ?'
p2482
g2480
I1
tp2483
a(g14
g15
S'red white confetti'
p2484
I1
tp2485
a(g241
S'Select the type of animals present in the image ?'
p2486
S'cow'
p2487
I1
tp2488
a(g1
g2
S'large goggles'
p2489
I1
tp2490
a(g1
S'What is the type of clothing present in the image ?'
p2491
g2489
I1
tp2492
a(g14
g15
S'plastic sled'
p2493
I1
tp2494
a(g14
g15
S'stone table'
p2495
I1
tp2496
a(g293
S'Select the type of bodyparts present in the image ?'
p2497
S'tongue'
p2498
I1
tp2499
a(g1
g2
S'blue plaid shirt'
p2500
I1
tp2501
a(g1
S'What is the type of clothing present in the image ?'
p2502
g2500
I1
tp2503
a(g7
S'Select the type of scene present in the image ?'
p2504
S'pier lake'
p2505
I1
tp2506
a(g14
g15
S'colorful squares'
p2507
I1
tp2508
a(g14
g15
S'powerpoint'
p2509
I1
tp2510
a(g1
g2
S'muddy jeans'
p2511
I1
tp2512
a(g1
S'What is the type of clothing present in the image ?'
p2513
g2511
I1
tp2514
a(g14
g15
S'dinner conversation'
p2515
I1
tp2516
a(g7
S'Select the type of scene present in the image ?'
p2517
S'heavily tree'
p2518
I1
tp2519
a(g20
S'How many teens are there in the image ?'
p2520
S'two teens'
p2521
I0
tp2522
a(g20
S'What is the type of people present in the image ?'
p2523
g2521
I1
tp2524
a(g7
S'Select the type of scene present in the image ?'
p2525
S'tiled street'
p2526
I1
tp2527
a(g1
g2
S'red headband'
p2528
I1
tp2529
a(g1
S'What is the type of clothing present in the image ?'
p2530
g2528
I1
tp2531
a(g7
S'Select the type of scene present in the image ?'
p2532
S'grassy parking area'
p2533
I1
tp2534
a(g14
g15
S'picture fruit'
p2535
I1
tp2536
a(g20
S'What is the type of people present in the image ?'
p2537
S'several individuals'
p2538
I1
tp2539
a(g14
g15
S'dinner'
p2540
I1
tp2541
a(g14
g15
S'candle'
p2542
I1
tp2543
a(g14
g15
S'plastic toys'
p2544
I1
tp2545
a(g7
S'Select the type of scene present in the image ?'
p2546
S'water jets'
p2547
I1
tp2548
a(g7
S'What is the type of scene present in the image ?'
p2549
S'left'
p2550
I1
tp2551
a(g14
g15
S'sun'
p2552
I1
tp2553
a(g14
g15
S'life fitness treadmill'
p2554
I1
tp2555
a(g293
S'Select the type of bodyparts present in the image ?'
p2556
S'low wave head'
p2557
I1
tp2558
a(g20
S'What is the type of people present in the image ?'
p2559
S'couple tourist'
p2560
I1
tp2561
a(g241
S'Select the type of animals present in the image ?'
p2562
S'fat dog'
p2563
I1
tp2564
a(g1
g2
S'blue orange dress'
p2565
I1
tp2566
a(g1
S'What is the type of clothing present in the image ?'
p2567
g2565
I1
tp2568
a(g1
g2
S'shoe'
p2569
I1
tp2570
a(g1
S'Select the type of clothing present in the image ?'
p2571
g2569
I1
tp2572
a(g7
S'What is the type of scene present in the image ?'
p2573
S'family room'
p2574
I1
tp2575
a(g14
g15
g257
I1
tp2576
a(g7
S'Select the type of scene present in the image ?'
p2577
S'shipping harbor'
p2578
I1
tp2579
a(g293
S'What is the type of bodyparts present in the image ?'
p2580
S'bald head'
p2581
I1
tp2582
a(g14
g15
S'metal pole'
p2583
I1
tp2584
a(g14
g15
S'blue street sign'
p2585
I1
tp2586
a(g14
g15
S'wooden boards'
p2587
I1
tp2588
a(g14
g15
S'perfume'
p2589
I1
tp2590
a(g14
g15
S'railway lines'
p2591
I1
tp2592
a(g1
g2
S'yellow'
p2593
I1
tp2594
a(g1
S'Select the type of clothing present in the image ?'
p2595
g2593
I1
tp2596
a(g241
S'How many geese are present in the image ?'
p2597
S'two geese'
p2598
I0
tp2599
a(g241
S'What is the type of animals present in the image ?'
p2600
g2598
I1
tp2601
a(g20
S'Select the type of people present in the image ?'
p2602
S'band'
p2603
I1
tp2604
a(g241
S'What is the type of animals present in the image ?'
p2605
S'stuffed bears'
p2606
I1
tp2607
a(g14
g15
S'red lights flash'
p2608
I1
tp2609
a(g14
g15
S'rodeo'
p2610
I1
tp2611
a(g73
S'Select the type of vehicles present in the image ?'
p2612
S'nearby scooter'
p2613
I1
tp2614
a(g7
S'What is the type of scene present in the image ?'
p2615
S'hill'
p2616
I1
tp2617
a(g14
g15
S'outdoor group exercise'
p2618
I1
tp2619
a(g1
g2
S'long black coat'
p2620
I1
tp2621
a(g1
S'Select the type of clothing present in the image ?'
p2622
g2620
I1
tp2623
a(g14
g15
S'magnifying lenses'
p2624
I1
tp2625
a(g14
g15
S'entrance cafe'
p2626
I1
tp2627
a(g14
g15
S'mulch'
p2628
I1
tp2629
a(g14
g15
S'field fresh corn'
p2630
I1
tp2631
a(g14
g15
S'orange bonnet'
p2632
I1
tp2633
a(g7
S'What is the type of scene present in the image ?'
p2634
S'workplace'
p2635
I1
tp2636
a(g7
S'Select the type of scene present in the image ?'
p2637
S'picturesque day'
p2638
I1
tp2639
a(g14
g15
S'similar shaped object'
p2640
I1
tp2641
a(g20
S'What is the type of people present in the image ?'
p2642
S'farmers'
p2643
I1
tp2644
a(g7
S'Select the type of scene present in the image ?'
p2645
S'large white building'
p2646
I1
tp2647
a(g73
S'What is the type of vehicles present in the image ?'
p2648
S'cars'
p2649
I1
tp2650
a(g7
S'Select the type of scene present in the image ?'
p2651
S'wooden walkway'
p2652
I1
tp2653
a(g14
g15
S'black tassel'
p2654
I1
tp2655
a(g7
S'What is the type of scene present in the image ?'
p2656
S'skydiving drip'
p2657
I1
tp2658
a(g14
g15
S'onions'
p2659
I1
tp2660
a(g20
S'Select the type of people present in the image ?'
p2661
S'chain people'
p2662
I1
tp2663
a(g14
g15
S'maintenance work'
p2664
I1
tp2665
a(g20
S'What is the type of people present in the image ?'
p2666
S'bunch asians'
p2667
I1
tp2668
a(g293
S'Select the type of bodyparts present in the image ?'
p2669
g1000
I1
tp2670
a(g14
g15
S'caboose'
p2671
I1
tp2672
a(g20
S'How many potential customers are there in the image ?'
p2673
S'two potential customers'
p2674
I0
tp2675
a(g20
S'What is the type of people present in the image ?'
p2676
g2674
I1
tp2677
a(g14
g15
S'boy shovels sand'
p2678
I1
tp2679
a(g14
g15
S'temporary railings'
p2680
I1
tp2681
a(g293
S'Select the type of bodyparts present in the image ?'
p2682
S'protective knee'
p2683
I1
tp2684
a(g241
S'What is the type of animals present in the image ?'
p2685
S'llamas'
p2686
I1
tp2687
a(g20
S'Select the type of people present in the image ?'
p2688
g20
I1
tp2689
a(g20
S'What is the type of people present in the image ?'
p2690
S'window cleaner'
p2691
I1
tp2692
a(g20
S'Select the type of people present in the image ?'
p2693
S'restaurant employee'
p2694
I1
tp2695
a(g14
g15
S'building debris'
p2696
I1
tp2697
a(g1
g2
S'striped blue polo shirts'
p2698
I1
tp2699
a(g1
S'What is the type of clothing present in the image ?'
p2700
g2698
I1
tp2701
a(g20
S'Select the type of people present in the image ?'
p2702
S'group cyclists'
p2703
I1
tp2704
a(g20
S'How many guys are there in the image ?'
p2705
S'two guys'
p2706
I0
tp2707
a(g20
S'What is the type of people present in the image ?'
p2708
g2706
I1
tp2709
a(g14
g15
S'sludge hammer'
p2710
I1
tp2711
a(g20
S'Select the type of people present in the image ?'
p2712
S'female teacher'
p2713
I1
tp2714
a(g14
g15
S'public sprinklers'
p2715
I1
tp2716
a(g14
g15
S'cowboy hat ropes'
p2717
I1
tp2718
a(g20
S'What is the type of people present in the image ?'
p2719
S'group musicians'
p2720
I1
tp2721
a(g7
S'Select the type of scene present in the image ?'
p2722
S'italian airport'
p2723
I1
tp2724
a(g14
g15
S'rooming'
p2725
I1
tp2726
a(g14
g15
S'interaction'
p2727
I1
tp2728
a(g241
S'What is the type of animals present in the image ?'
p2729
S'waterfowl'
p2730
I1
tp2731
a(g1
g2
S'red helmet'
p2732
I1
tp2733
a(g1
S'Select the type of clothing present in the image ?'
p2734
g2732
I1
tp2735
a(g14
g15
S'money hahaha'
p2736
I1
tp2737
a(g14
g15
S'handle grill'
p2738
I1
tp2739
a(g7
S'What is the type of scene present in the image ?'
p2740
S'powerade sponsored event'
p2741
I1
tp2742
a(g14
g15
S'dirt racetrack'
p2743
I1
tp2744
a(g1
g2
S'gray shirt'
p2745
I1
tp2746
a(g1
S'Select the type of clothing present in the image ?'
p2747
g2745
I1
tp2748
a(g7
S'What is the type of scene present in the image ?'
p2749
S'grassy park'
p2750
I1
tp2751
a(g14
g15
S'patio one'
p2752
I1
tp2753
a(g14
g15
S'grocery '
p2754
I1
tp2755
a(g14
g15
S'saris hair wraps'
p2756
I1
tp2757
a(g14
g15
S'field flowers'
p2758
I1
tp2759
a(g7
S'Select the type of scene present in the image ?'
p2760
S'states'
p2761
I1
tp2762
a(g14
g15
S'green white striped awning'
p2763
I1
tp2764
a(g14
g15
S'red heart'
p2765
I1
tp2766
a(g14
g15
S'blue chair'
p2767
I1
tp2768
a(g14
g15
S'6 beers'
p2769
I1
tp2770
a(g14
g15
S'easels'
p2771
I1
tp2772
a(g1
g2
S'tennis shoes'
p2773
I1
tp2774
a(g1
S'What is the type of clothing present in the image ?'
p2775
g2773
I1
tp2776
a(g1
g2
S'colorful bowling shoes'
p2777
I1
tp2778
a(g1
S'Select the type of clothing present in the image ?'
p2779
g2777
I1
tp2780
a(g7
S'What is the type of scene present in the image ?'
p2781
S'book outside'
p2782
I1
tp2783
a(g14
g15
S'hospital bed'
p2784
I1
tp2785
a(g14
g15
S'weight resistor'
p2786
I1
tp2787
a(g20
S'Select the type of people present in the image ?'
p2788
S'acrobatic entertainers'
p2789
I1
tp2790
a(g14
g15
S'thinks'
p2791
I1
tp2792
a(g14
g15
S'classical bust'
p2793
I1
tp2794
a(g14
g15
S'cricket cage'
p2795
I1
tp2796
a(g293
S'What is the type of bodyparts present in the image ?'
p2797
S'tear stained face'
p2798
I1
tp2799
a(g20
S'Select the type of people present in the image ?'
p2800
S'muslim woman'
p2801
I1
tp2802
a(g7
S'What is the type of scene present in the image ?'
p2803
S'narrow paved walkway'
p2804
I1
tp2805
a(g20
S'Select the type of people present in the image ?'
p2806
S'girls team members'
p2807
I1
tp2808
a(g1
g2
S'university new hampshire'
p2809
I1
tp2810
a(g1
S'What is the type of clothing present in the image ?'
p2811
g2809
I1
tp2812
a(g20
S'Select the type of people present in the image ?'
p2813
S'group blond young women'
p2814
I1
tp2815
a(g7
S'What is the type of scene present in the image ?'
p2816
S'olympic type sporting event'
p2817
I1
tp2818
a(g1
g2
S'pink coat'
p2819
I1
tp2820
a(g1
S'Select the type of clothing present in the image ?'
p2821
g2819
I1
tp2822
a(g14
g15
S'green trousers peeks'
p2823
I1
tp2824
a(g14
g15
S'apron work'
p2825
I1
tp2826
a(g14
g15
S'blue shovel'
p2827
I1
tp2828
a(g14
g15
S'street food'
p2829
I1
tp2830
a(g7
S'What is the type of scene present in the image ?'
p2831
S'skyline'
p2832
I1
tp2833
a(g293
S'Select the type of bodyparts present in the image ?'
p2834
S'child '
p2835
I1
tp2836
a(g14
g15
S'various stuff'
p2837
I1
tp2838
a(g20
S'What is the type of people present in the image ?'
p2839
S'several groups'
p2840
I1
tp2841
a(g14
g15
S'group young girls food'
p2842
I1
tp2843
a(g14
g15
S'shoeless'
p2844
I1
tp2845
a(g241
S'Select the type of animals present in the image ?'
p2846
S'seashells'
p2847
I1
tp2848
a(g293
S'What is the type of bodyparts present in the image ?'
p2849
S'painted red fingers'
p2850
I1
tp2851
a(g20
S'Select the type of people present in the image ?'
p2852
S'performers'
p2853
I1
tp2854
a(g7
S'What is the type of scene present in the image ?'
p2855
S'wood cabin'
p2856
I1
tp2857
a(g20
S'Select the type of people present in the image ?'
p2858
S'reporters'
p2859
I1
tp2860
a(g20
S'What is the type of people present in the image ?'
p2861
S'honor guard'
p2862
I1
tp2863
a(g7
S'Select the type of scene present in the image ?'
p2864
S'crisp day'
p2865
I1
tp2866
a(g14
g15
S'conversation'
p2867
I1
tp2868
a(g14
g15
S'first time'
p2869
I1
tp2870
a(g7
S'What is the type of scene present in the image ?'
p2871
S'john deere 7200 type machine vehicle outside'
p2872
I1
tp2873
a(g7
S'Select the type of scene present in the image ?'
p2874
S'compact space'
p2875
I1
tp2876
a(g7
S'What is the type of scene present in the image ?'
p2877
S'performance information board theater'
p2878
I1
tp2879
a(g20
S'How many workers are there in the image ?'
p2880
S'five workers'
p2881
I0
tp2882
a(g20
S'Select the type of people present in the image ?'
p2883
g2881
I1
tp2884
a(g20
S'What is the type of people present in the image ?'
p2885
S'fan'
p2886
I1
tp2887
a(g14
g15
S'bowl'
p2888
I1
tp2889
a(g241
S'Select the type of animals present in the image ?'
p2890
S'pitbull'
p2891
I1
tp2892
a(g14
g15
S'open apple laptop'
p2893
I1
tp2894
a(g14
g15
S'college course'
p2895
I1
tp2896
a(g293
S'What is the type of bodyparts present in the image ?'
p2897
g2232
I1
tp2898
a(g1
g2
S'floral blouse'
p2899
I1
tp2900
a(g1
S'Select the type of clothing present in the image ?'
p2901
g2899
I1
tp2902
a(g20
S'What is the type of people present in the image ?'
p2903
g257
I1
tp2904
a(g14
g15
S'heavy cart full bricks'
p2905
I1
tp2906
a(g241
S'Select the type of animals present in the image ?'
p2907
S'horse'
p2908
I1
tp2909
a(g1
g2
S'red cape'
p2910
I1
tp2911
a(g1
S'What is the type of clothing present in the image ?'
p2912
g2910
I1
tp2913
a(g20
S'How many young guys are there in the image ?'
p2914
S'two young guys'
p2915
I0
tp2916
a(g20
S'Select the type of people present in the image ?'
p2917
g2915
I1
tp2918
a(g14
g15
S'next move'
p2919
I1
tp2920
a(g14
g15
S'canoe'
p2921
I1
tp2922
a(g7
S'What is the type of scene present in the image ?'
p2923
S'woodland'
p2924
I1
tp2925
a(g1
g2
S'black teal leotards'
p2926
I1
tp2927
a(g1
S'Select the type of clothing present in the image ?'
p2928
g2926
I1
tp2929
a(g14
g15
S'mudfight'
p2930
I1
tp2931
a(g1
g2
S'shaped helmet'
p2932
I1
tp2933
a(g1
S'What is the type of clothing present in the image ?'
p2934
g2932
I1
tp2935
a(g73
S'Select the type of vehicles present in the image ?'
p2936
S'mountain bikes'
p2937
I1
tp2938
a(g14
g15
S'businesses'
p2939
I1
tp2940
a(g1
g2
S'headphones'
p2941
I1
tp2942
a(g1
S'What is the type of clothing present in the image ?'
p2943
g2941
I1
tp2944
a(g14
g15
S'red goods'
p2945
I1
tp2946
a(g14
g15
S'holder'
p2947
I1
tp2948
a(g14
g15
S'blade skate'
p2949
I1
tp2950
a(g14
g15
S'side set'
p2951
I1
tp2952
a(g1
g2
S'pink umbrellas'
p2953
I1
tp2954
a(g1
S'Select the type of clothing present in the image ?'
p2955
g2953
I1
tp2956
a(g14
g15
S'chop wood'
p2957
I1
tp2958
a(g14
g15
S'backpack slung'
p2959
I1
tp2960
a(g14
g15
S'sideline soccer match'
p2961
I1
tp2962
a(g14
g15
g264
I1
tp2963
a(g14
g15
S'greyhound dogs race'
p2964
I1
tp2965
a(g14
g15
S'school field trip'
p2966
I1
tp2967
a(g7
S'What is the type of scene present in the image ?'
p2968
S'white pillared palace'
p2969
I1
tp2970
a(g241
S'Select the type of animals present in the image ?'
p2971
S'white curly'
p2972
I1
tp2973
a(g20
S'What is the type of people present in the image ?'
p2974
S'baby girl'
p2975
I1
tp2976
a(g14
g15
S'freedom movement'
p2977
I1
tp2978
a(g14
g15
S'large red bull logo'
p2979
I1
tp2980
a(g7
S'Select the type of scene present in the image ?'
p2981
S'city buildings'
p2982
I1
tp2983
a(g7
S'What is the type of scene present in the image ?'
p2984
S'cracks'
p2985
I1
tp2986
a(g14
g15
S'blue cloth'
p2987
I1
tp2988
a(g14
g15
S'cement curb'
p2989
I1
tp2990
a(g14
g15
S'extremely cold weather'
p2991
I1
tp2992
a(g14
g15
S'colorful blanket'
p2993
I1
tp2994
a(g20
S'Select the type of people present in the image ?'
p2995
S'white man'
p2996
I1
tp2997
a(g14
g15
S'grassy knoll'
p2998
I1
tp2999
a(g14
g15
S'computer wires'
p3000
I1
tp3001
a(g7
S'What is the type of scene present in the image ?'
p3002
S'gated yard'
p3003
I1
tp3004
a(g14
g15
S'tobacco '
p3005
I1
tp3006
a(g7
S'Select the type of scene present in the image ?'
p3007
S'nighttime scene outdoor food kiosk'
p3008
I1
tp3009
a(g14
g15
S'large load'
p3010
I1
tp3011
a(g20
S'How many picture  people are there in the image ?'
p3012
S'picture five people'
p3013
I0
tp3014
a(g20
S'What is the type of people present in the image ?'
p3015
g3013
I1
tp3016
a(g1
g2
S'green shirt'
p3017
I1
tp3018
a(g1
S'Select the type of clothing present in the image ?'
p3019
g3017
I1
tp3020
a(g20
S'What is the type of people present in the image ?'
p3021
S'author'
p3022
I1
tp3023
a(g14
g15
S'ot'
p3024
I1
tp3025
a(g1
g2
S'blue hairnet'
p3026
I1
tp3027
a(g1
S'Select the type of clothing present in the image ?'
p3028
g3026
I1
tp3029
a(g1
g2
S'tiara'
p3030
I1
tp3031
a(g1
S'What is the type of clothing present in the image ?'
p3032
g3030
I1
tp3033
a(g293
S'Select the type of bodyparts present in the image ?'
p3034
S'hair'
p3035
I1
tp3036
a(g14
g15
S'bacon'
p3037
I1
tp3038
a(g14
g15
S'lots vegetables'
p3039
I1
tp3040
a(g14
g15
S'yellow object'
p3041
I1
tp3042
a(g14
g15
S'ensuring'
p3043
I1
tp3044
a(g7
S'What is the type of scene present in the image ?'
p3045
S'market district'
p3046
I1
tp3047
a(g1
g2
S'tight pants'
p3048
I1
tp3049
a(g1
S'Select the type of clothing present in the image ?'
p3050
g3048
I1
tp3051
a(g7
S'What is the type of scene present in the image ?'
p3052
S'lively city street'
p3053
I1
tp3054
a(g14
g15
S'wooden contraption'
p3055
I1
tp3056
a(g14
g15
S'machinery upstairs'
p3057
I1
tp3058
a(g1
g2
S'splotch primary'
p3059
I1
tp3060
a(g1
S'Select the type of clothing present in the image ?'
p3061
g3059
I1
tp3062
a(g611
S'What is the type of instruments present in the image ?'
p3063
S'trumpet'
p3064
I1
tp3065
a(g14
g15
S'cowboy ride'
p3066
I1
tp3067
a(g1
g2
S'red patterned shorts'
p3068
I1
tp3069
a(g1
S'Select the type of clothing present in the image ?'
p3070
g3068
I1
tp3071
a(g14
g15
S'junk'
p3072
I1
tp3073
a(g1
g2
S'floral print shirt'
p3074
I1
tp3075
a(g1
S'What is the type of clothing present in the image ?'
p3076
g3074
I1
tp3077
a(g14
g15
S'speed'
p3078
I1
tp3079
a(g14
g15
S'yellow ski'
p3080
I1
tp3081
a(g7
S'Select the type of scene present in the image ?'
p3082
S'busy florist shop'
p3083
I1
tp3084
a(g1
g2
S'green brown'
p3085
I1
tp3086
a(g1
S'What is the type of clothing present in the image ?'
p3087
g3085
I1
tp3088
a(g14
g15
S'torch'
p3089
I1
tp3090
a(g14
g15
S'korean flag'
p3091
I1
tp3092
a(g20
S'How many teens are there in the image ?'
p3093
S'four teens'
p3094
I0
tp3095
a(g20
S'Select the type of people present in the image ?'
p3096
g3094
I1
tp3097
a(g7
S'What is the type of scene present in the image ?'
p3098
S'middle red bridge'
p3099
I1
tp3100
a(g20
S'Select the type of people present in the image ?'
p3101
S'structure kind'
p3102
I1
tp3103
a(g14
g15
S'charlotte '
p3104
I1
tp3105
a(g293
S'What is the type of bodyparts present in the image ?'
p3106
S'weird face'
p3107
I1
tp3108
a(g20
S'Select the type of people present in the image ?'
p3109
S'dad'
p3110
I1
tp3111
a(g20
S'What is the type of people present in the image ?'
p3112
S'owner'
p3113
I1
tp3114
a(g73
S'How many vehicles are present in the image ?'
p3115
S'seven vehicles'
p3116
I0
tp3117
a(g73
S'Select the type of vehicles present in the image ?'
p3118
g3116
I1
tp3119
a(g14
g15
S'blue corn tortillas'
p3120
I1
tp3121
a(g1
g2
S'green blue jerseys'
p3122
I1
tp3123
a(g1
S'What is the type of clothing present in the image ?'
p3124
g3122
I1
tp3125
a(g20
S'How many vendors are there in the image ?'
p3126
S'two vendors'
p3127
I0
tp3128
a(g20
S'Select the type of people present in the image ?'
p3129
g3127
I1
tp3130
a(g7
S'What is the type of scene present in the image ?'
p3131
S'way home'
p3132
I1
tp3133
a(g241
S'Select the type of animals present in the image ?'
p3134
S'large dog'
p3135
I1
tp3136
a(g14
g15
S'middle eastern garb embrace'
p3137
I1
tp3138
a(g14
g15
S'role'
p3139
I1
tp3140
a(g20
S'What is the type of people present in the image ?'
p3141
S'activists'
p3142
I1
tp3143
a(g7
S'Select the type of scene present in the image ?'
p3144
S'blue phone booth'
p3145
I1
tp3146
a(g1
g2
S'sailor suit'
p3147
I1
tp3148
a(g1
S'What is the type of clothing present in the image ?'
p3149
g3147
I1
tp3150
a(g7
S'Select the type of scene present in the image ?'
p3151
S'green tips'
p3152
I1
tp3153
a(g241
S'What is the type of animals present in the image ?'
p3154
S'camels'
p3155
I1
tp3156
a(g14
g15
S'wine sample table'
p3157
I1
tp3158
a(g1
g2
S'ball caps'
p3159
I1
tp3160
a(g1
S'Select the type of clothing present in the image ?'
p3161
g3159
I1
tp3162
a(g7
S'What is the type of scene present in the image ?'
p3163
S'one side street'
p3164
I1
tp3165
a(g1
g2
g165
I1
tp3166
a(g1
S'Select the type of clothing present in the image ?'
p3167
g165
I1
tp3168
a(g14
g15
S'memo'
p3169
I1
tp3170
a(g14
g15
S'golden relic'
p3171
I1
tp3172
a(g7
S'What is the type of scene present in the image ?'
p3173
S'gray bricked street'
p3174
I1
tp3175
a(g20
S'Select the type of people present in the image ?'
p3176
S'dressed'
p3177
I1
tp3178
a(g1
g2
S'blue short'
p3179
I1
tp3180
a(g1
S'What is the type of clothing present in the image ?'
p3181
g3179
I1
tp3182
a(g14
g15
S'carnival amusement park ride'
p3183
I1
tp3184
a(g7
S'Select the type of scene present in the image ?'
p3185
S'roadside'
p3186
I1
tp3187
a(g7
S'What is the type of scene present in the image ?'
p3188
S'tennis ball midair'
p3189
I1
tp3190
a(g14
g15
S'bald'
p3191
I1
tp3192
a(g1
g2
S'yellow bikini top'
p3193
I1
tp3194
a(g1
S'Select the type of clothing present in the image ?'
p3195
g3193
I1
tp3196
a(g20
S'What is the type of people present in the image ?'
p3197
S'college dance singing crew'
p3198
I1
tp3199
a(g1
g2
S'brown neck'
p3200
I1
tp3201
a(g1
S'Select the type of clothing present in the image ?'
p3202
g3200
I1
tp3203
a(g1
g2
S'short dress'
p3204
I1
tp3205
a(g1
S'What is the type of clothing present in the image ?'
p3206
g3204
I1
tp3207
a(g14
g15
S'asian family sight'
p3208
I1
tp3209
a(g20
S'Select the type of people present in the image ?'
p3210
S'second man'
p3211
I1
tp3212
a(g7
S'What is the type of scene present in the image ?'
p3213
S'part general seating area'
p3214
I1
tp3215
a(g1
g2
S'zombie costumes'
p3216
I1
tp3217
a(g1
S'Select the type of clothing present in the image ?'
p3218
g3216
I1
tp3219
a(g14
g15
S'fours'
p3220
I1
tp3221
a(g14
g15
S'purpose'
p3222
I1
tp3223
a(g14
g15
S'marble countertop'
p3224
I1
tp3225
a(g293
S'What is the type of bodyparts present in the image ?'
p3226
S'curly brunette hair'
p3227
I1
tp3228
a(g14
g15
S'beautiful ceiling'
p3229
I1
tp3230
a(g1
g2
S'red harness'
p3231
I1
tp3232
a(g1
S'Select the type of clothing present in the image ?'
p3233
g3231
I1
tp3234
a(g7
S'What is the type of scene present in the image ?'
p3235
S'waterway canal'
p3236
I1
tp3237
a(g14
g15
S'late afternoon sun'
p3238
I1
tp3239
a(g7
S'Select the type of scene present in the image ?'
p3240
S'flood water'
p3241
I1
tp3242
a(g1
g2
S'short striped dress'
p3243
I1
tp3244
a(g1
S'What is the type of clothing present in the image ?'
p3245
g3243
I1
tp3246
a(g14
g15
S'thin course'
p3247
I1
tp3248
a(g20
S'How many contestants are there in the image ?'
p3249
S'three contestants'
p3250
I0
tp3251
a(g20
S'Select the type of people present in the image ?'
p3252
g3250
I1
tp3253
a(g14
g15
S'instructions'
p3254
I1
tp3255
a(g14
g15
S'volvo sign'
p3256
I1
tp3257
a(g20
S'What is the type of people present in the image ?'
p3258
S'old people'
p3259
I1
tp3260
a(g14
g15
S'bit'
p3261
I1
tp3262
a(g1
g2
S'strange hats'
p3263
I1
tp3264
a(g1
S'Select the type of clothing present in the image ?'
p3265
g3263
I1
tp3266
a(g14
g15
S'barefoot blows'
p3267
I1
tp3268
a(g20
S'What is the type of people present in the image ?'
p3269
S'several boys'
p3270
I1
tp3271
a(g7
S'Select the type of scene present in the image ?'
p3272
S'birds eye view'
p3273
I1
tp3274
a(g241
S'What is the type of animals present in the image ?'
p3275
S'tiny lizard'
p3276
I1
tp3277
a(g1
g2
S'black winter coat'
p3278
I1
tp3279
a(g1
S'Select the type of clothing present in the image ?'
p3280
g3278
I1
tp3281
a(g20
S'What is the type of people present in the image ?'
p3282
S'carpenter'
p3283
I1
tp3284
a(g73
S'Select the type of vehicles present in the image ?'
p3285
S'yellow construction vehicle'
p3286
I1
tp3287
a(g14
g15
S'nice treat'
p3288
I1
tp3289
a(g14
g15
S'current adult procession'
p3290
I1
tp3291
a(g7
S'What is the type of scene present in the image ?'
p3292
S'stretch concrete road'
p3293
I1
tp3294
a(g1
g2
S'matching orange uniforms'
p3295
I1
tp3296
a(g1
S'Select the type of clothing present in the image ?'
p3297
g3295
I1
tp3298
a(g14
g15
S'woman weaves'
p3299
I1
tp3300
a(g7
S'What is the type of scene present in the image ?'
p3301
S'landscape'
p3302
I1
tp3303
a(g14
g15
S'half'
p3304
I1
tp3305
a(g14
g15
S'presentations'
p3306
I1
tp3307
a(g20
S'Select the type of people present in the image ?'
p3308
S'warrior women'
p3309
I1
tp3310
a(g14
g15
S'bucket roses'
p3311
I1
tp3312
a(g7
S'What is the type of scene present in the image ?'
p3313
S'boat house'
p3314
I1
tp3315
a(g14
g15
S'many electrical parts'
p3316
I1
tp3317
a(g14
g15
S'orange bowling bowl'
p3318
I1
tp3319
a(g20
S'How many street workman are there in the image ?'
p3320
S'two street workman'
p3321
I0
tp3322
a(g20
S'Select the type of people present in the image ?'
p3323
g3321
I1
tp3324
a(g14
g15
S'clams'
p3325
I1
tp3326
a(g7
S'What is the type of scene present in the image ?'
p3327
S'dark venue'
p3328
I1
tp3329
a(g241
S'Select the type of animals present in the image ?'
p3330
S'beautiful animal'
p3331
I1
tp3332
a(g1
g2
S'light brown shorts'
p3333
I1
tp3334
a(g1
S'What is the type of clothing present in the image ?'
p3335
g3333
I1
tp3336
a(g14
g15
S'face'
p3337
I1
tp3338
a(g14
g15
S'band four'
p3339
I1
tp3340
a(g7
S'Select the type of scene present in the image ?'
p3341
S'big marble building'
p3342
I1
tp3343
a(g14
g15
S'black material'
p3344
I1
tp3345
a(g20
S'What is the type of people present in the image ?'
p3346
S'older street musician'
p3347
I1
tp3348
a(g14
g15
S'dark concert hall'
p3349
I1
tp3350
a(g7
S'Select the type of scene present in the image ?'
p3351
S'surroundings'
p3352
I1
tp3353
a(g7
S'What is the type of scene present in the image ?'
p3354
S'gymnastic event'
p3355
I1
tp3356
a(g14
g15
S'various alcoholic beverages'
p3357
I1
tp3358
a(g14
g15
S'friends cycle sign'
p3359
I1
tp3360
a(g7
S'Select the type of scene present in the image ?'
p3361
S'mountain cliff'
p3362
I1
tp3363
a(g73
S'What is the type of vehicles present in the image ?'
p3364
S'busy traffic'
p3365
I1
tp3366
a(g14
g15
S'large boiling pot offer'
p3367
I1
tp3368
a(g20
S'Select the type of people present in the image ?'
p3369
g20
I1
tp3370
a(g20
S'What is the type of people present in the image ?'
p3371
S'redheaded woman'
p3372
I1
tp3373
a(g1
g2
S'brown jackets'
p3374
I1
tp3375
a(g1
S'Select the type of clothing present in the image ?'
p3376
g3374
I1
tp3377
a(g14
g15
S'one'
p3378
I1
tp3379
a(g14
g15
S'control ball'
p3380
I1
tp3381
a(g14
g15
S'blue hard'
p3382
I1
tp3383
a(g14
g15
S'orange flag'
p3384
I1
tp3385
a(g7
S'What is the type of scene present in the image ?'
p3386
S'rain forest'
p3387
I1
tp3388
a(g1
g2
S'neutral colored shirt'
p3389
I1
tp3390
a(g1
S'Select the type of clothing present in the image ?'
p3391
g3389
I1
tp3392
a(g7
S'What is the type of scene present in the image ?'
p3393
S'heavily crowded downtown area'
p3394
I1
tp3395
a(g14
g15
S'karate moves'
p3396
I1
tp3397
a(g7
S'Select the type of scene present in the image ?'
p3398
S'salon'
p3399
I1
tp3400
a(g7
S'What is the type of scene present in the image ?'
p3401
S'edge mountain'
p3402
I1
tp3403
a(g1
g2
S'bowling shoes'
p3404
I1
tp3405
a(g1
S'Select the type of clothing present in the image ?'
p3406
g3404
I1
tp3407
a(g14
g15
S'kind vigil'
p3408
I1
tp3409
a(g14
g15
S'fast'
p3410
I1
tp3411
a(g20
S'What is the type of people present in the image ?'
p3412
S'poster woman'
p3413
I1
tp3414
a(g293
S'Select the type of bodyparts present in the image ?'
p3415
S'right elbow'
p3416
I1
tp3417
a(g7
S'What is the type of scene present in the image ?'
p3418
S'country'
p3419
I1
tp3420
a(g14
g15
S'asian markings'
p3421
I1
tp3422
a(g14
g15
S'shopping basket'
p3423
I1
tp3424
a(g20
S'How many dancers are there in the image ?'
p3425
S'two dancers'
p3426
I0
tp3427
a(g20
S'Select the type of people present in the image ?'
p3428
g3426
I1
tp3429
a(g7
S'What is the type of scene present in the image ?'
p3430
S'discernible floor'
p3431
I1
tp3432
a(g1
g2
S'red '
p3433
I1
tp3434
a(g1
S'Select the type of clothing present in the image ?'
p3435
g3433
I1
tp3436
a(g7
S'What is the type of scene present in the image ?'
p3437
S'spray tiled water fountain'
p3438
I1
tp3439
a(g14
g15
g698
I1
tp3440
a(g7
S'Select the type of scene present in the image ?'
p3441
S'beautiful open field'
p3442
I1
tp3443
a(g14
g15
S'oil rig'
p3444
I1
tp3445
a(g20
S'What is the type of people present in the image ?'
p3446
S'african american basketball player'
p3447
I1
tp3448
a(g14
g15
S'five washing machines'
p3449
I1
tp3450
a(g20
S'Select the type of people present in the image ?'
p3451
S'viewers'
p3452
I1
tp3453
a(g7
S'What is the type of scene present in the image ?'
p3454
S'rock pier'
p3455
I1
tp3456
a(g7
S'Select the type of scene present in the image ?'
p3457
S'green grass'
p3458
I1
tp3459
a(g14
g15
S'ice raids'
p3460
I1
tp3461
a(g241
S'What is the type of animals present in the image ?'
p3462
S'brown white animal'
p3463
I1
tp3464
a(g14
g15
S'barren trees'
p3465
I1
tp3466
a(g7
S'Select the type of scene present in the image ?'
p3467
S'public indoor pool'
p3468
I1
tp3469
a(g14
g15
S'red walls'
p3470
I1
tp3471
a(g14
g15
S'hair whip'
p3472
I1
tp3473
a(g293
S'What is the type of bodyparts present in the image ?'
p3474
S'close haircut'
p3475
I1
tp3476
a(g1
g2
S'v'
p3477
I1
tp3478
a(g1
S'Select the type of clothing present in the image ?'
p3479
g3477
I1
tp3480
a(g14
g15
S'play equipment'
p3481
I1
tp3482
a(g14
g15
S'bowling pins'
p3483
I1
tp3484
a(g293
S'What is the type of bodyparts present in the image ?'
p3485
S'flying knee'
p3486
I1
tp3487
a(g1
g2
S'tank top jeans'
p3488
I1
tp3489
a(g1
S'Select the type of clothing present in the image ?'
p3490
g3488
I1
tp3491
a(g7
S'What is the type of scene present in the image ?'
p3492
S'yoga outdoors'
p3493
I1
tp3494
a(g20
S'Select the type of people present in the image ?'
p3495
S'onlooker'
p3496
I1
tp3497
a(g14
g15
S'ledge'
p3498
I1
tp3499
a(g7
S'What is the type of scene present in the image ?'
p3500
S'darkly lit room'
p3501
I1
tp3502
a(g1
g2
S'blue track pants'
p3503
I1
tp3504
a(g1
S'Select the type of clothing present in the image ?'
p3505
g3503
I1
tp3506
a(g20
S'What is the type of people present in the image ?'
p3507
S'line people'
p3508
I1
tp3509
a(g14
g15
S'lit candles'
p3510
I1
tp3511
a(g7
S'Select the type of scene present in the image ?'
p3512
S'stadium'
p3513
I1
tp3514
a(g7
S'What is the type of scene present in the image ?'
p3515
S'orange crane'
p3516
I1
tp3517
a(g20
S'Select the type of people present in the image ?'
p3518
S'group indian men'
p3519
I1
tp3520
a(g293
S'What is the type of bodyparts present in the image ?'
p3521
S'displeased face'
p3522
I1
tp3523
a(g20
S'Select the type of people present in the image ?'
p3524
g1000
I1
tp3525
a(g20
S'What is the type of people present in the image ?'
p3526
S'group guests'
p3527
I1
tp3528
a(g14
g15
S'dirt mound'
p3529
I1
tp3530
a(g14
g15
S'tools'
p3531
I1
tp3532
a(g14
g15
S'big blue ball'
p3533
I1
tp3534
a(g241
S'Select the type of animals present in the image ?'
p3535
g1615
I1
tp3536
a(g14
g15
S'scene accident'
p3537
I1
tp3538
a(g14
g15
S'bicycle race'
p3539
I1
tp3540
a(g14
g15
S'election'
p3541
I1
tp3542
a(g14
g15
S'first downhill sled ride'
p3543
I1
tp3544
a(g1
g2
S'mismatched clothing'
p3545
I1
tp3546
a(g1
S'What is the type of clothing present in the image ?'
p3547
g3545
I1
tp3548
a(g14
g15
S'hammock'
p3549
I1
tp3550
a(g293
S'Select the type of bodyparts present in the image ?'
p3551
g2224
I1
tp3552
a(g7
S'What is the type of scene present in the image ?'
p3553
S'surgery ward'
p3554
I1
tp3555
a(g14
g15
S'megaphone'
p3556
I1
tp3557
a(g293
S'Select the type of bodyparts present in the image ?'
p3558
S'beard'
p3559
I1
tp3560
a(g1
g2
S'white paper hats'
p3561
I1
tp3562
a(g1
S'What is the type of clothing present in the image ?'
p3563
g3561
I1
tp3564
a(g20
S'Select the type of people present in the image ?'
p3565
S'protester'
p3566
I1
tp3567
a(g14
g15
S'telephones'
p3568
I1
tp3569
a(g7
S'What is the type of scene present in the image ?'
p3570
S'beverage shop'
p3571
I1
tp3572
a(g14
g15
S'white sink'
p3573
I1
tp3574
a(g7
S'Select the type of scene present in the image ?'
p3575
S'flower stand'
p3576
I1
tp3577
a(g14
g15
S'sprayer'
p3578
I1
tp3579
a(g14
g15
S'electronics'
p3580
I1
tp3581
a(g14
g15
S'furniture'
p3582
I1
tp3583
a(g14
g15
S'substance'
p3584
I1
tp3585
a(g7
S'What is the type of scene present in the image ?'
p3586
S'uncrowded neighborhood'
p3587
I1
tp3588
a(g14
g15
S'jaws life'
p3589
I1
tp3590
a(g293
S'Select the type of bodyparts present in the image ?'
p3591
S'wavy hair'
p3592
I1
tp3593
a(g14
g15
g3304
I1
tp3594
a(g20
S'What is the type of people present in the image ?'
p3595
S'old overweight man'
p3596
I1
tp3597
a(g1
g2
S'weird outfit'
p3598
I1
tp3599
a(g1
S'Select the type of clothing present in the image ?'
p3600
g3598
I1
tp3601
a(g20
S'What is the type of people present in the image ?'
p3602
S'dance class'
p3603
I1
tp3604
a(g14
g15
S'coffee table'
p3605
I1
tp3606
a(g14
g15
S'steel mug'
p3607
I1
tp3608
a(g14
g15
S'bored expressions'
p3609
I1
tp3610
a(g14
g15
S'opposing team '
p3611
I1
tp3612
a(g1
g2
S'blue gold'
p3613
I1
tp3614
a(g1
S'Select the type of clothing present in the image ?'
p3615
g3613
I1
tp3616
a(g14
g15
S'stairwell'
p3617
I1
tp3618
a(g14
g15
S'among six traffic cones'
p3619
I1
tp3620
a(g14
g15
S'game pinata'
p3621
I1
tp3622
a(g7
S'What is the type of scene present in the image ?'
p3623
g1713
I1
tp3624
a(g14
g15
g2313
I1
tp3625
a(g7
S'Select the type of scene present in the image ?'
p3626
S'front lawn house'
p3627
I1
tp3628
a(g7
S'What is the type of scene present in the image ?'
p3629
S'narrow walkway'
p3630
I1
tp3631
a(g7
S'Select the type of scene present in the image ?'
p3632
S'creek bank'
p3633
I1
tp3634
a(g1
g2
S'blue red top'
p3635
I1
tp3636
a(g1
S'What is the type of clothing present in the image ?'
p3637
g3635
I1
tp3638
a(g14
g15
S'purple liquid'
p3639
I1
tp3640
a(g14
g15
S'drag'
p3641
I1
tp3642
a(g20
S'Select the type of people present in the image ?'
p3643
S'mid teens'
p3644
I1
tp3645
a(g73
S'What is the type of vehicles present in the image ?'
p3646
S'red go'
p3647
I1
tp3648
a(g20
S'Select the type of people present in the image ?'
p3649
g3113
I1
tp3650
a(g14
g15
S'chores'
p3651
I1
tp3652
a(g20
S'How many soldiers are there in the image ?'
p3653
S'3 soldiers'
p3654
I0
tp3655
a(g20
S'What is the type of people present in the image ?'
p3656
g3654
I1
tp3657
a(g14
g15
S'blue baseball'
p3658
I1
tp3659
a(g14
g15
S'shows'
p3660
I1
tp3661
a(g73
S'How many foot are present in the image ?'
p3662
S'foot two'
p3663
I0
tp3664
a(g73
S'Select the type of vehicles present in the image ?'
p3665
g3663
I1
tp3666
a(g14
g15
S'mythology'
p3667
I1
tp3668
a(g14
g15
S'ripples'
p3669
I1
tp3670
a(g14
g15
S'large blue mat'
p3671
I1
tp3672
a(g14
g15
S'small rowboat'
p3673
I1
tp3674
a(g14
g15
g2784
I1
tp3675
a(g14
g15
S'skit'
p3676
I1
tp3677
a(g1
g2
S'furry hat'
p3678
I1
tp3679
a(g1
S'What is the type of clothing present in the image ?'
p3680
g3678
I1
tp3681
a(g20
S'Select the type of people present in the image ?'
p3682
S'soccer player'
p3683
I1
tp3684
a(g14
g15
S'concerned look'
p3685
I1
tp3686
a(g293
S'What is the type of bodyparts present in the image ?'
p3687
S'left index finger'
p3688
I1
tp3689
a(g14
g15
S'basketball'
p3690
I1
tp3691
a(g293
S'Select the type of bodyparts present in the image ?'
p3692
S'knees'
p3693
I1
tp3694
a(g293
S'What is the type of bodyparts present in the image ?'
p3695
S'one knee'
p3696
I1
tp3697
a(g14
g15
S'field rocks'
p3698
I1
tp3699
a(g7
S'Select the type of scene present in the image ?'
p3700
S'day'
p3701
I1
tp3702
a(g7
S'What is the type of scene present in the image ?'
p3703
S'digging site'
p3704
I1
tp3705
a(g14
g15
S'picture'
p3706
I1
tp3707
a(g7
S'Select the type of scene present in the image ?'
p3708
S'training mission'
p3709
I1
tp3710
a(g7
S'What is the type of scene present in the image ?'
p3711
S'odeon building'
p3712
I1
tp3713
a(g20
S'Select the type of people present in the image ?'
p3714
S'spaceman'
p3715
I1
tp3716
a(g1
g2
S'fair skin'
p3717
I1
tp3718
a(g1
S'What is the type of clothing present in the image ?'
p3719
g3717
I1
tp3720
a(g14
g15
S'steam'
p3721
I1
tp3722
a(g293
S'Select the type of bodyparts present in the image ?'
p3723
S'two rock faces'
p3724
I1
tp3725
a(g14
g15
S'change'
p3726
I1
tp3727
a(g1
g2
S'silly mask'
p3728
I1
tp3729
a(g1
S'What is the type of clothing present in the image ?'
p3730
g3728
I1
tp3731
a(g20
S'Select the type of people present in the image ?'
p3732
S'small type'
p3733
I1
tp3734
a(g14
g15
S'tye'
p3735
I1
tp3736
a(g14
g15
S'construction workers balance'
p3737
I1
tp3738
a(g7
S'What is the type of scene present in the image ?'
p3739
S'middle room'
p3740
I1
tp3741
a(g20
S'Select the type of people present in the image ?'
p3742
S'male'
p3743
I1
tp3744
a(g14
g15
S'mobile device'
p3745
I1
tp3746
a(g7
S'What is the type of scene present in the image ?'
p3747
S'outdoor stage'
p3748
I1
tp3749
a(g611
S'Select the type of instruments present in the image ?'
p3750
S'musical instruments'
p3751
I1
tp3752
a(g20
S'What is the type of people present in the image ?'
p3753
S'train whizzes'
p3754
I1
tp3755
a(g7
S'Select the type of scene present in the image ?'
p3756
S'roof room'
p3757
I1
tp3758
a(g1
g2
S'tie dyed shirt'
p3759
I1
tp3760
a(g1
S'What is the type of clothing present in the image ?'
p3761
g3759
I1
tp3762
a(g20
S'How many bikers are there in the image ?'
p3763
S'three bikers'
p3764
I0
tp3765
a(g20
S'Select the type of people present in the image ?'
p3766
g3764
I1
tp3767
a(g1
g2
S'muddy orange shirt'
p3768
I1
tp3769
a(g1
S'What is the type of clothing present in the image ?'
p3770
g3768
I1
tp3771
a(g14
g15
S'template'
p3772
I1
tp3773
a(g14
g15
S'shirts jog'
p3774
I1
tp3775
a(g14
g15
S'working construction'
p3776
I1
tp3777
a(g14
g15
S'crowded city square'
p3778
I1
tp3779
a(g14
g15
S'dress strap'
p3780
I1
tp3781
a(g1
g2
S'brown white'
p3782
I1
tp3783
a(g1
S'Select the type of clothing present in the image ?'
p3784
g3782
I1
tp3785
a(g14
g15
S'mac laptop'
p3786
I1
tp3787
a(g14
g15
S'sprinkles'
p3788
I1
tp3789
a(g14
g15
S'square tables'
p3790
I1
tp3791
a(g7
S'What is the type of scene present in the image ?'
p3792
S'cold sunny day'
p3793
I1
tp3794
a(g14
g15
S'grassy pathway'
p3795
I1
tp3796
a(g20
S'Select the type of people present in the image ?'
p3797
S'track runner'
p3798
I1
tp3799
a(g1
g2
S'pageboy hat'
p3800
I1
tp3801
a(g1
S'What is the type of clothing present in the image ?'
p3802
g3800
I1
tp3803
a(g14
g15
S'binky'
p3804
I1
tp3805
a(g241
S'Select the type of animals present in the image ?'
p3806
S'formal horse'
p3807
I1
tp3808
a(g14
g15
S'game rugby'
p3809
I1
tp3810
a(g14
g15
S'pink sungalsses case'
p3811
I1
tp3812
a(g1
g2
S'gray black outfit'
p3813
I1
tp3814
a(g1
S'What is the type of clothing present in the image ?'
p3815
g3813
I1
tp3816
a(g1
g2
S'blue purple outfit'
p3817
I1
tp3818
a(g1
S'Select the type of clothing present in the image ?'
p3819
g3817
I1
tp3820
a(g14
g15
S'paint'
p3821
I1
tp3822
a(g20
S'What is the type of people present in the image ?'
p3823
S'peaceful man'
p3824
I1
tp3825
a(g73
S'Select the type of vehicles present in the image ?'
p3826
S'nescafe carts'
p3827
I1
tp3828
a(g14
g15
S'small talk'
p3829
I1
tp3830
a(g14
g15
S'house repairs'
p3831
I1
tp3832
a(g14
g15
S'large black square'
p3833
I1
tp3834
a(g14
g15
S'community dinner'
p3835
I1
tp3836
a(g14
g15
S'championship basketball game'
p3837
I1
tp3838
a(g14
g15
S'bear exhibit'
p3839
I1
tp3840
a(g293
S'What is the type of bodyparts present in the image ?'
p3841
S'crab leg'
p3842
I1
tp3843
a(g14
g15
S'tether line'
p3844
I1
tp3845
a(g20
S'Select the type of people present in the image ?'
p3846
S'plenty plumber'
p3847
I1
tp3848
a(g14
g15
S'proceed'
p3849
I1
tp3850
a(g14
g15
S'imac'
p3851
I1
tp3852
a(g14
g15
S'ny'
p3853
I1
tp3854
a(g14
g15
S'agility test'
p3855
I1
tp3856
a(g14
g15
S'flour covered table'
p3857
I1
tp3858
a(g14
g15
S'opposite sides photo look'
p3859
I1
tp3860
a(g14
g15
S'gym mat'
p3861
I1
tp3862
a(g14
g15
S'middles concrete'
p3863
I1
tp3864
a(g20
S'What is the type of people present in the image ?'
p3865
S'part orchestra'
p3866
I1
tp3867
a(g20
S'Select the type of people present in the image ?'
p3868
S'women '
p3869
I1
tp3870
a(g14
g15
S'small metal part'
p3871
I1
tp3872
a(g14
g15
S'bench face'
p3873
I1
tp3874
a(g20
S'What is the type of people present in the image ?'
p3875
S'burning piles'
p3876
I1
tp3877
a(g73
S'Select the type of vehicles present in the image ?'
p3878
S'trash truck'
p3879
I1
tp3880
a(g20
S'What is the type of people present in the image ?'
p3881
S'piano player'
p3882
I1
tp3883
a(g14
g15
S'blue white shirt shows concern'
p3884
I1
tp3885
a(g293
S'Select the type of bodyparts present in the image ?'
p3886
S'dirty hands'
p3887
I1
tp3888
a(g73
S'What is the type of vehicles present in the image ?'
p3889
S'pictures vehicle'
p3890
I1
tp3891
a(g14
g15
S'sort cloth'
p3892
I1
tp3893
a(g14
g15
S'dollies'
p3894
I1
tp3895
a(g14
g15
S'old stone wall'
p3896
I1
tp3897
a(g14
g15
S'piece paper'
p3898
I1
tp3899
a(g14
g15
S'competitive match'
p3900
I1
tp3901
a(g1
g2
S'green white striped shirt'
p3902
I1
tp3903
a(g1
S'Select the type of clothing present in the image ?'
p3904
g3902
I1
tp3905
a(g14
g15
S'indoor mall'
p3906
I1
tp3907
a(g14
g15
S'base stage work'
p3908
I1
tp3909
a(g7
S'What is the type of scene present in the image ?'
p3910
S'urban city'
p3911
I1
tp3912
a(g20
S'Select the type of people present in the image ?'
p3913
S'young couple'
p3914
I1
tp3915
a(g7
S'What is the type of scene present in the image ?'
p3916
S'skyscraper'
p3917
I1
tp3918
a(g7
S'Select the type of scene present in the image ?'
p3919
S'background room'
p3920
I1
tp3921
a(g14
g15
S'red blue '
p3922
I1
tp3923
a(g1
g2
S'red black socks'
p3924
I1
tp3925
a(g1
S'What is the type of clothing present in the image ?'
p3926
g3924
I1
tp3927
a(g20
S'Select the type of people present in the image ?'
p3928
S'group indian people'
p3929
I1
tp3930
a(g14
g15
S'curve'
p3931
I1
tp3932
a(g20
S'How many veterans are there in the image ?'
p3933
S'two veterans'
p3934
I0
tp3935
a(g20
S'What is the type of people present in the image ?'
p3936
g3934
I1
tp3937
a(g7
S'Select the type of scene present in the image ?'
p3938
S'driver '
p3939
I1
tp3940
a(g14
g15
S'blue green graffiti'
p3941
I1
tp3942
a(g14
g15
S'green number twenty five'
p3943
I1
tp3944
a(g241
S'What is the type of animals present in the image ?'
p3945
S'cool cats'
p3946
I1
tp3947
a(g14
g15
S'golf ball'
p3948
I1
tp3949
a(g1
g2
S'bohemian hat'
p3950
I1
tp3951
a(g1
S'Select the type of clothing present in the image ?'
p3952
g3950
I1
tp3953
a(g1
g2
S'outfits'
p3954
I1
tp3955
a(g1
S'What is the type of clothing present in the image ?'
p3956
g3954
I1
tp3957
a(g1
g2
S'leather jacket'
p3958
I1
tp3959
a(g1
S'Select the type of clothing present in the image ?'
p3960
g3958
I1
tp3961
a(g14
g15
S'costumed figures'
p3962
I1
tp3963
a(g7
S'What is the type of scene present in the image ?'
p3964
S'row aquariums'
p3965
I1
tp3966
a(g14
g15
S'yellow balconies'
p3967
I1
tp3968
a(g14
g15
S'rope'
p3969
I1
tp3970
a(g14
g15
S'chinese calligraphy'
p3971
I1
tp3972
a(g14
g15
S'competitively game'
p3973
I1
tp3974
a(g1
g2
S'blue green jacket'
p3975
I1
tp3976
a(g1
S'Select the type of clothing present in the image ?'
p3977
g3975
I1
tp3978
a(g1
g2
S'black clothing'
p3979
I1
tp3980
a(g1
S'What is the type of clothing present in the image ?'
p3981
g3979
I1
tp3982
a(g14
g15
S'uv'
p3983
I1
tp3984
a(g20
S'Select the type of people present in the image ?'
p3985
S'mountain bike riders'
p3986
I1
tp3987
a(g14
g15
S'legal immigration'
p3988
I1
tp3989
a(g14
g15
S'model santa'
p3990
I1
tp3991
a(g7
S'What is the type of scene present in the image ?'
p3992
S'local city park'
p3993
I1
tp3994
a(g14
g15
S'snowy'
p3995
I1
tp3996
a(g1
g2
S'green jumpsuit'
p3997
I1
tp3998
a(g1
S'Select the type of clothing present in the image ?'
p3999
g3997
I1
tp4000
a(g14
g15
S'canoe competition'
p4001
I1
tp4002
a(g14
g15
S'barb wire'
p4003
I1
tp4004
a(g14
g15
S'number 108'
p4005
I1
tp4006
a(g14
g15
S'browses'
p4007
I1
tp4008
a(g7
S'What is the type of scene present in the image ?'
p4009
S'sunny tropical area'
p4010
I1
tp4011
a(g14
g15
S'white canvas'
p4012
I1
tp4013
a(g7
S'Select the type of scene present in the image ?'
p4014
S'airport'
p4015
I1
tp4016
a(g14
g15
S'sort protest'
p4017
I1
tp4018
a(g20
S'What is the type of people present in the image ?'
p4019
S'many shoppers'
p4020
I1
tp4021
a(g14
g15
S'area trees'
p4022
I1
tp4023
a(g1
g2
S'black leather bag'
p4024
I1
tp4025
a(g1
S'Select the type of clothing present in the image ?'
p4026
g4024
I1
tp4027
a(g20
S'What is the type of people present in the image ?'
p4028
S'group shirtless natives'
p4029
I1
tp4030
a(g14
g15
S'hall'
p4031
I1
tp4032
a(g20
S'Select the type of people present in the image ?'
p4033
S'spider man'
p4034
I1
tp4035
a(g7
S'What is the type of scene present in the image ?'
p4036
S'radio city'
p4037
I1
tp4038
a(g14
g15
S'scaffold holding'
p4039
I1
tp4040
a(g1
g2
S'green racing bib'
p4041
I1
tp4042
a(g1
S'Select the type of clothing present in the image ?'
p4043
g4041
I1
tp4044
a(g1
g2
S'dressy attire'
p4045
I1
tp4046
a(g1
S'What is the type of clothing present in the image ?'
p4047
g4045
I1
tp4048
a(g1
g2
S'beige clothes'
p4049
I1
tp4050
a(g1
S'Select the type of clothing present in the image ?'
p4051
g4049
I1
tp4052
a(g14
g15
S'opening ceremony'
p4053
I1
tp4054
a(g7
S'What is the type of scene present in the image ?'
p4055
g3419
I1
tp4056
a(g14
g15
S'station'
p4057
I1
tp4058
a(g14
g15
S'yellow bow'
p4059
I1
tp4060
a(g14
g15
S'big hooks'
p4061
I1
tp4062
a(g14
g15
S'calmer rapids'
p4063
I1
tp4064
a(g73
S'Select the type of vehicles present in the image ?'
p4065
S'small vehicle'
p4066
I1
tp4067
a(g7
S'What is the type of scene present in the image ?'
p4068
S'stand'
p4069
I1
tp4070
a(g14
g15
S'1 foot'
p4071
I1
tp4072
a(g20
S'Select the type of people present in the image ?'
p4073
g3191
I1
tp4074
a(g14
g15
S'snowy cityscape'
p4075
I1
tp4076
a(g14
g15
S'confrontation'
p4077
I1
tp4078
a(g14
g15
S'small blackboard'
p4079
I1
tp4080
a(g20
S'What is the type of people present in the image ?'
p4081
S'team players'
p4082
I1
tp4083
a(g7
S'Select the type of scene present in the image ?'
p4084
S'small lake'
p4085
I1
tp4086
a(g14
g15
S'mode'
p4087
I1
tp4088
a(g14
g15
S'tracksuit'
p4089
I1
tp4090
a(g14
g15
S'nighttime rally'
p4091
I1
tp4092
a(g7
S'What is the type of scene present in the image ?'
p4093
S'active outdoor area'
p4094
I1
tp4095
a(g7
S'Select the type of scene present in the image ?'
p4096
S'precipice'
p4097
I1
tp4098
a(g14
g15
S'engine'
p4099
I1
tp4100
a(g14
g15
S'toy lawn mower'
p4101
I1
tp4102
a(g14
g15
S'red white barrier'
p4103
I1
tp4104
a(g7
S'What is the type of scene present in the image ?'
p4105
S'major sporting event'
p4106
I1
tp4107
a(g14
g15
S'cake'
p4108
I1
tp4109
a(g14
g15
S'group metal chairs'
p4110
I1
tp4111
a(g14
g15
S'past green foliage'
p4112
I1
tp4113
a(g1
g2
S'old clothes'
p4114
I1
tp4115
a(g1
S'Select the type of clothing present in the image ?'
p4116
g4114
I1
tp4117
a(g20
S'What is the type of people present in the image ?'
p4118
S'grandmother'
p4119
I1
tp4120
a(g14
g15
S'thumbs'
p4121
I1
tp4122
a(g14
g15
S'mars'
p4123
I1
tp4124
a(g7
S'Select the type of scene present in the image ?'
p4125
S'water shore'
p4126
I1
tp4127
a(g14
g15
S'mexican food'
p4128
I1
tp4129
a(g1
g2
S'red oversized coat'
p4130
I1
tp4131
a(g1
S'What is the type of clothing present in the image ?'
p4132
g4130
I1
tp4133
a(g14
g15
S'nontraditional marriage'
p4134
I1
tp4135
a(g7
S'Select the type of scene present in the image ?'
p4136
S'beauty ocean'
p4137
I1
tp4138
a(g14
g15
S'train stop'
p4139
I1
tp4140
a(g1
g2
S'swimsuit'
p4141
I1
tp4142
a(g1
S'What is the type of clothing present in the image ?'
p4143
g4141
I1
tp4144
a(g20
S'Select the type of people present in the image ?'
p4145
g734
I1
tp4146
a(g1
g2
S'hockey uniforms'
p4147
I1
tp4148
a(g1
S'What is the type of clothing present in the image ?'
p4149
g4147
I1
tp4150
a(g14
g15
S'grassy terrace'
p4151
I1
tp4152
a(g20
S'Select the type of people present in the image ?'
p4153
S'twister kind'
p4154
I1
tp4155
a(g20
S'What is the type of people present in the image ?'
p4156
S'female dancer'
p4157
I1
tp4158
a(g14
g15
S'middle blanket'
p4159
I1
tp4160
a(g14
g15
S'pink walls'
p4161
I1
tp4162
a(g7
S'Select the type of scene present in the image ?'
p4163
S'asian convenience store'
p4164
I1
tp4165
a(g20
S'What is the type of people present in the image ?'
p4166
S'beachgoers'
p4167
I1
tp4168
a(g1
g2
S'afro glasses'
p4169
I1
tp4170
a(g1
S'Select the type of clothing present in the image ?'
p4171
g4169
I1
tp4172
a(g14
g15
S'gyro'
p4173
I1
tp4174
a(g20
S'What is the type of people present in the image ?'
p4175
S'hear gentleman'
p4176
I1
tp4177
a(g293
S'Select the type of bodyparts present in the image ?'
p4178
S'raises hand'
p4179
I1
tp4180
a(g14
g15
S'rendition sphinx'
p4181
I1
tp4182
a(g293
S'What is the type of bodyparts present in the image ?'
p4183
S'emt'
p4184
I1
tp4185
a(g73
S'Select the type of vehicles present in the image ?'
p4186
S'transportation carts'
p4187
I1
tp4188
a(g241
S'What is the type of animals present in the image ?'
p4189
S'closeup dog'
p4190
I1
tp4191
a(g14
g15
S'overalls crawls'
p4192
I1
tp4193
a(g7
S'Select the type of scene present in the image ?'
p4194
g857
I1
tp4195
a(g73
S'What is the type of vehicles present in the image ?'
p4196
S'lot bikes'
p4197
I1
tp4198
a(g293
S'Select the type of bodyparts present in the image ?'
p4199
S'lot makeup'
p4200
I1
tp4201
a(g20
S'What is the type of people present in the image ?'
p4202
S'bridesmaids'
p4203
I1
tp4204
a(g7
S'Select the type of scene present in the image ?'
p4205
S'porch'
p4206
I1
tp4207
a(g73
S'What is the type of vehicles present in the image ?'
p4208
S'many bicycles'
p4209
I1
tp4210
a(g1
g2
S'red hat blue white jacket'
p4211
I1
tp4212
a(g1
S'Select the type of clothing present in the image ?'
p4213
g4211
I1
tp4214
a(g20
S'What is the type of people present in the image ?'
p4215
S'bystander'
p4216
I1
tp4217
a(g20
S'Select the type of people present in the image ?'
p4218
S'teams'
p4219
I1
tp4220
a(g1
g2
S'headpiece'
p4221
I1
tp4222
a(g1
S'What is the type of clothing present in the image ?'
p4223
g4221
I1
tp4224
a(g14
g15
S'recyclable trash'
p4225
I1
tp4226
a(g20
S'How many group  girls are there in the image ?'
p4227
S'group 3 girls'
p4228
I0
tp4229
a(g20
S'Select the type of people present in the image ?'
p4230
g4228
I1
tp4231
a(g1
g2
S'blue nike bag'
p4232
I1
tp4233
a(g1
S'What is the type of clothing present in the image ?'
p4234
g4232
I1
tp4235
a(g20
S'Select the type of people present in the image ?'
p4236
S'white girl'
p4237
I1
tp4238
a(g7
S'What is the type of scene present in the image ?'
p4239
S'one rooftop'
p4240
I1
tp4241
a(g14
g15
S'doorway gelateria'
p4242
I1
tp4243
a(g7
S'Select the type of scene present in the image ?'
p4244
S'pianist inside'
p4245
I1
tp4246
a(g7
S'What is the type of scene present in the image ?'
p4247
S'vegetable stand'
p4248
I1
tp4249
a(g14
g15
S'breaths'
p4250
I1
tp4251
a(g1
g2
S'yellow white jersey'
p4252
I1
tp4253
a(g1
S'Select the type of clothing present in the image ?'
p4254
g4252
I1
tp4255
a(g14
g15
S'taekwondo tournament'
p4256
I1
tp4257
a(g1
g2
S'shining golden dress'
p4258
I1
tp4259
a(g1
S'What is the type of clothing present in the image ?'
p4260
g4258
I1
tp4261
a(g7
S'Select the type of scene present in the image ?'
p4262
S'balcony'
p4263
I1
tp4264
a(g7
S'What is the type of scene present in the image ?'
p4265
S'floors temple'
p4266
I1
tp4267
a(g1
g2
S'kimono'
p4268
I1
tp4269
a(g1
S'Select the type of clothing present in the image ?'
p4270
g4268
I1
tp4271
a(g14
g15
S'staff'
p4272
I1
tp4273
a(g14
g15
S'imaginary shotgun'
p4274
I1
tp4275
a(g20
S'What is the type of people present in the image ?'
p4276
S'pastors'
p4277
I1
tp4278
a(g1
g2
S'yellow neon stripes'
p4279
I1
tp4280
a(g1
S'Select the type of clothing present in the image ?'
p4281
g4279
I1
tp4282
a(g14
g15
S'busy transportation station'
p4283
I1
tp4284
a(g1
g2
S'different dresses'
p4285
I1
tp4286
a(g1
S'What is the type of clothing present in the image ?'
p4287
g4285
I1
tp4288
a(g1
g2
S'suspenders'
p4289
I1
tp4290
a(g1
S'Select the type of clothing present in the image ?'
p4291
g4289
I1
tp4292
a(g1
g2
g2593
I1
tp4293
a(g1
S'What is the type of clothing present in the image ?'
p4294
g2593
I1
tp4295
a(g14
g15
S'chance'
p4296
I1
tp4297
a(g14
g15
S'muzzles race'
p4298
I1
tp4299
a(g7
S'Select the type of scene present in the image ?'
p4300
S'spot'
p4301
I1
tp4302
a(g14
g15
S'local show'
p4303
I1
tp4304
a(g611
S'What is the type of instruments present in the image ?'
p4305
S'trumpets'
p4306
I1
tp4307
a(g14
g15
S'blue one'
p4308
I1
tp4309
a(g14
g15
S'chalk art'
p4310
I1
tp4311
a(g20
S'Select the type of people present in the image ?'
p4312
S'white team'
p4313
I1
tp4314
a(g14
g15
S'inflatable'
p4315
I1
tp4316
a(g14
g15
S'skiing sign'
p4317
I1
tp4318
a(g7
S'What is the type of scene present in the image ?'
p4319
S'parking zone'
p4320
I1
tp4321
a(g14
g15
S'alaska'
p4322
I1
tp4323
a(g20
S'How many students are there in the image ?'
p4324
S'seven students'
p4325
I0
tp4326
a(g20
S'Select the type of people present in the image ?'
p4327
g4325
I1
tp4328
a(g241
S'What is the type of animals present in the image ?'
p4329
S'red bull'
p4330
I1
tp4331
a(g14
g15
S'dusty concrete'
p4332
I1
tp4333
a(g14
g15
S'tray bread'
p4334
I1
tp4335
a(g14
g15
S'bench writing'
p4336
I1
tp4337
a(g14
g15
S'traveling companion snaps'
p4338
I1
tp4339
a(g14
g15
S'middle court'
p4340
I1
tp4341
a(g14
g15
g1187
I1
tp4342
a(g1
g2
S'yellow black striped vest'
p4343
I1
tp4344
a(g1
S'Select the type of clothing present in the image ?'
p4345
g4343
I1
tp4346
a(g73
S'What is the type of vehicles present in the image ?'
p4347
S'burning car'
p4348
I1
tp4349
a(g14
g15
S'ice rink'
p4350
I1
tp4351
a(g14
g15
S'many packages something'
p4352
I1
tp4353
a(g14
g15
S'outside eatery'
p4354
I1
tp4355
a(g14
g15
S'museum modern art'
p4356
I1
tp4357
a(g14
g15
S'drive'
p4358
I1
tp4359
a(g14
g15
S'orange one'
p4360
I1
tp4361
a(g1
g2
S'neon jackets'
p4362
I1
tp4363
a(g1
S'Select the type of clothing present in the image ?'
p4364
g4362
I1
tp4365
a(g1
g2
S'flat bill hats'
p4366
I1
tp4367
a(g1
S'What is the type of clothing present in the image ?'
p4368
g4366
I1
tp4369
a(g14
g15
S'pumpkins'
p4370
I1
tp4371
a(g7
S'Select the type of scene present in the image ?'
p4372
S'oriental plaza'
p4373
I1
tp4374
a(g20
S'What is the type of people present in the image ?'
p4375
g2015
I1
tp4376
a(g14
g15
S'high green plants'
p4377
I1
tp4378
a(g14
g15
S'five window'
p4379
I1
tp4380
a(g7
S'Select the type of scene present in the image ?'
p4381
S'corner stone building'
p4382
I1
tp4383
a(g1
g2
S'red berets'
p4384
I1
tp4385
a(g1
S'What is the type of clothing present in the image ?'
p4386
g4384
I1
tp4387
a(g20
S'Select the type of people present in the image ?'
p4388
S'big fan'
p4389
I1
tp4390
a(g20
S'How many passengers are there in the image ?'
p4391
S'two passengers'
p4392
I0
tp4393
a(g20
S'What is the type of people present in the image ?'
p4394
g4392
I1
tp4395
a(g14
g15
S'dirt'
p4396
I1
tp4397
a(g293
S'Select the type of bodyparts present in the image ?'
p4398
S'cheeks'
p4399
I1
tp4400
a(g14
g15
S'candy cafe'
p4401
I1
tp4402
a(g1
g2
S'bandage'
p4403
I1
tp4404
a(g1
S'What is the type of clothing present in the image ?'
p4405
g4403
I1
tp4406
a(g1
g2
S'traditional mexican outfit'
p4407
I1
tp4408
a(g1
S'Select the type of clothing present in the image ?'
p4409
g4407
I1
tp4410
a(g14
g15
S'load'
p4411
I1
tp4412
a(g14
g15
S'skiing gear'
p4413
I1
tp4414
a(g14
g15
S'8 years'
p4415
I1
tp4416
a(g14
g15
S'fields grapevines'
p4417
I1
tp4418
a(g14
g15
S'picture attraction'
p4419
I1
tp4420
a(g73
S'What is the type of vehicles present in the image ?'
p4421
S'yellow vehicle'
p4422
I1
tp4423
a(g7
S'Select the type of scene present in the image ?'
p4424
S'dark gate'
p4425
I1
tp4426
a(g7
S'What is the type of scene present in the image ?'
p4427
S'old vintage home'
p4428
I1
tp4429
a(g7
S'Select the type of scene present in the image ?'
p4430
S'family dollar store'
p4431
I1
tp4432
a(g14
g15
S'left foot'
p4433
I1
tp4434
a(g20
S'What is the type of people present in the image ?'
p4435
S'little girl'
p4436
I1
tp4437
a(g1
g2
S'red scarf'
p4438
I1
tp4439
a(g1
S'Select the type of clothing present in the image ?'
p4440
g4438
I1
tp4441
a(g1
g2
S'black helmet'
p4442
I1
tp4443
a(g1
S'What is the type of clothing present in the image ?'
p4444
g4442
I1
tp4445
a(g1
g2
S'black speedo'
p4446
I1
tp4447
a(g1
S'Select the type of clothing present in the image ?'
p4448
g4446
I1
tp4449
a(g14
g15
S'orange shows'
p4450
I1
tp4451
a(g73
S'What is the type of vehicles present in the image ?'
p4452
S'blue suv'
p4453
I1
tp4454
a(g14
g15
S'yellow biking gear'
p4455
I1
tp4456
a(g7
S'Select the type of scene present in the image ?'
p4457
S'lightly crowded plaza'
p4458
I1
tp4459
a(g7
S'What is the type of scene present in the image ?'
p4460
S'3rd place'
p4461
I1
tp4462
a(g1
g2
S'two motorcycle helmets'
p4463
I1
tp4464
a(g1
S'Select the type of clothing present in the image ?'
p4465
g4463
I1
tp4466
a(g7
S'What is the type of scene present in the image ?'
p4467
S'busy intersection'
p4468
I1
tp4469
a(g14
g15
S'file'
p4470
I1
tp4471
a(g7
S'Select the type of scene present in the image ?'
p4472
S'overhang cliff'
p4473
I1
tp4474
a(g14
g15
S'stir fry'
p4475
I1
tp4476
a(g7
S'What is the type of scene present in the image ?'
p4477
S'business event'
p4478
I1
tp4479
a(g7
S'Select the type of scene present in the image ?'
p4480
S'bike path'
p4481
I1
tp4482
a(g241
S'How many dogs are present in the image ?'
p4483
S'one dogs'
p4484
I0
tp4485
a(g241
S'What is the type of animals present in the image ?'
p4486
g4484
I1
tp4487
a(g1
g2
S'bath suit'
p4488
I1
tp4489
a(g1
S'Select the type of clothing present in the image ?'
p4490
g4488
I1
tp4491
a(g1
g2
S'snorkel mask'
p4492
I1
tp4493
a(g1
S'What is the type of clothing present in the image ?'
p4494
g4492
I1
tp4495
a(g7
S'Select the type of scene present in the image ?'
p4496
S'asian market store'
p4497
I1
tp4498
a(g14
g15
S'camping'
p4499
I1
tp4500
a(g14
g15
S'green rails'
p4501
I1
tp4502
a(g7
S'What is the type of scene present in the image ?'
p4503
S'bad neighborhood'
p4504
I1
tp4505
a(g14
g15
S'grassy incline'
p4506
I1
tp4507
a(g20
S'Select the type of people present in the image ?'
p4508
S'work women'
p4509
I1
tp4510
a(g1
g2
S'backwards baseball cap'
p4511
I1
tp4512
a(g1
S'What is the type of clothing present in the image ?'
p4513
g4511
I1
tp4514
a(g14
g15
S'area destitution'
p4515
I1
tp4516
a(g293
S'Select the type of bodyparts present in the image ?'
p4517
S'woman '
p4518
I1
tp4519
a(g14
g15
S'tight abs'
p4520
I1
tp4521
a(g14
g15
S'little pieces'
p4522
I1
tp4523
a(g7
S'What is the type of scene present in the image ?'
p4524
S'vending stall'
p4525
I1
tp4526
a(g1
g2
S'bright yellow reflective vest'
p4527
I1
tp4528
a(g1
S'Select the type of clothing present in the image ?'
p4529
g4527
I1
tp4530
a(g293
S'What is the type of bodyparts present in the image ?'
p4531
S'right shoulder'
p4532
I1
tp4533
a(g14
g15
S'three bucks'
p4534
I1
tp4535
a(g14
g15
S'yellow hose'
p4536
I1
tp4537
a(g7
S'Select the type of scene present in the image ?'
p4538
S'end'
p4539
I1
tp4540
a(g14
g15
S'race goal'
p4541
I1
tp4542
a(g14
g15
S'blue ball rolls'
p4543
I1
tp4544
a(g7
S'What is the type of scene present in the image ?'
p4545
g3132
I1
tp4546
a(g7
S'Select the type of scene present in the image ?'
p4547
S'piles rubble'
p4548
I1
tp4549
a(g7
S'What is the type of scene present in the image ?'
p4550
S'souvenir shop'
p4551
I1
tp4552
a(g14
g15
S'great sportsmanship'
p4553
I1
tp4554
a(g14
g15
S'pink racket'
p4555
I1
tp4556
a(g14
g15
S'yellow '
p4557
I1
tp4558
a(g14
g15
S'many balloons'
p4559
I1
tp4560
a(g1
g2
g4442
I1
tp4561
a(g1
S'Select the type of clothing present in the image ?'
p4562
g4442
I1
tp4563
a(g1
g2
S'black lace costumes'
p4564
I1
tp4565
a(g1
S'What is the type of clothing present in the image ?'
p4566
g4564
I1
tp4567
a(g14
g15
S'photo opportunity'
p4568
I1
tp4569
a(g73
S'How many wheeled vehicle are present in the image ?'
p4570
S'four wheeled vehicle'
p4571
I0
tp4572
a(g73
S'Select the type of vehicles present in the image ?'
p4573
g4571
I1
tp4574
a(g14
g15
S'bike stunt'
p4575
I1
tp4576
a(g14
g15
S'grandmother mix'
p4577
I1
tp4578
a(g14
g15
S'bike bath'
p4579
I1
tp4580
a(g7
S'What is the type of scene present in the image ?'
p4581
S'small building'
p4582
I1
tp4583
a(g1
g2
S'green white costume'
p4584
I1
tp4585
a(g1
S'Select the type of clothing present in the image ?'
p4586
g4584
I1
tp4587
a(g14
g15
S'mid cheer'
p4588
I1
tp4589
a(g20
S'What is the type of people present in the image ?'
p4590
S'bmx biker'
p4591
I1
tp4592
a(g14
g15
S'aerial stunt'
p4593
I1
tp4594
a(g14
g15
S'tables'
p4595
I1
tp4596
a(g20
S'Select the type of people present in the image ?'
p4597
S'many jewish men'
p4598
I1
tp4599
a(g14
g15
S'concert one bands songs'
p4600
I1
tp4601
a(g14
g15
g2257
I1
tp4602
a(g7
S'What is the type of scene present in the image ?'
p4603
S'top bush'
p4604
I1
tp4605
a(g20
S'How many fireman are there in the image ?'
p4606
S'two fireman'
p4607
I0
tp4608
a(g20
S'Select the type of people present in the image ?'
p4609
g4607
I1
tp4610
a(g14
g15
S'pleats'
p4611
I1
tp4612
a(g1
g2
S'american military uniforms'
p4613
I1
tp4614
a(g1
S'What is the type of clothing present in the image ?'
p4615
g4613
I1
tp4616
a(g14
g15
S'glare'
p4617
I1
tp4618
a(g14
g15
S'architectural restoration'
p4619
I1
tp4620
a(g20
S'How many bridesmaids are there in the image ?'
p4621
S'two bridesmaids'
p4622
I0
tp4623
a(g20
S'Select the type of people present in the image ?'
p4624
g4622
I1
tp4625
a(g20
S'How many asian people are there in the image ?'
p4626
S'four asian people'
p4627
I0
tp4628
a(g20
S'What is the type of people present in the image ?'
p4629
g4627
I1
tp4630
a(g14
g15
S'somewhat melancholic expression'
p4631
I1
tp4632
a(g14
g15
S'companies'
p4633
I1
tp4634
a(g611
S'Select the type of instruments present in the image ?'
p4635
S'white guitar'
p4636
I1
tp4637
a(g14
g15
S'black shots'
p4638
I1
tp4639
a(g7
S'What is the type of scene present in the image ?'
p4640
S'still lake'
p4641
I1
tp4642
a(g14
g15
S'banner foreign writing'
p4643
I1
tp4644
a(g14
g15
S'talent show'
p4645
I1
tp4646
a(g14
g15
S'breeze'
p4647
I1
tp4648
a(g20
S'How many casually dressed men are there in the image ?'
p4649
S'three casually dressed men'
p4650
I0
tp4651
a(g20
S'Select the type of people present in the image ?'
p4652
g4650
I1
tp4653
a(g14
g15
S'arsenal fc'
p4654
I1
tp4655
a(g14
g15
S'love motorcycles'
p4656
I1
tp4657
a(g1
g2
S'blue bathing suit'
p4658
I1
tp4659
a(g1
S'What is the type of clothing present in the image ?'
p4660
g4658
I1
tp4661
a(g14
g15
S'soda'
p4662
I1
tp4663
a(g20
S'Select the type of people present in the image ?'
p4664
S'person'
p4665
I1
tp4666
a(g14
g15
S'tiny plant'
p4667
I1
tp4668
a(g7
S'What is the type of scene present in the image ?'
p4669
S'serene area'
p4670
I1
tp4671
a(g7
S'Select the type of scene present in the image ?'
p4672
S'darkened venue'
p4673
I1
tp4674
a(g1
g2
S'orange cap'
p4675
I1
tp4676
a(g1
S'What is the type of clothing present in the image ?'
p4677
g4675
I1
tp4678
a(g7
S'Select the type of scene present in the image ?'
p4679
S'cluttered office'
p4680
I1
tp4681
a(g7
S'What is the type of scene present in the image ?'
p4682
S'crowded place'
p4683
I1
tp4684
a(g20
S'Select the type of people present in the image ?'
p4685
g2070
I1
tp4686
a(g20
S'What is the type of people present in the image ?'
p4687
S'ballplayer'
p4688
I1
tp4689
a(g14
g15
S'blue shows'
p4690
I1
tp4691
a(g20
S'Select the type of people present in the image ?'
p4692
S'little girl ballet dancer'
p4693
I1
tp4694
a(g7
S'What is the type of scene present in the image ?'
p4695
S'white patio'
p4696
I1
tp4697
a(g1
g2
S'leather boots'
p4698
I1
tp4699
a(g1
S'Select the type of clothing present in the image ?'
p4700
g4698
I1
tp4701
a(g14
g15
S'four canoes'
p4702
I1
tp4703
a(g7
S'What is the type of scene present in the image ?'
p4704
S'wooded park area'
p4705
I1
tp4706
a(g14
g15
S'empty coke bottles'
p4707
I1
tp4708
a(g1
g2
S'dark blue'
p4709
I1
tp4710
a(g1
S'Select the type of clothing present in the image ?'
p4711
g4709
I1
tp4712
a(g1
g2
S'brown skirt'
p4713
I1
tp4714
a(g1
S'What is the type of clothing present in the image ?'
p4715
g4713
I1
tp4716
a(g20
S'Select the type of people present in the image ?'
p4717
S'mothers'
p4718
I1
tp4719
a(g14
g15
S'establishment named '
p4720
I1
tp4721
a(g7
S'What is the type of scene present in the image ?'
p4722
S'soprano saxophone outside'
p4723
I1
tp4724
a(g14
g15
S'lynyrd skynyrd'
p4725
I1
tp4726
a(g1
g2
S'tee'
p4727
I1
tp4728
a(g1
S'Select the type of clothing present in the image ?'
p4729
g4727
I1
tp4730
a(g14
g15
S'sticks'
p4731
I1
tp4732
a(g14
g15
S'food party'
p4733
I1
tp4734
a(g1
g2
S'ninja costumes'
p4735
I1
tp4736
a(g1
S'What is the type of clothing present in the image ?'
p4737
g4735
I1
tp4738
a(g14
g15
g490
I1
tp4739
a(g14
g15
S'wires'
p4740
I1
tp4741
a(g20
S'Select the type of people present in the image ?'
p4742
S'street scene elegant dressed people'
p4743
I1
tp4744
a(g14
g15
S'dynamic pose'
p4745
I1
tp4746
a(g14
g15
S'levers'
p4747
I1
tp4748
a(g293
S'What is the type of bodyparts present in the image ?'
p4749
S'snub nose'
p4750
I1
tp4751
a(g1
g2
S'pants shirt'
p4752
I1
tp4753
a(g1
S'Select the type of clothing present in the image ?'
p4754
g4752
I1
tp4755
a(g14
g15
S'flowered sofa'
p4756
I1
tp4757
a(g14
g15
S'trash container'
p4758
I1
tp4759
a(g14
g15
S'snowstorm'
p4760
I1
tp4761
a(g14
g15
S'lot mussels'
p4762
I1
tp4763
a(g14
g15
S'hovers'
p4764
I1
tp4765
a(g14
g15
S'cloth'
p4766
I1
tp4767
a(g14
g15
S'yellow cones'
p4768
I1
tp4769
a(g7
S'What is the type of scene present in the image ?'
p4770
S'large river'
p4771
I1
tp4772
a(g241
S'Select the type of animals present in the image ?'
p4773
S'snake'
p4774
I1
tp4775
a(g14
g15
S'pay phones'
p4776
I1
tp4777
a(g1
g2
S'orange bikini'
p4778
I1
tp4779
a(g1
S'What is the type of clothing present in the image ?'
p4780
g4778
I1
tp4781
a(g14
g15
S'white polka'
p4782
I1
tp4783
a(g14
g15
S'plaster wall'
p4784
I1
tp4785
a(g14
g15
S'team '
p4786
I1
tp4787
a(g20
S'Select the type of people present in the image ?'
p4788
S'group village women'
p4789
I1
tp4790
a(g14
g15
S'iron board'
p4791
I1
tp4792
a(g20
S'What is the type of people present in the image ?'
p4793
S'military group'
p4794
I1
tp4795
a(g14
g15
S'camera lens'
p4796
I1
tp4797
a(g14
g15
S'smiling gloriously'
p4798
I1
tp4799
a(g14
g15
S'large bench'
p4800
I1
tp4801
a(g14
g15
S'busy cafe'
p4802
I1
tp4803
a(g14
g15
S'paul'
p4804
I1
tp4805
a(g14
g15
S'four green strobe lights'
p4806
I1
tp4807
a(g14
g15
S'cellphone'
p4808
I1
tp4809
a(g20
S'Select the type of people present in the image ?'
p4810
S'crowd cheerleaders'
p4811
I1
tp4812
a(g14
g15
S'shovel'
p4813
I1
tp4814
a(g14
g15
S'field nothing'
p4815
I1
tp4816
a(g611
S'What is the type of instruments present in the image ?'
p4817
S'music instruments'
p4818
I1
tp4819
a(g14
g15
S'toilet'
p4820
I1
tp4821
a(g1
g2
S'bouncy harness'
p4822
I1
tp4823
a(g1
S'Select the type of clothing present in the image ?'
p4824
g4822
I1
tp4825
a(g14
g15
S'4'
p4826
I1
tp4827
a(g7
S'What is the type of scene present in the image ?'
p4828
S'restaurant bar'
p4829
I1
tp4830
a(g20
S'Select the type of people present in the image ?'
p4831
S'scotsman'
p4832
I1
tp4833
a(g14
g15
S'large light fixture'
p4834
I1
tp4835
a(g14
g15
S'edge course'
p4836
I1
tp4837
a(g20
S'What is the type of people present in the image ?'
p4838
S'naked people'
p4839
I1
tp4840
a(g14
g15
S'aluminum foil'
p4841
I1
tp4842
a(g14
g15
S'basket flowers'
p4843
I1
tp4844
a(g7
S'Select the type of scene present in the image ?'
p4845
S'otherwise empty sidewalk street'
p4846
I1
tp4847
a(g14
g15
S'soleil'
p4848
I1
tp4849
a(g293
S'What is the type of bodyparts present in the image ?'
p4850
S'bubble beard'
p4851
I1
tp4852
a(g14
g15
S'type martial arts'
p4853
I1
tp4854
a(g1
g2
S'black'
p4855
I1
tp4856
a(g1
S'Select the type of clothing present in the image ?'
p4857
g4855
I1
tp4858
a(g14
g15
S'glass structure'
p4859
I1
tp4860
a(g7
S'What is the type of scene present in the image ?'
p4861
S'ocean pier'
p4862
I1
tp4863
a(g20
S'Select the type of people present in the image ?'
p4864
S'percussionist'
p4865
I1
tp4866
a(g14
g15
S'beautiful clouds'
p4867
I1
tp4868
a(g1
g2
S'bikinis'
p4869
I1
tp4870
a(g1
S'What is the type of clothing present in the image ?'
p4871
g4869
I1
tp4872
a(g14
g15
S'kenya'
p4873
I1
tp4874
a(g1
g2
S'tan long skirt'
p4875
I1
tp4876
a(g1
S'Select the type of clothing present in the image ?'
p4877
g4875
I1
tp4878
a(g1
g2
S'white cowboy boots'
p4879
I1
tp4880
a(g1
S'What is the type of clothing present in the image ?'
p4881
g4879
I1
tp4882
a(g14
g15
S'time'
p4883
I1
tp4884
a(g14
g15
S'vacation'
p4885
I1
tp4886
a(g241
S'How many #  horse are present in the image ?'
p4887
S'# 4 horse'
p4888
I0
tp4889
a(g241
S'Select the type of animals present in the image ?'
p4890
g4888
I1
tp4891
a(g73
S'What is the type of vehicles present in the image ?'
p4892
S'red bicycle'
p4893
I1
tp4894
a(g14
g15
S'offset square tables'
p4895
I1
tp4896
a(g14
g15
S'rest'
p4897
I1
tp4898
a(g7
S'Select the type of scene present in the image ?'
p4899
S'tranquil dirt path'
p4900
I1
tp4901
a(g14
g15
S'blue notebook'
p4902
I1
tp4903
a(g1
g2
S'gray plaid shirt'
p4904
I1
tp4905
a(g1
S'What is the type of clothing present in the image ?'
p4906
g4904
I1
tp4907
a(g14
g15
S'garden tools'
p4908
I1
tp4909
a(g7
S'Select the type of scene present in the image ?'
p4910
S'sitting outdoors'
p4911
I1
tp4912
a(g20
S'What is the type of people present in the image ?'
p4913
S'man'
p4914
I1
tp4915
a(g20
S'Select the type of people present in the image ?'
p4916
S'martial artists'
p4917
I1
tp4918
a(g7
S'What is the type of scene present in the image ?'
p4919
g431
I1
tp4920
a(g14
g15
S'white tablecloth'
p4921
I1
tp4922
a(g14
g15
S'red black biking gear'
p4923
I1
tp4924
a(g14
g15
S'car wash'
p4925
I1
tp4926
a(g14
g15
S'large billboard'
p4927
I1
tp4928
a(g14
g15
S'baskets produce'
p4929
I1
tp4930
a(g7
S'Select the type of scene present in the image ?'
p4931
S'waves'
p4932
I1
tp4933
a(g7
S'What is the type of scene present in the image ?'
p4934
S'bottom river'
p4935
I1
tp4936
a(g14
g15
S'outside equipment'
p4937
I1
tp4938
a(g14
g15
S'middle set'
p4939
I1
tp4940
a(g14
g15
S'toy'
p4941
I1
tp4942
a(g7
S'Select the type of scene present in the image ?'
p4943
S'sidewalks brightly lit city'
p4944
I1
tp4945
a(g7
S'What is the type of scene present in the image ?'
p4946
S'event'
p4947
I1
tp4948
a(g14
g15
S'window cafe'
p4949
I1
tp4950
a(g14
g15
S'four others'
p4951
I1
tp4952
a(g14
g15
S'dances'
p4953
I1
tp4954
a(g20
S'Select the type of people present in the image ?'
p4955
S'bald woman'
p4956
I1
tp4957
a(g7
S'What is the type of scene present in the image ?'
p4958
S'field athletic event'
p4959
I1
tp4960
a(g14
g15
S'christmas stockings'
p4961
I1
tp4962
a(g611
S'Select the type of instruments present in the image ?'
p4963
S'drums'
p4964
I1
tp4965
a(g7
S'What is the type of scene present in the image ?'
p4966
S'sunlight streams'
p4967
I1
tp4968
a(g14
g15
S'board'
p4969
I1
tp4970
a(g20
S'Select the type of people present in the image ?'
p4971
S'athletic male'
p4972
I1
tp4973
a(g1
g2
S'small white shirt'
p4974
I1
tp4975
a(g1
S'What is the type of clothing present in the image ?'
p4976
g4974
I1
tp4977
a(g1
g2
S'blue red sweater'
p4978
I1
tp4979
a(g1
S'Select the type of clothing present in the image ?'
p4980
g4978
I1
tp4981
a(g14
g15
S'black brick wall'
p4982
I1
tp4983
a(g14
g15
S'sentiments'
p4984
I1
tp4985
a(g241
S'What is the type of animals present in the image ?'
p4986
S'little dog'
p4987
I1
tp4988
a(g7
S'Select the type of scene present in the image ?'
p4989
S'big building'
p4990
I1
tp4991
a(g293
S'What is the type of bodyparts present in the image ?'
p4992
S'one leg'
p4993
I1
tp4994
a(g73
S'Select the type of vehicles present in the image ?'
p4995
S'window big yellow truck'
p4996
I1
tp4997
a(g20
S'What is the type of people present in the image ?'
p4998
S'adult'
p4999
I1
tp5000
a(g14
g15
S'red tassel'
p5001
I1
tp5002
a(g14
g15
S'heavily damaged anterior'
p5003
I1
tp5004
a(g14
g15
S'side glass'
p5005
I1
tp5006
a(g7
S'Select the type of scene present in the image ?'
p5007
S'bay'
p5008
I1
tp5009
a(g7
S'What is the type of scene present in the image ?'
p5010
S'recording studio'
p5011
I1
tp5012
a(g7
S'Select the type of scene present in the image ?'
p5013
S'fair style atmosphere'
p5014
I1
tp5015
a(g14
g15
S'guitar case'
p5016
I1
tp5017
a(g7
S'What is the type of scene present in the image ?'
p5018
S'brown grass'
p5019
I1
tp5020
a(g1
g2
S'brown camouflage pants'
p5021
I1
tp5022
a(g1
S'Select the type of clothing present in the image ?'
p5023
g5021
I1
tp5024
a(g14
g15
S'shade'
p5025
I1
tp5026
a(g241
S'What is the type of animals present in the image ?'
p5027
g1615
I1
tp5028
a(g241
S'Select the type of animals present in the image ?'
p5029
S'white dog'
p5030
I1
tp5031
a(g1
g2
S'blue striped jacket'
p5032
I1
tp5033
a(g1
S'What is the type of clothing present in the image ?'
p5034
g5032
I1
tp5035
a(g14
g15
S'blue surfboard'
p5036
I1
tp5037
a(g20
S'Select the type of people present in the image ?'
p5038
S'xylophonists'
p5039
I1
tp5040
a(g293
S'What is the type of bodyparts present in the image ?'
p5041
S'evil eye'
p5042
I1
tp5043
a(g7
S'Select the type of scene present in the image ?'
p5044
S'foot hill'
p5045
I1
tp5046
a(g241
S'What is the type of animals present in the image ?'
p5047
S'gray dog'
p5048
I1
tp5049
a(g14
g15
S'ducts'
p5050
I1
tp5051
a(g1
g2
S'white karate shirts'
p5052
I1
tp5053
a(g1
S'Select the type of clothing present in the image ?'
p5054
g5052
I1
tp5055
a(g7
S'What is the type of scene present in the image ?'
p5056
S'edge ocean'
p5057
I1
tp5058
a(g7
S'Select the type of scene present in the image ?'
p5059
S'shore pool'
p5060
I1
tp5061
a(g14
g15
S'excess materials'
p5062
I1
tp5063
a(g293
S'What is the type of bodyparts present in the image ?'
p5064
S'others shoulders'
p5065
I1
tp5066
a(g7
S'Select the type of scene present in the image ?'
p5067
S'vacant area'
p5068
I1
tp5069
a(g293
S'What is the type of bodyparts present in the image ?'
p5070
S'heads'
p5071
I1
tp5072
a(g14
g15
S'video'
p5073
I1
tp5074
a(g7
S'Select the type of scene present in the image ?'
p5075
S'union market'
p5076
I1
tp5077
a(g241
S'What is the type of animals present in the image ?'
p5078
S'several cows'
p5079
I1
tp5080
a(g1
g2
S'white embroidered shirt'
p5081
I1
tp5082
a(g1
S'Select the type of clothing present in the image ?'
p5083
g5081
I1
tp5084
a(g20
S'What is the type of people present in the image ?'
p5085
S'yellow boy'
p5086
I1
tp5087
a(g1
g2
g4709
I1
tp5088
a(g1
S'Select the type of clothing present in the image ?'
p5089
g4709
I1
tp5090
a(g7
S'What is the type of scene present in the image ?'
p5091
S'london 2012 olympics'
p5092
I1
tp5093
a(g7
S'Select the type of scene present in the image ?'
p5094
S'green valley'
p5095
I1
tp5096
a(g14
g15
S'either chinese japanese symbols'
p5097
I1
tp5098
a(g7
S'What is the type of scene present in the image ?'
p5099
S'cast green forest'
p5100
I1
tp5101
a(g7
S'Select the type of scene present in the image ?'
p5102
S'middle wet road'
p5103
I1
tp5104
a(g14
g15
S'advocacy walk'
p5105
I1
tp5106
a(g20
S'What is the type of people present in the image ?'
p5107
S'dentist'
p5108
I1
tp5109
a(g7
S'Select the type of scene present in the image ?'
p5110
S'window ticket booth'
p5111
I1
tp5112
a(g14
g15
S'performance modern dance'
p5113
I1
tp5114
a(g1
g2
S'work uniform'
p5115
I1
tp5116
a(g1
S'What is the type of clothing present in the image ?'
p5117
g5115
I1
tp5118
a(g293
S'Select the type of bodyparts present in the image ?'
p5119
S'big blue eyes'
p5120
I1
tp5121
a(g1
g2
S'numbered outfits'
p5122
I1
tp5123
a(g1
S'What is the type of clothing present in the image ?'
p5124
g5122
I1
tp5125
a(g20
S'Select the type of people present in the image ?'
p5126
S'master'
p5127
I1
tp5128
a(g7
S'What is the type of scene present in the image ?'
p5129
S'rocky mountainside'
p5130
I1
tp5131
a(g14
g15
S'section massive log'
p5132
I1
tp5133
a(g14
g15
S'water bottles'
p5134
I1
tp5135
a(g14
g15
S'day baseball game'
p5136
I1
tp5137
a(g14
g15
S'hay'
p5138
I1
tp5139
a(g1
g2
g890
I1
tp5140
a(g1
S'Select the type of clothing present in the image ?'
p5141
g890
I1
tp5142
a(g14
g15
S'different language'
p5143
I1
tp5144
a(g20
S'How many cheeks  men are there in the image ?'
p5145
S'cheeks two men'
p5146
I0
tp5147
a(g20
S'What is the type of people present in the image ?'
p5148
g5146
I1
tp5149
a(g7
S'Select the type of scene present in the image ?'
p5150
S'pier'
p5151
I1
tp5152
a(g7
S'What is the type of scene present in the image ?'
p5153
S'hotdog stand'
p5154
I1
tp5155
a(g14
g15
S'wedding function'
p5156
I1
tp5157
a(g7
S'Select the type of scene present in the image ?'
p5158
S'start gate'
p5159
I1
tp5160
a(g14
g15
g71
I1
tp5161
a(g14
g15
S'chairs'
p5162
I1
tp5163
a(g7
S'What is the type of scene present in the image ?'
p5164
S'men asian descent'
p5165
I1
tp5166
a(g20
S'Select the type of people present in the image ?'
p5167
S'young kids'
p5168
I1
tp5169
a(g14
g15
S'wind'
p5170
I1
tp5171
a(g14
g15
S'electrical experiment project'
p5172
I1
tp5173
a(g7
S'What is the type of scene present in the image ?'
p5174
S'violin outside'
p5175
I1
tp5176
a(g7
S'Select the type of scene present in the image ?'
p5177
S'martial arts outdoors'
p5178
I1
tp5179
a(g20
S'How many younger kids are there in the image ?'
p5180
S'two younger kids'
p5181
I0
tp5182
a(g20
S'What is the type of people present in the image ?'
p5183
g5181
I1
tp5184
a(g1
g2
S'para'
p5185
I1
tp5186
a(g1
S'Select the type of clothing present in the image ?'
p5187
g5185
I1
tp5188
a(g7
S'What is the type of scene present in the image ?'
p5189
S'contents sack'
p5190
I1
tp5191
a(g7
S'Select the type of scene present in the image ?'
p5192
S'bright sunny day'
p5193
I1
tp5194
a(g1
g2
S'green'
p5195
I1
tp5196
a(g1
S'What is the type of clothing present in the image ?'
p5197
g5195
I1
tp5198
a(g293
S'Select the type of bodyparts present in the image ?'
p5199
S'left hand'
p5200
I1
tp5201
a(g1
g2
S'light blue jersey'
p5202
I1
tp5203
a(g1
S'What is the type of clothing present in the image ?'
p5204
g5202
I1
tp5205
a(g1
g2
S'white'
p5206
I1
tp5207
a(g1
S'Select the type of clothing present in the image ?'
p5208
g5206
I1
tp5209
a(g14
g15
S'bright yellow vest displays bicycle safety information'
p5210
I1
tp5211
a(g14
g15
g783
I1
tp5212
a(g14
g15
S'crisp'
p5213
I1
tp5214
a(g1
g2
S'athletic clothing'
p5215
I1
tp5216
a(g1
S'What is the type of clothing present in the image ?'
p5217
g5215
I1
tp5218
a(g1
g2
S'red white striped top'
p5219
I1
tp5220
a(g1
S'Select the type of clothing present in the image ?'
p5221
g5219
I1
tp5222
a(g1
g2
S'blue sweaters'
p5223
I1
tp5224
a(g1
S'What is the type of clothing present in the image ?'
p5225
g5223
I1
tp5226
a(g1
g2
S'dark raincoats'
p5227
I1
tp5228
a(g1
S'Select the type of clothing present in the image ?'
p5229
g5227
I1
tp5230
a(g14
g15
S'hdr photograph'
p5231
I1
tp5232
a(g14
g15
S'black swings'
p5233
I1
tp5234
a(g14
g15
S'research'
p5235
I1
tp5236
a(g1
g2
S'red sleep mask'
p5237
I1
tp5238
a(g1
S'What is the type of clothing present in the image ?'
p5239
g5237
I1
tp5240
a(g20
S'Select the type of people present in the image ?'
p5241
S'black people'
p5242
I1
tp5243
a(g7
S'What is the type of scene present in the image ?'
p5244
g1190
I1
tp5245
a(g20
S'How many man are there in the image ?'
p5246
S'three man'
p5247
I0
tp5248
a(g20
S'Select the type of people present in the image ?'
p5249
g5247
I1
tp5250
a(g1
g2
S'chef uniform'
p5251
I1
tp5252
a(g1
S'What is the type of clothing present in the image ?'
p5253
g5251
I1
tp5254
a(g14
g15
S'old court'
p5255
I1
tp5256
a(g1
g2
S'green golden yellow baseball cap'
p5257
I1
tp5258
a(g1
S'Select the type of clothing present in the image ?'
p5259
g5257
I1
tp5260
a(g14
g15
S'brick structure'
p5261
I1
tp5262
a(g293
S'What is the type of bodyparts present in the image ?'
p5263
S'teeth'
p5264
I1
tp5265
a(g20
S'Select the type of people present in the image ?'
p5266
S'western hobo clown'
p5267
I1
tp5268
a(g20
S'What is the type of people present in the image ?'
p5269
S'irish band'
p5270
I1
tp5271
a(g73
S'Select the type of vehicles present in the image ?'
p5272
S'large group parked bicycles'
p5273
I1
tp5274
a(g14
g15
S'germany'
p5275
I1
tp5276
a(g14
g15
S'blue bed'
p5277
I1
tp5278
a(g14
g15
S'thing'
p5279
I1
tp5280
a(g20
S'What is the type of people present in the image ?'
p5281
S'cameramen'
p5282
I1
tp5283
a(g14
g15
S'product'
p5284
I1
tp5285
a(g14
g15
S'serious look'
p5286
I1
tp5287
a(g14
g15
g788
I1
tp5288
a(g14
g15
S'large weight'
p5289
I1
tp5290
a(g7
S'Select the type of scene present in the image ?'
p5291
S'two large buildings'
p5292
I1
tp5293
a(g20
S'How many child are there in the image ?'
p5294
S'one child'
p5295
I0
tp5296
a(g20
S'What is the type of people present in the image ?'
p5297
g5295
I1
tp5298
a(g241
S'Select the type of animals present in the image ?'
p5299
S'large gray white water bird'
p5300
I1
tp5301
a(g73
S'What is the type of vehicles present in the image ?'
p5302
S'heavy traffic'
p5303
I1
tp5304
a(g14
g15
S'artwork'
p5305
I1
tp5306
a(g14
g15
S'red design'
p5307
I1
tp5308
a(g73
S'Select the type of vehicles present in the image ?'
p5309
S'back trailer'
p5310
I1
tp5311
a(g14
g15
S'pens'
p5312
I1
tp5313
a(g14
g15
S'smocks'
p5314
I1
tp5315
a(g1
g2
S'pilot uniform'
p5316
I1
tp5317
a(g1
S'What is the type of clothing present in the image ?'
p5318
g5316
I1
tp5319
a(g20
S'Select the type of people present in the image ?'
p5320
g4665
I1
tp5321
a(g20
S'What is the type of people present in the image ?'
p5322
S'symphony orchestra'
p5323
I1
tp5324
a(g7
S'Select the type of scene present in the image ?'
p5325
S'walking path'
p5326
I1
tp5327
a(g14
g15
S'outdoor game basketball'
p5328
I1
tp5329
a(g241
S'How many pigs are present in the image ?'
p5330
S'20 pigs'
p5331
I0
tp5332
a(g241
S'What is the type of animals present in the image ?'
p5333
g5331
I1
tp5334
a(g7
S'Select the type of scene present in the image ?'
p5335
S'specific destination'
p5336
I1
tp5337
a(g14
g15
S'crystal lamp'
p5338
I1
tp5339
a(g14
g15
S'blue plastic crates'
p5340
I1
tp5341
a(g7
S'What is the type of scene present in the image ?'
p5342
S'top bar'
p5343
I1
tp5344
a(g7
S'Select the type of scene present in the image ?'
p5345
S'big new years event'
p5346
I1
tp5347
a(g7
S'What is the type of scene present in the image ?'
p5348
S'jenga tower'
p5349
I1
tp5350
a(g14
g15
S'antique jars'
p5351
I1
tp5352
a(g611
S'Select the type of instruments present in the image ?'
p5353
S'electric piano'
p5354
I1
tp5355
a(g20
S'What is the type of people present in the image ?'
p5356
S'gathering people'
p5357
I1
tp5358
a(g14
g15
S'grocery store aisle'
p5359
I1
tp5360
a(g14
g15
S'40ts'
p5361
I1
tp5362
a(g1
g2
S'dorothy costume'
p5363
I1
tp5364
a(g1
S'Select the type of clothing present in the image ?'
p5365
g5363
I1
tp5366
a(g14
g15
S'shoulder racetrack'
p5367
I1
tp5368
a(g14
g15
S'crosses'
p5369
I1
tp5370
a(g20
S'What is the type of people present in the image ?'
p5371
S'young men'
p5372
I1
tp5373
a(g20
S'How many swimmers are there in the image ?'
p5374
S'two swimmers'
p5375
I0
tp5376
a(g20
S'Select the type of people present in the image ?'
p5377
g5375
I1
tp5378
a(g14
g15
S'red rail'
p5379
I1
tp5380
a(g7
S'What is the type of scene present in the image ?'
p5381
S'edge quiet street'
p5382
I1
tp5383
a(g14
g15
S'public wall'
p5384
I1
tp5385
a(g14
g15
S'three pins'
p5386
I1
tp5387
a(g20
S'Select the type of people present in the image ?'
p5388
S'statue grim bicycle riders'
p5389
I1
tp5390
a(g1
g2
S'dark colored jacket'
p5391
I1
tp5392
a(g1
S'What is the type of clothing present in the image ?'
p5393
g5391
I1
tp5394
a(g14
g15
S'lot wineglasses'
p5395
I1
tp5396
a(g14
g15
g1000
I1
tp5397
a(g7
S'Select the type of scene present in the image ?'
p5398
S'inside tent'
p5399
I1
tp5400
a(g7
S'What is the type of scene present in the image ?'
p5401
g1471
I1
tp5402
a(g14
g15
S'peace gesture'
p5403
I1
tp5404
a(g14
g15
S'beach volleyball'
p5405
I1
tp5406
a(g241
S'Select the type of animals present in the image ?'
p5407
g1615
I1
tp5408
a(g1
g2
S'camouflage tank top'
p5409
I1
tp5410
a(g1
S'What is the type of clothing present in the image ?'
p5411
g5409
I1
tp5412
a(g14
g15
S'sports'
p5413
I1
tp5414
a(g20
S'Select the type of people present in the image ?'
p5415
S'group young men'
p5416
I1
tp5417
a(g20
S'What is the type of people present in the image ?'
p5418
S'japanese chefs'
p5419
I1
tp5420
a(g14
g15
S'reception sorts'
p5421
I1
tp5422
a(g14
g15
S'red white checkered table mat'
p5423
I1
tp5424
a(g1
g2
S'white purple'
p5425
I1
tp5426
a(g1
S'Select the type of clothing present in the image ?'
p5427
g5425
I1
tp5428
a(g14
g15
S'night dusk'
p5429
I1
tp5430
a(g20
S'How many boys are there in the image ?'
p5431
S'two boys'
p5432
I0
tp5433
a(g20
S'What is the type of people present in the image ?'
p5434
g5432
I1
tp5435
a(g14
g15
S'busy checkout'
p5436
I1
tp5437
a(g14
g15
S'chute'
p5438
I1
tp5439
a(g1
g2
S'ballerina attire'
p5440
I1
tp5441
a(g1
S'Select the type of clothing present in the image ?'
p5442
g5440
I1
tp5443
a(g14
g15
S'printer'
p5444
I1
tp5445
a(g20
S'How many group  men are there in the image ?'
p5446
S'group five men'
p5447
I0
tp5448
a(g20
S'What is the type of people present in the image ?'
p5449
g5447
I1
tp5450
a(g7
S'Select the type of scene present in the image ?'
p5451
S'edge icy body water'
p5452
I1
tp5453
a(g1
g2
S'striped dress'
p5454
I1
tp5455
a(g1
S'What is the type of clothing present in the image ?'
p5456
g5454
I1
tp5457
a(g14
g15
S'wired cage'
p5458
I1
tp5459
a(g7
S'Select the type of scene present in the image ?'
p5460
S'inlet'
p5461
I1
tp5462
a(g14
g15
S'budweiser flag'
p5463
I1
tp5464
a(g7
S'What is the type of scene present in the image ?'
p5465
S'barber shop'
p5466
I1
tp5467
a(g7
S'Select the type of scene present in the image ?'
p5468
S'clear blue sky'
p5469
I1
tp5470
a(g14
g15
S'makeup brush'
p5471
I1
tp5472
a(g14
g15
S'scary looking face graffiti'
p5473
I1
tp5474
a(g1
g2
S'gray winter coat'
p5475
I1
tp5476
a(g1
S'What is the type of clothing present in the image ?'
p5477
g5475
I1
tp5478
a(g20
S'Select the type of people present in the image ?'
p5479
S'asian guy'
p5480
I1
tp5481
a(g14
g15
S'adjustment'
p5482
I1
tp5483
a.