(dp0
I0
S'affair'
p1
sI1
S'What'
p2
sI2
S'outdoor'
p3
sI3
S'gully'
p4
sI4
S'phenomenon'
p5
sI5
S'show'
p6
sI6
S'from'
p7
sI7
S'artwork'
p8
sI8
S'atmosphere'
p9
sI9
S'course'
p10
sI10
S'angiosperm'
p11
sI11
S'keyboard'
p12
sI12
S'dish'
p13
sI13
S'woody'
p14
sI14
S'pachyderm'
p15
sI15
S'religious'
p16
sI16
S'worship'
p17
sI17
S'dirtiness'
p18
sI18
S'biome'
p19
sI19
S'spectacles'
p20
sI20
S'group'
p21
sI21
S'lineman'
p22
sI22
S'auditory'
p23
sI23
S'geological'
p24
sI24
S'newlywed'
p25
sI25
S'environment'
p26
sI26
S'instrument'
p27
sI27
S'location'
p28
sI28
S'contestant'
p29
sI29
S'achromatic'
p30
sI30
S'illumination'
p31
sI31
S'hoop'
p32
sI32
S'ball'
p33
sI33
S'division'
p34
sI34
S'digit'
p35
sI35
S'protective'
p36
sI36
S'elevation'
p37
sI37
S'food'
p38
sI38
S'material'
p39
sI39
S'leisure'
p40
sI40
S'chromatic'
p41
sI41
S'barrier'
p42
sI42
S'framework'
p43
sI43
S'game'
p44
sI44
S'facial'
p45
sI45
S'compound'
p46
sI46
S'precipitation'
p47
sI47
S'furniture'
p48
sI48
S'wagon'
p49
sI49
S'cognitive'
p50
sI50
S'organ'
p51
sI51
S'covering'
p52
sI52
S'transmission'
p53
sI53
S'undertaking'
p54
sI54
S'hotel'
p55
sI55
S'nutriment'
p56
sI56
S'motorboat'
p57
sI57
S'gun'
p58
sI58
S'activity'
p59
sI59
S'output'
p60
sI60
S'force'
p61
sI61
S'computer'
p62
sI62
S'meal'
p63
sI63
S'Select'
p64
sI64
S'instrumentality'
p65
sI65
S'scenery'
p66
sI66
S'carnivore'
p67
sI67
S'square'
p68
sI68
S'art'
p69
sI69
S'portable'
p70
sI70
S'verbal'
p71
sI71
S'fixture'
p72
sI72
S'float'
p73
sI73
S'house'
p74
sI74
S'creation'
p75
sI75
S'vine'
p76
sI76
S'product'
p77
sI77
S'canine'
p78
sI78
S'seat'
p79
sI79
S'hair'
p80
sI80
S'limb'
p81
sI81
S'street'
p82
sI82
S'wetland'
p83
sI83
S'Choose'
p84
sI84
S'Which'
p85
sI85
S'cattle'
p86
sI86
S'writing'
p87
sI87
S'sport'
p88
sI88
S'even-toed'
p89
sI89
S'percussion'
p90
sI90
S'transport'
p91
sI91
S'bass'
p92
sI92
S'army'
p93
sI93
S'shown'
p94
sI94
S'container'
p95
sI95
S'ungulate'
p96
sI96
S'apparatus'
p97
sI97
S'substance'
p98
sI98
S'stringed'
p99
sI99
S'propulsion'
p100
sI100
S'materials'
p101
sI101
S'farm'
p102
sI102
S'piece'
p103
sI103
S'boat'
p104
sI104
S'basic'
p105
sI105
S'occupational'
p106
sI106
S'public'
p107
sI107
S'?'
p108
sI108
S'body'
p109
sI109
S'completion'
p110
sI110
S'hose'
p111
sI111
S'creating'
p112
sI112
S'thoroughfare'
p113
sI113
S'actinic'
p114
sI114
S'commercial'
p115
sI115
S'water'
p116
sI116
S'articulator'
p117
sI117
S'formation'
p118
sI118
S'represented'
p119
sI119
S'path'
p120
sI120
S'article'
p121
sI121
S'ellipse'
p122
sI122
S'by'
p123
sI123
S'stage'
p124
sI124
S'goods'
p125
sI125
S'yard'
p126
sI126
S'equine'
p127
sI127
S'gramineous'
p128
sI128
S'of'
p129
sI129
S'craft'
p130
sI130
S"woman's"
p131
sI131
S'motion'
p132
sI132
S'cricketer'
p133
sI133
S'upper'
p134
sI134
S'period'
p135
sI135
S'workplace'
p136
sI136
S'pictorial'
p137
sI137
S'act'
p138
sI138
S'locomotion'
p139
sI139
S'climb'
p140
sI140
S'expression'
p141
sI141
S'block'
p142
sI142
S'and'
p143
sI143
S'painting'
p144
sI144
S'gymnastic'
p145
sI145
S'facility'
p146
sI146
S'color'
p147
sI147
S'communication'
p148
sI148
S'image'
p149
sI149
S'skilled'
p150
sI150
S'municipality'
p151
sI151
S'juvenile'
p152
sI152
S'walk'
p153
sI153
S'psychological'
p154
sI154
S'device'
p155
sI155
S'wit'
p156
sI156
S'furnishing'
p157
sI157
S'motor'
p158
sI158
S'consideration'
p159
sI159
S'vessel'
p160
sI160
S'traveler'
p161
sI161
S'custom'
p162
sI162
S'quality'
p163
sI163
S'causal'
p164
sI164
S'unit'
p165
sI165
S'city'
p166
sI166
S'ridge'
p167
sI167
S'district'
p168
sI168
S'area'
p169
sI169
S'festival'
p170
sI170
S'vertebrate'
p171
sI171
S'system'
p172
sI172
S'feat'
p173
sI173
S'plastic'
p174
sI174
S'gambling'
p175
sI175
S'linear'
p176
sI176
S'plain'
p177
sI177
S'way'
p178
sI178
S'vehicle'
p179
sI179
S'canopy'
p180
sI180
S'type'
p181
sI181
S'attire'
p182
sI182
S'board'
p183
sI183
S'life'
p184
sI184
S'horseman'
p185
sI185
S'season'
p186
sI186
S'musician'
p187
sI187
S'worker'
p188
sI188
S'artifact'
p189
sI189
S'cloth'
p190
sI190
S'visual'
p191
sI191
S'dramatic'
p192
sI192
S'adult'
p193
sI193
S'child'
p194
sI194
S'disfavor'
p195
sI195
S'masonry'
p196
sI196
S'sign'
p197
sI197
S'wheeled'
p198
sI198
S'present'
p199
sI199
S'woman'
p200
sI200
S'graphic'
p201
sI201
S'atmospheric'
p202
sI202
S'room'
p203
sI203
S'solid'
p204
sI204
S'science'
p205
sI205
S'appearance'
p206
sI206
S'conveyance'
p207
sI207
S'outbuilding'
p208
sI208
S'property'
p209
sI209
S'sculpture'
p210
sI210
S'tractor'
p211
sI211
S'mobilization'
p212
sI212
S'skating'
p213
sI213
S'gathering'
p214
sI214
S'performer'
p215
sI215
S'buying'
p216
sI216
S'stream'
p217
sI217
S'process'
p218
sI218
S'soil'
p219
sI219
S'is'
p220
sI220
S'doctor'
p221
sI221
S'agent'
p222
sI222
S'raw'
p223
sI223
S'rise'
p224
sI224
S'contest'
p225
sI225
S'in'
p226
sI226
S'bedroom'
p227
sI227
S'car'
p228
sI228
S'education'
p229
sI229
S'clothing'
p230
sI230
S'trouser'
p231
sI231
S'physical'
p232
sI232
S'ceremony'
p233
sI233
S'binary'
p234
sI234
S'partition'
p235
sI235
S'court'
p236
sI236
S'dancing'
p237
sI237
S'objection'
p238
sI238
S'travel'
p239
sI239
S'radiation'
p240
sI240
S'feature'
p241
sI241
S'contact'
p242
sI242
S'machine'
p243
sI243
S'field'
p244
sI244
S'complex'
p245
sI245
S'speech'
p246
sI246
S'vacation'
p247
sI247
S'animal'
p248
sI248
S'place'
p249
sI249
S'oscine'
p250
sI250
S'composition'
p251
sI251
S'vegetation'
p252
sI252
S'organization'
p253
sI253
S'criminal'
p254
sI254
S'plant'
p255
sI255
S'chemoreceptor'
p256
sI256
S'track'
p257
sI257
S'enterprise'
p258
sI258
S'spot'
p259
sI259
S'movable'
p260
sI260
S'collection'
p261
sI261
S'diversion'
p262
sI262
S'paving'
p263
sI263
S'tract'
p264
sI264
S'broadcasting'
p265
sI265
S'participant'
p266
sI266
S'horizontal'
p267
sI267
S'brome'
p268
sI268
S'promotion'
p269
sI269
S'structure'
p270
sI270
S'building'
p271
sI271
S'land'
p272
sI272
S'natural'
p273
sI273
S'happening'
p274
sI274
S'glass'
p275
sI275
S'performance'
p276
sI276
S'organism'
p277
sI277
S'procurator'
p278
sI278
S'person'
p279
sI279
S'optical'
p280
sI280
S'road'
p281
sI281
S'free-reed'
p282
sI282
S'time'
p283
sI283
S'plumbing'
p284
sI284
S'representation'
p285
sI285
S'the'
p286
sI286
S'consumer'
p287
sI287
S'drawing'
p288
sI288
S'surface'
p289
s.