(dp0
S'science'
p1
I204
sS'affair'
p2
I0
sS'What'
p3
I1
sS'outdoor'
p4
I2
sS'gully'
p5
I3
sS'phenomenon'
p6
I4
sS'show'
p7
I5
sS'artwork'
p8
I7
sS'atmosphere'
p9
I8
sS'course'
p10
I9
sS'pachyderm'
p11
I14
sS'keyboard'
p12
I11
sS'dish'
p13
I12
sS'woody'
p14
I13
sS'religious'
p15
I15
sS'worship'
p16
I16
sS'optical'
p17
I279
sS'dirtiness'
p18
I17
sS'biome'
p19
I18
sS'spectacles'
p20
I19
sS'group'
p21
I20
sS'lineman'
p22
I21
sS'auditory'
p23
I22
sS'dramatic'
p24
I191
sS'facility'
p25
I145
sS'geological'
p26
I23
sS'writing'
p27
I86
sS'environment'
p28
I25
sS'instrument'
p29
I26
sS'complex'
p30
I244
sS'location'
p31
I27
sS'broadcasting'
p32
I264
sS'contestant'
p33
I28
sS'consideration'
p34
I158
sS'achromatic'
p35
I29
sS'image'
p36
I148
sS'division'
p37
I33
sS'digit'
p38
I34
sS'protective'
p39
I35
sS'elevation'
p40
I36
sS'food'
p41
I37
sS'material'
p42
I38
sS'leisure'
p43
I39
sS'chromatic'
p44
I40
sS'framework'
p45
I42
sS'game'
p46
I43
sS'facial'
p47
I44
sS'compound'
p48
I45
sS'traveler'
p49
I160
sS'precipitation'
p50
I46
sS'furniture'
p51
I47
sS'wagon'
p52
I48
sS'oscine'
p53
I249
sS'cognitive'
p54
I49
sS'organ'
p55
I50
sS'covering'
p56
I51
sS'transmission'
p57
I52
sS'undertaking'
p58
I53
sS'hotel'
p59
I54
sS'nutriment'
p60
I55
sS'motorboat'
p61
I56
sS'gun'
p62
I57
sS'representation'
p63
I284
sS'activity'
p64
I58
sS'output'
p65
I59
sS'skilled'
p66
I149
sS'meal'
p67
I62
sS'Select'
p68
I63
sS'instrumentality'
p69
I64
sS'body'
p70
I108
sS'carnivore'
p71
I66
sS'square'
p72
I67
sS'art'
p73
I68
sS'portable'
p74
I69
sS'verbal'
p75
I70
sS'house'
p76
I73
sS'creation'
p77
I74
sS'fixture'
p78
I71
sS'plant'
p79
I254
sS'canine'
p80
I77
sS'seat'
p81
I78
sS'hair'
p82
I79
sS'vessel'
p83
I159
sS'street'
p84
I81
sS'wetland'
p85
I82
sS'Choose'
p86
I83
sS'Which'
p87
I84
sS'cattle'
p88
I85
sS'musician'
p89
I186
sS'sport'
p90
I87
sS'even-toed'
p91
I88
sS'transport'
p92
I90
sS'creating'
p93
I111
sS'shown'
p94
I93
sS'container'
p95
I94
sS'ungulate'
p96
I95
sS'apparatus'
p97
I96
sS'procurator'
p98
I277
sS'stringed'
p99
I98
sS'propulsion'
p100
I99
sS'causal'
p101
I163
sS'track'
p102
I256
sS'conveyance'
p103
I206
sS'vehicle'
p104
I178
sS'unit'
p105
I164
sS'attire'
p106
I181
sS'occupational'
p107
I105
sS'public'
p108
I106
sS'?'
p109
I107
sS'scenery'
p110
I65
sS'completion'
p111
I109
sS'hose'
p112
I110
sS'bass'
p113
I91
sS'barrier'
p114
I41
sS'actinic'
p115
I113
sS'commercial'
p116
I114
sS'water'
p117
I115
sS'articulator'
p118
I116
sS'formation'
p119
I117
sS'represented'
p120
I118
sS'path'
p121
I119
sS'by'
p122
I122
sS'stage'
p123
I123
sS'substance'
p124
I97
sS'yard'
p125
I125
sS'equine'
p126
I126
sS'gramineous'
p127
I127
sS'of'
p128
I128
sS'craft'
p129
I129
sS"woman's"
p130
I130
sS'diversion'
p131
I261
sS'dancing'
p132
I236
sS'motion'
p133
I131
sS'cricketer'
p134
I132
sS'place'
p135
I248
sS'workplace'
p136
I135
sS'pictorial'
p137
I136
sS'act'
p138
I137
sS'promotion'
p139
I268
sS'locomotion'
p140
I138
sS'climb'
p141
I139
sS'expression'
p142
I140
sS'block'
p143
I141
sS'skating'
p144
I212
sS'gymnastic'
p145
I144
sS'upper'
p146
I133
sS'color'
p147
I146
sS'communication'
p148
I147
sS'hoop'
p149
I31
sS'float'
p150
I72
sS'municipality'
p151
I150
sS'period'
p152
I134
sS'walk'
p153
I152
sS'psychological'
p154
I153
sS'wit'
p155
I155
sS'furnishing'
p156
I156
sS'motor'
p157
I157
sS'article'
p158
I120
sS'limb'
p159
I80
sS'illumination'
p160
I30
sS'chemoreceptor'
p161
I255
sS'plastic'
p162
I173
sS'quality'
p163
I162
sS'ellipse'
p164
I121
sS'boat'
p165
I103
sS'city'
p166
I165
sS'from'
p167
I6
sS'tractor'
p168
I210
sS'district'
p169
I167
sS'army'
p170
I92
sS'festival'
p171
I169
sS'vertebrate'
p172
I170
sS'system'
p173
I171
sS'feat'
p174
I172
sS'custom'
p175
I161
sS'thoroughfare'
p176
I112
sS'percussion'
p177
I89
sS'linear'
p178
I175
sS'way'
p179
I177
sS'basic'
p180
I104
sS'type'
p181
I180
sS'board'
p182
I182
sS'life'
p183
I183
sS'horseman'
p184
I184
sS'vine'
p185
I75
sS'angiosperm'
p186
I10
sS'worker'
p187
I187
sS'artifact'
p188
I188
sS'cloth'
p189
I189
sS'visual'
p190
I190
sS'goods'
p191
I124
sS'adult'
p192
I192
sS'child'
p193
I193
sS'disfavor'
p194
I194
sS'natural'
p195
I272
sS'masonry'
p196
I195
sS'sign'
p197
I196
sS'newlywed'
p198
I24
sS'present'
p199
I198
sS'graphic'
p200
I200
sS'atmospheric'
p201
I201
sS'room'
p202
I202
sS'solid'
p203
I203
sS'plain'
p204
I176
sS'ridge'
p205
I166
sS'appearance'
p206
I205
sS'computer'
p207
I61
sS'outbuilding'
p208
I207
sS'piece'
p209
I102
sS'sculpture'
p210
I209
sS'juvenile'
p211
I151
sS'mobilization'
p212
I211
sS'and'
p213
I142
sS'force'
p214
I60
sS'performer'
p215
I214
sS'buying'
p216
I215
sS'stream'
p217
I216
sS'process'
p218
I217
sS'soil'
p219
I218
sS'is'
p220
I219
sS'agent'
p221
I221
sS'raw'
p222
I222
sS'woman'
p223
I199
sS'wheeled'
p224
I197
sS'in'
p225
I225
sS'bedroom'
p226
I226
sS'property'
p227
I208
sS'clothing'
p228
I229
sS'gathering'
p229
I213
sS'car'
p230
I227
sS'ceremony'
p231
I232
sS'binary'
p232
I233
sS'education'
p233
I228
sS'court'
p234
I235
sS'doctor'
p235
I220
sS'objection'
p236
I237
sS'travel'
p237
I238
sS'radiation'
p238
I239
sS'feature'
p239
I240
sS'machine'
p240
I242
sS'field'
p241
I243
sS'consumer'
p242
I286
sS'contact'
p243
I241
sS'speech'
p244
I245
sS'vacation'
p245
I246
sS'animal'
p246
I247
sS'season'
p247
I185
sS'gambling'
p248
I174
sS'physical'
p249
I231
sS'composition'
p250
I250
sS'vegetation'
p251
I251
sS'area'
p252
I168
sS'product'
p253
I76
sS'ball'
p254
I32
sS'farm'
p255
I101
sS'time'
p256
I282
sS'spot'
p257
I258
sS'movable'
p258
I259
sS'collection'
p259
I260
sS'rise'
p260
I223
sS'paving'
p261
I262
sS'tract'
p262
I263
sS'device'
p263
I154
sS'participant'
p264
I265
sS'horizontal'
p265
I266
sS'brome'
p266
I267
sS'canopy'
p267
I179
sS'structure'
p268
I269
sS'building'
p269
I270
sS'land'
p270
I271
sS'partition'
p271
I234
sS'happening'
p272
I273
sS'glass'
p273
I274
sS'performance'
p274
I275
sS'organism'
p275
I276
sS'contest'
p276
I224
sS'person'
p277
I278
sS'criminal'
p278
I253
sS'materials'
p279
I100
sS'road'
p280
I280
sS'free-reed'
p281
I281
sS'enterprise'
p282
I257
sS'plumbing'
p283
I283
sS'organization'
p284
I252
sS'the'
p285
I285
sS'painting'
p286
I143
sS'drawing'
p287
I287
sS'surface'
p288
I288
sS'trouser'
p289
I230
s.