(dp0
S''
p1
I0
sS'shop'
p2
I210
sS'pachyderm'
p3
I2
sS'skin'
p4
I3
sS'dish'
p5
I4
sS'woody'
p6
I5
sS'religious'
p7
I6
sS'hunting'
p8
I7
sS'environment'
p9
I8
sS'division'
p10
I9
sS'digit'
p11
I10
sS'protective'
p12
I11
sS'rescue'
p13
I12
sS'rise'
p14
I13
sS'artwork'
p15
I14
sS'transmission'
p16
I15
sS'gun'
p17
I16
sS'science'
p18
I17
sS'small'
p19
I18
sS'mammal'
p20
I19
sS'Select'
p21
I20
sS'upper'
p22
I21
sS'carnivore'
p23
I22
sS'force'
p24
I23
sS'portable'
p25
I24
sS'collage'
p26
I25
sS'sign'
p27
I26
sS'street'
p28
I27
sS'bass'
p29
I28
sS'material'
p30
I126
sS'apparatus'
p31
I29
sS'procurator'
p32
I30
sS'section'
p33
I31
sS'cooking'
p34
I32
sS'attire'
p35
I33
sS'public'
p36
I230
sS'body'
p37
I35
sS'commercial'
p38
I36
sS'water'
p39
I37
sS'represented'
p40
I38
sS'consideration'
p41
I265
sS'chordophone'
p42
I40
sS'substance'
p43
I41
sS'soldier'
p44
I42
sS'pictorial'
p45
I43
sS'locomotion'
p46
I44
sS'climb'
p47
I45
sS'family'
p48
I46
sS'psychological'
p49
I47
sS'wit'
p50
I48
sS'motor'
p51
I49
sS'limb'
p52
I50
sS'illumination'
p53
I51
sS'causal'
p54
I52
sS'unit'
p55
I53
sS'plot'
p56
I54
sS'from'
p57
I55
sS'figure'
p58
I275
sS'consumption'
p59
I57
sS'warship'
p60
I247
sS'music'
p61
I59
sS'vehicle'
p62
I60
sS'type'
p63
I61
sS'chemoreceptor'
p64
I62
sS'clue'
p65
I63
sS'glass'
p66
I64
sS'visual'
p67
I65
sS'adult'
p68
I66
sS'disfavor'
p69
I67
sS'equine'
p70
I155
sS'graphic'
p71
I68
sS'word'
p72
I69
sS'room'
p73
I70
sS'hour'
p74
I71
sS'painting'
p75
I418
sS'car'
p76
I72
sS'athlete'
p77
I73
sS'male'
p78
I74
sS'performer'
p79
I75
sS'estate'
p80
I76
sS'process'
p81
I77
sS'agent'
p82
I78
sS'stroke'
p83
I79
sS'woman'
p84
I80
sS'clothing'
p85
I81
sS'ceremony'
p86
I82
sS'court'
p87
I83
sS'skirt'
p88
I84
sS'travel'
p89
I85
sS'comfort'
p90
I86
sS'feature'
p91
I111
sS'machine'
p92
I88
sS'forest'
p93
I89
sS'animal'
p94
I90
sS'plant'
p95
I143
sS'farm'
p96
I92
sS'spot'
p97
I93
sS'movable'
p98
I94
sS'collection'
p99
I95
sS'ruminant'
p100
I97
sS'horizontal'
p101
I98
sS'headdress'
p102
I99
sS'man'
p103
I100
sS'organization'
p104
I101
sS'natural'
p105
I102
sS'outline'
p106
I103
sS'shore'
p107
I104
sS'broadcasting'
p108
I105
sS'road'
p109
I375
sS'deceive'
p110
I107
sS'plumbing'
p111
I108
sS'representation'
p112
I109
sS'What'
p113
I110
sS'course'
p114
I112
sS'keyboard'
p115
I113
sS'pointer'
p116
I114
sS'worship'
p117
I115
sS'dirtiness'
p118
I116
sS'group'
p119
I117
sS'auditory'
p120
I118
sS'writing'
p121
I120
sS'production'
p122
I121
sS'criminal'
p123
I122
sS'float'
p124
I381
sS'food'
p125
I124
sS'signboard'
p126
I125
sS'killer'
p127
I320
sS'chromatic'
p128
I127
sS'framework'
p129
I128
sS'compound'
p130
I129
sS'front'
p131
I130
sS'preschool'
p132
I131
sS'wagon'
p133
I132
sS'undertaking'
p134
I133
sS'concave'
p135
I134
sS'rock'
p136
I135
sS'meal'
p137
I136
sS'instrumentality'
p138
I137
sS'burial'
p139
I138
sS'square'
p140
I139
sS'garment'
p141
I140
sS'fish'
p142
I141
sS'fixture'
p143
I142
sS'product'
p144
I91
sS'marital'
p145
I144
sS'even-toed'
p146
I145
sS'container'
p147
I146
sS'stringed'
p148
I147
sS'linear'
p149
I148
sS'barrier'
p150
I149
sS'actinic'
p151
I150
sS'orthopterous'
p152
I151
sS'formation'
p153
I152
sS'footrace'
p154
I153
sS'yard'
p155
I154
sS'district'
p156
I96
sS'gramineous'
p157
I156
sS"woman's"
p158
I157
sS'motion'
p159
I158
sS'place'
p160
I159
sS'footwear'
p161
I160
sS'promotion'
p162
I161
sS'dwelling'
p163
I162
sS'hoop'
p164
I163
sS'municipality'
p165
I164
sS'traveler'
p166
I165
sS'quality'
p167
I166
sS'horseman'
p168
I167
sS'city'
p169
I168
sS'horse'
p170
I169
sS'service'
p171
I170
sS'festival'
p172
I171
sS'system'
p173
I172
sS'plastic'
p174
I173
sS'percussion'
p175
I174
sS'store'
p176
I175
sS'bowed'
p177
I176
sS'season'
p178
I177
sS'hotel'
p179
I178
sS'artifact'
p180
I179
sS'part'
p181
I180
sS'kabob'
p182
I181
sS'newlywed'
p183
I182
sS'photograph'
p184
I224
sS'iron'
p185
I184
sS'sculpture'
p186
I185
sS'tractor'
p187
I186
sS'and'
p188
I187
sS'bridge'
p189
I188
sS'gathering'
p190
I189
sS'raw'
p191
I190
sS'dancing'
p192
I191
sS'contact'
p193
I192
sS'equipment'
p194
I193
sS'paraprofessional'
p195
I194
sS'performance'
p196
I195
sS'vegetation'
p197
I196
sS'play'
p198
I197
sS'track'
p199
I198
sS'object'
p200
I199
sS'mouth'
p201
I200
sS'tract'
p202
I201
sS'device'
p203
I202
sS'partition'
p204
I203
sS'dog'
p205
I204
sS'musical'
p206
I205
sS'optical'
p207
I206
sS'aerosol'
p208
I207
sS'enterprise'
p209
I208
sS'organism'
p210
I209
sS'slope'
p211
I1
sS'affair'
p212
I211
sS'atmosphere'
p213
I212
sS'golf'
p214
I213
sS'phenomenon'
p215
I214
sS'show'
p216
I215
sS'bedroom'
p217
I216
sS'feat'
p218
I217
sS'completion'
p219
I218
sS'outbuilding'
p220
I219
sS'arthropod'
p221
I220
sS'wood'
p222
I221
sS'achromatic'
p223
I222
sS'shepherd'
p224
I223
sS'grocery'
p225
I183
sS'leisure'
p226
I225
sS'organ'
p227
I226
sS'covering'
p228
I227
sS'nutriment'
p229
I228
sS'motorboat'
p230
I229
sS'bird'
p231
I34
sS'activity'
p232
I231
sS'view'
p233
I232
sS'scenery'
p234
I233
sS'art'
p235
I234
sS'creator'
p236
I235
sS'vine'
p237
I236
sS'canine'
p238
I237
sS'seat'
p239
I238
sS'computer'
p240
I239
sS'wetland'
p241
I240
sS'cattle'
p242
I241
sS'sport'
p243
I242
sS'propulsion'
p244
I243
sS'feline'
p245
I244
sS'occupational'
p246
I245
sS'creating'
p247
I246
sS'articulator'
p248
I248
sS'hypothesis'
p249
I249
sS'conflagration'
p250
I250
sS'article'
p251
I251
sS'lineman'
p252
I332
sS'region'
p253
I253
sS'cricketer'
p254
I254
sS'workplace'
p255
I255
sS'railway'
p256
I256
sS'genus'
p257
I257
sS'expression'
p258
I258
sS'stream'
p259
I56
sS'point'
p260
I334
sS'percussionist'
p261
I260
sS'period'
p262
I261
sS'community'
p263
I262
sS'walk'
p264
I263
sS'dancer'
p265
I264
sS'path'
p266
I39
sS'vessel'
p267
I266
sS'boat'
p268
I267
sS'belt'
p269
I268
sS'conference'
p270
I269
sS'cycling'
p271
I270
sS'swimmer'
p272
I271
sS'vertebrate'
p273
I272
sS'vacation'
p274
I273
sS'basic'
p275
I274
sS'basin'
p276
I276
sS'meeting'
p277
I277
sS'location'
p278
I337
sS'life'
p279
I279
sS'fire'
p280
I280
sS'angiosperm'
p281
I281
sS'worker'
p282
I282
sS'dramatic'
p283
I119
sS'external'
p284
I284
sS'child'
p285
I285
sS'masonry'
p286
I286
sS'wheeled'
p287
I287
sS'present'
p288
I288
sS'sound'
p289
I289
sS'atmospheric'
p290
I290
sS'solid'
p291
I291
sS'plain'
p292
I292
sS'appearance'
p293
I293
sS'conveyance'
p294
I294
sS'property'
p295
I295
sS'canoe'
p296
I296
sS'soil'
p297
I297
sS'is'
p298
I298
sS'surface'
p299
I299
sS'decoration'
p300
I300
sS'in'
p301
I301
sS'waterway'
p302
I302
sS'binary'
p303
I303
sS'participant'
p304
I304
sS'descent'
p305
I305
sS'doctor'
p306
I306
sS'radiation'
p307
I307
sS'fragment'
p308
I308
sS'complex'
p309
I309
sS'speech'
p310
I310
sS'descend'
p311
I311
sS'composition'
p312
I312
sS'european'
p313
I313
sS'status'
p314
I314
sS'ball'
p315
I315
sS'diversion'
p316
I316
sS'paving'
p317
I317
sS'military'
p318
I318
sS'brome'
p319
I319
sS'canopy'
p320
I382
sS'person'
p321
I321
sS'cheer'
p322
I322
sS'materials'
p323
I323
sS'position'
p324
I324
sS'the'
p325
I325
sS'drawing'
p326
I326
sS'outdoor'
p327
I327
sS'gully'
p328
I328
sS'shape'
p329
I329
sS'biome'
p330
I330
sS'spectacles'
p331
I331
sS'cur'
p332
I252
sS'residential'
p333
I333
sS'supply'
p334
I259
sS'geological'
p335
I335
sS'instrument'
p336
I336
sS'board'
p337
I278
sS'contestant'
p338
I338
sS'elevation'
p339
I339
sS'game'
p340
I340
sS'facial'
p341
I341
sS'precipitation'
p342
I342
sS'color'
p343
I343
sS'furniture'
p344
I344
sS'cognitive'
p345
I345
sS'chordate'
p346
I346
sS'chamber'
p347
I347
sS'channel'
p348
I348
sS'popular'
p349
I349
sS'output'
p350
I350
sS'tower'
p351
I351
sS'adversity'
p352
I352
sS'old'
p353
I353
sS'verbal'
p354
I354
sS'picture'
p355
I409
sS'creation'
p356
I355
sS'dead'
p357
I356
sS'hair'
p358
I357
sS'martial'
p359
I358
sS'trouser'
p360
I410
sS'transport'
p361
I360
sS'ungulate'
p362
I361
sS'soft-finned'
p363
I362
sS'religion'
p364
I363
sS'?'
p365
I364
sS'hose'
p366
I365
sS'conveyer'
p367
I366
sS'thoroughfare'
p368
I367
sS'by'
p369
I368
sS'stage'
p370
I369
sS'goods'
p371
I370
sS'of'
p372
I371
sS'army'
p373
I58
sS'dinner'
p374
I373
sS'act'
p375
I374
sS'block'
p376
I106
sS'swimming'
p377
I376
sS'gymnastic'
p378
I377
sS'facility'
p379
I378
sS'communication'
p380
I379
sS'image'
p381
I380
sS'skilled'
p382
I123
sS'furnishing'
p383
I383
sS'ellipse'
p384
I384
sS'ridge'
p385
I385
sS'area'
p386
I386
sS'custom'
p387
I387
sS'pool'
p388
I414
sS'way'
p389
I389
sS'house'
p390
I390
sS'valley'
p391
I391
sS'beverage'
p392
I420
sS'cloth'
p393
I392
sS'line'
p394
I393
sS'buying'
p395
I394
sS'gallinaceous'
p396
I395
sS'reproductive'
p397
I396
sS'extremity'
p398
I397
sS'piece'
p399
I398
sS'skating'
p400
I399
sS'juvenile'
p401
I400
sS'education'
p402
I401
sS'physical'
p403
I402
sS'contest'
p404
I403
sS'objection'
p405
I404
sS'field'
p406
I405
sS'other'
p407
I406
sS'gambling'
p408
I407
sS'oscine'
p409
I408
sS'mobilization'
p410
I372
sS'musician'
p411
I359
sS'shelter'
p412
I411
sS'football'
p413
I412
sS'insect'
p414
I413
sS'structure'
p415
I388
sS'building'
p416
I415
sS'land'
p417
I416
sS'happening'
p418
I417
sS'consumer'
p419
I87
sS'curve'
p420
I419
sS'craft'
p421
I283
sS'free-reed'
p422
I421
sS'time'
p423
I422
s.