(dp0
S''
p1
I0
sS'affair'
p2
I1
sS'What'
p3
I2
sS'outdoor'
p4
I3
sS'gully'
p5
I4
sS'phenomenon'
p6
I5
sS'show'
p7
I6
sS'artwork'
p8
I8
sS'atmosphere'
p9
I9
sS'course'
p10
I10
sS'pachyderm'
p11
I15
sS'keyboard'
p12
I12
sS'dish'
p13
I13
sS'woody'
p14
I14
sS'religious'
p15
I16
sS'worship'
p16
I17
sS'optical'
p17
I278
sS'dirtiness'
p18
I18
sS'biome'
p19
I19
sS'spectacles'
p20
I20
sS'group'
p21
I21
sS'lineman'
p22
I22
sS'auditory'
p23
I23
sS'dramatic'
p24
I190
sS'facility'
p25
I144
sS'geological'
p26
I24
sS'writing'
p27
I86
sS'environment'
p28
I26
sS'instrument'
p29
I27
sS'complex'
p30
I243
sS'location'
p31
I28
sS'broadcasting'
p32
I263
sS'contestant'
p33
I29
sS'consideration'
p34
I157
sS'achromatic'
p35
I30
sS'image'
p36
I147
sS'division'
p37
I34
sS'digit'
p38
I35
sS'protective'
p39
I36
sS'elevation'
p40
I37
sS'food'
p41
I38
sS'material'
p42
I39
sS'leisure'
p43
I40
sS'chromatic'
p44
I41
sS'framework'
p45
I43
sS'game'
p46
I44
sS'agent'
p47
I220
sS'facial'
p48
I45
sS'compound'
p49
I46
sS'traveler'
p50
I159
sS'precipitation'
p51
I47
sS'furniture'
p52
I48
sS'wagon'
p53
I49
sS'oscine'
p54
I248
sS'cognitive'
p55
I50
sS'organ'
p56
I51
sS'covering'
p57
I52
sS'transmission'
p58
I53
sS'undertaking'
p59
I54
sS'hotel'
p60
I55
sS'nutriment'
p61
I56
sS'motorboat'
p62
I57
sS'gun'
p63
I58
sS'representation'
p64
I283
sS'activity'
p65
I59
sS'output'
p66
I60
sS'skilled'
p67
I148
sS'meal'
p68
I63
sS'Select'
p69
I64
sS'instrumentality'
p70
I65
sS'body'
p71
I107
sS'carnivore'
p72
I67
sS'square'
p73
I68
sS'art'
p74
I69
sS'portable'
p75
I70
sS'verbal'
p76
I71
sS'house'
p77
I74
sS'creation'
p78
I75
sS'fixture'
p79
I72
sS'plant'
p80
I253
sS'canine'
p81
I78
sS'seat'
p82
I79
sS'hair'
p83
I80
sS'vessel'
p84
I158
sS'street'
p85
I82
sS'wetland'
p86
I83
sS'cattle'
p87
I85
sS'musician'
p88
I185
sS'sport'
p89
I87
sS'even-toed'
p90
I88
sS'transport'
p91
I90
sS'creating'
p92
I110
sS'container'
p93
I93
sS'ungulate'
p94
I94
sS'apparatus'
p95
I95
sS'procurator'
p96
I276
sS'stringed'
p97
I97
sS'propulsion'
p98
I98
sS'causal'
p99
I162
sS'track'
p100
I255
sS'conveyance'
p101
I205
sS'vehicle'
p102
I177
sS'unit'
p103
I163
sS'attire'
p104
I180
sS'occupational'
p105
I104
sS'public'
p106
I105
sS'?'
p107
I106
sS'scenery'
p108
I66
sS'completion'
p109
I108
sS'hose'
p110
I109
sS'bass'
p111
I91
sS'barrier'
p112
I42
sS'actinic'
p113
I112
sS'commercial'
p114
I113
sS'science'
p115
I203
sS'water'
p116
I114
sS'articulator'
p117
I115
sS'formation'
p118
I116
sS'represented'
p119
I117
sS'path'
p120
I118
sS'by'
p121
I121
sS'stage'
p122
I122
sS'substance'
p123
I96
sS'yard'
p124
I124
sS'equine'
p125
I125
sS'gramineous'
p126
I126
sS'of'
p127
I127
sS'craft'
p128
I128
sS"woman's"
p129
I129
sS'diversion'
p130
I260
sS'dancing'
p131
I235
sS'motion'
p132
I130
sS'cricketer'
p133
I131
sS'place'
p134
I247
sS'workplace'
p135
I134
sS'pictorial'
p136
I135
sS'act'
p137
I136
sS'promotion'
p138
I267
sS'locomotion'
p139
I137
sS'climb'
p140
I138
sS'expression'
p141
I139
sS'block'
p142
I140
sS'skating'
p143
I211
sS'gymnastic'
p144
I143
sS'upper'
p145
I132
sS'color'
p146
I145
sS'communication'
p147
I146
sS'hoop'
p148
I32
sS'float'
p149
I73
sS'municipality'
p150
I149
sS'period'
p151
I133
sS'walk'
p152
I151
sS'psychological'
p153
I152
sS'wit'
p154
I154
sS'furnishing'
p155
I155
sS'motor'
p156
I156
sS'article'
p157
I119
sS'limb'
p158
I81
sS'illumination'
p159
I31
sS'chemoreceptor'
p160
I254
sS'plastic'
p161
I172
sS'quality'
p162
I161
sS'ellipse'
p163
I120
sS'boat'
p164
I102
sS'city'
p165
I164
sS'from'
p166
I7
sS'tractor'
p167
I209
sS'district'
p168
I166
sS'army'
p169
I92
sS'festival'
p170
I168
sS'vertebrate'
p171
I169
sS'system'
p172
I170
sS'feat'
p173
I171
sS'custom'
p174
I160
sS'thoroughfare'
p175
I111
sS'percussion'
p176
I89
sS'linear'
p177
I174
sS'way'
p178
I176
sS'basic'
p179
I103
sS'type'
p180
I179
sS'board'
p181
I181
sS'life'
p182
I182
sS'horseman'
p183
I183
sS'vine'
p184
I76
sS'angiosperm'
p185
I11
sS'worker'
p186
I186
sS'artifact'
p187
I187
sS'cloth'
p188
I188
sS'visual'
p189
I189
sS'goods'
p190
I123
sS'adult'
p191
I191
sS'child'
p192
I192
sS'disfavor'
p193
I193
sS'natural'
p194
I271
sS'masonry'
p195
I194
sS'sign'
p196
I195
sS'newlywed'
p197
I25
sS'present'
p198
I197
sS'graphic'
p199
I199
sS'atmospheric'
p200
I200
sS'room'
p201
I201
sS'solid'
p202
I202
sS'plain'
p203
I175
sS'ridge'
p204
I165
sS'appearance'
p205
I204
sS'computer'
p206
I62
sS'outbuilding'
p207
I206
sS'piece'
p208
I101
sS'sculpture'
p209
I208
sS'juvenile'
p210
I150
sS'mobilization'
p211
I210
sS'and'
p212
I141
sS'force'
p213
I61
sS'performer'
p214
I213
sS'buying'
p215
I214
sS'stream'
p216
I215
sS'process'
p217
I216
sS'soil'
p218
I217
sS'is'
p219
I218
sS'surface'
p220
I84
sS'raw'
p221
I221
sS'woman'
p222
I198
sS'wheeled'
p223
I196
sS'in'
p224
I224
sS'bedroom'
p225
I225
sS'property'
p226
I207
sS'clothing'
p227
I228
sS'gathering'
p228
I212
sS'car'
p229
I226
sS'ceremony'
p230
I231
sS'binary'
p231
I232
sS'education'
p232
I227
sS'court'
p233
I234
sS'doctor'
p234
I219
sS'objection'
p235
I236
sS'travel'
p236
I237
sS'radiation'
p237
I238
sS'feature'
p238
I239
sS'machine'
p239
I241
sS'field'
p240
I242
sS'consumer'
p241
I285
sS'contact'
p242
I240
sS'speech'
p243
I244
sS'vacation'
p244
I245
sS'animal'
p245
I246
sS'season'
p246
I184
sS'gambling'
p247
I173
sS'physical'
p248
I230
sS'composition'
p249
I249
sS'vegetation'
p250
I250
sS'area'
p251
I167
sS'product'
p252
I77
sS'ball'
p253
I33
sS'farm'
p254
I100
sS'time'
p255
I281
sS'spot'
p256
I257
sS'movable'
p257
I258
sS'collection'
p258
I259
sS'rise'
p259
I222
sS'paving'
p260
I261
sS'tract'
p261
I262
sS'device'
p262
I153
sS'participant'
p263
I264
sS'horizontal'
p264
I265
sS'brome'
p265
I266
sS'canopy'
p266
I178
sS'structure'
p267
I268
sS'building'
p268
I269
sS'land'
p269
I270
sS'partition'
p270
I233
sS'happening'
p271
I272
sS'glass'
p272
I273
sS'performance'
p273
I274
sS'organism'
p274
I275
sS'contest'
p275
I223
sS'person'
p276
I277
sS'criminal'
p277
I252
sS'materials'
p278
I99
sS'road'
p279
I279
sS'free-reed'
p280
I280
sS'enterprise'
p281
I256
sS'plumbing'
p282
I282
sS'organization'
p283
I251
sS'the'
p284
I284
sS'painting'
p285
I142
sS'drawing'
p286
I286
sS'trouser'
p287
I229
s.