(dp0
S''
p1
I0
sS'slope'
p2
I212
sS'pachyderm'
p3
I2
sS'skin'
p4
I3
sS'dish'
p5
I4
sS'woody'
p6
I5
sS'religious'
p7
I6
sS'hunting'
p8
I7
sS'environment'
p9
I8
sS'division'
p10
I9
sS'digit'
p11
I10
sS'protective'
p12
I82
sS'rescue'
p13
I12
sS'rise'
p14
I13
sS'artwork'
p15
I14
sS'transmission'
p16
I15
sS'gun'
p17
I16
sS'science'
p18
I17
sS'small'
p19
I18
sS'mammal'
p20
I19
sS'Select'
p21
I20
sS'upper'
p22
I21
sS'carnivore'
p23
I22
sS'force'
p24
I23
sS'portable'
p25
I24
sS'collage'
p26
I25
sS'sign'
p27
I26
sS'street'
p28
I27
sS'bass'
p29
I150
sS'army'
p30
I373
sS'material'
p31
I128
sS'apparatus'
p32
I29
sS'procurator'
p33
I30
sS'section'
p34
I31
sS'cooking'
p35
I32
sS'attire'
p36
I33
sS'public'
p37
I232
sS'scenery'
p38
I35
sS'commercial'
p39
I36
sS'water'
p40
I37
sS'represented'
p41
I38
sS'path'
p42
I265
sS'chordophone'
p43
I40
sS'substance'
p44
I41
sS'soldier'
p45
I42
sS'pictorial'
p46
I43
sS'locomotion'
p47
I44
sS'climb'
p48
I45
sS'family'
p49
I47
sS'psychological'
p50
I48
sS'wit'
p51
I49
sS'motor'
p52
I50
sS'limb'
p53
I51
sS'illumination'
p54
I52
sS'causal'
p55
I53
sS'unit'
p56
I54
sS'plot'
p57
I55
sS'from'
p58
I56
sS'figure'
p59
I275
sS'consumption'
p60
I58
sS'warship'
p61
I59
sS'music'
p62
I61
sS'vehicle'
p63
I62
sS'type'
p64
I63
sS'chemoreceptor'
p65
I64
sS'clue'
p66
I65
sS'glass'
p67
I66
sS'visual'
p68
I67
sS'adult'
p69
I68
sS'disfavor'
p70
I69
sS'equine'
p71
I157
sS'graphic'
p72
I70
sS'word'
p73
I71
sS'room'
p74
I72
sS'hour'
p75
I73
sS'car'
p76
I74
sS'athlete'
p77
I75
sS'male'
p78
I76
sS'performer'
p79
I77
sS'estate'
p80
I78
sS'process'
p81
I79
sS'agent'
p82
I80
sS'stroke'
p83
I81
sS'woman'
p84
I11
sS'clothing'
p85
I83
sS'ceremony'
p86
I84
sS'ruminant'
p87
I85
sS'skirt'
p88
I86
sS'travel'
p89
I87
sS'comfort'
p90
I88
sS'feature'
p91
I113
sS'machine'
p92
I90
sS'forest'
p93
I91
sS'animal'
p94
I92
sS'plant'
p95
I145
sS'farm'
p96
I94
sS'spot'
p97
I95
sS'movable'
p98
I96
sS'collection'
p99
I97
sS'court'
p100
I99
sS'horizontal'
p101
I100
sS'headdress'
p102
I101
sS'man'
p103
I102
sS'organization'
p104
I103
sS'natural'
p105
I104
sS'outline'
p106
I105
sS'shore'
p107
I106
sS'broadcasting'
p108
I107
sS'block'
p109
I376
sS'deceive'
p110
I109
sS'plumbing'
p111
I110
sS'representation'
p112
I111
sS'What'
p113
I112
sS'course'
p114
I114
sS'keyboard'
p115
I115
sS'pointer'
p116
I116
sS'worship'
p117
I117
sS'dirtiness'
p118
I118
sS'group'
p119
I119
sS'auditory'
p120
I120
sS'writing'
p121
I122
sS'production'
p122
I123
sS'criminal'
p123
I124
sS'skilled'
p124
I382
sS'food'
p125
I126
sS'signboard'
p126
I127
sS'killer'
p127
I46
sS'chromatic'
p128
I129
sS'framework'
p129
I130
sS'compound'
p130
I131
sS'front'
p131
I132
sS'preschool'
p132
I133
sS'wagon'
p133
I134
sS'undertaking'
p134
I135
sS'concave'
p135
I136
sS'rock'
p136
I137
sS'meal'
p137
I138
sS'instrumentality'
p138
I139
sS'burial'
p139
I140
sS'square'
p140
I141
sS'garment'
p141
I142
sS'fish'
p142
I143
sS'fixture'
p143
I144
sS'product'
p144
I93
sS'marital'
p145
I146
sS'even-toed'
p146
I147
sS'container'
p147
I148
sS'stringed'
p148
I149
sS'linear'
p149
I60
sS'barrier'
p150
I151
sS'actinic'
p151
I152
sS'orthopterous'
p152
I153
sS'formation'
p153
I154
sS'footrace'
p154
I155
sS'yard'
p155
I156
sS'district'
p156
I98
sS'gramineous'
p157
I158
sS"woman's"
p158
I159
sS'motion'
p159
I160
sS'place'
p160
I161
sS'footwear'
p161
I162
sS'promotion'
p162
I163
sS'dwelling'
p163
I164
sS'hoop'
p164
I165
sS'municipality'
p165
I166
sS'traveler'
p166
I167
sS'quality'
p167
I168
sS'horseman'
p168
I169
sS'city'
p169
I170
sS'horse'
p170
I171
sS'service'
p171
I172
sS'festival'
p172
I173
sS'system'
p173
I174
sS'plastic'
p174
I175
sS'percussion'
p175
I176
sS'store'
p176
I177
sS'bowed'
p177
I178
sS'season'
p178
I179
sS'hotel'
p179
I180
sS'artifact'
p180
I181
sS'part'
p181
I208
sS'kabob'
p182
I183
sS'newlywed'
p183
I184
sS'grocery'
p184
I226
sS'iron'
p185
I186
sS'sculpture'
p186
I187
sS'tractor'
p187
I188
sS'and'
p188
I189
sS'bridge'
p189
I190
sS'gathering'
p190
I191
sS'raw'
p191
I192
sS'dancing'
p192
I193
sS'contact'
p193
I194
sS'equipment'
p194
I195
sS'paraprofessional'
p195
I196
sS'performance'
p196
I197
sS'channel'
p197
I198
sS'play'
p198
I199
sS'track'
p199
I200
sS'object'
p200
I201
sS'mouth'
p201
I202
sS'tract'
p202
I203
sS'device'
p203
I204
sS'partition'
p204
I205
sS'dog'
p205
I206
sS'musical'
p206
I207
sS'optical'
p207
I182
sS'aerosol'
p208
I209
sS'enterprise'
p209
I210
sS'painting'
p210
I211
sS'shop'
p211
I1
sS'affair'
p212
I213
sS'atmosphere'
p213
I214
sS'golf'
p214
I215
sS'phenomenon'
p215
I216
sS'show'
p216
I217
sS'bedroom'
p217
I218
sS'feat'
p218
I219
sS'completion'
p219
I220
sS'outbuilding'
p220
I221
sS'arthropod'
p221
I222
sS'wood'
p222
I223
sS'achromatic'
p223
I224
sS'shepherd'
p224
I225
sS'photograph'
p225
I185
sS'leisure'
p226
I227
sS'organ'
p227
I228
sS'covering'
p228
I229
sS'nutriment'
p229
I230
sS'motorboat'
p230
I231
sS'bird'
p231
I34
sS'activity'
p232
I233
sS'view'
p233
I234
sS'body'
p234
I235
sS'art'
p235
I236
sS'creator'
p236
I237
sS'vine'
p237
I238
sS'canine'
p238
I239
sS'seat'
p239
I240
sS'computer'
p240
I241
sS'wetland'
p241
I242
sS'cattle'
p242
I243
sS'sport'
p243
I244
sS'propulsion'
p244
I245
sS'feline'
p245
I246
sS'occupational'
p246
I247
sS'creating'
p247
I248
sS'articulator'
p248
I249
sS'hypothesis'
p249
I250
sS'conflagration'
p250
I251
sS'article'
p251
I252
sS'lineman'
p252
I333
sS'region'
p253
I254
sS'cricketer'
p254
I28
sS'workplace'
p255
I255
sS'railway'
p256
I256
sS'genus'
p257
I257
sS'expression'
p258
I258
sS'stream'
p259
I57
sS'point'
p260
I335
sS'percussionist'
p261
I260
sS'period'
p262
I261
sS'community'
p263
I262
sS'walk'
p264
I263
sS'dancer'
p265
I264
sS'consideration'
p266
I39
sS'vessel'
p267
I266
sS'boat'
p268
I267
sS'belt'
p269
I268
sS'conference'
p270
I269
sS'cycling'
p271
I270
sS'swimmer'
p272
I296
sS'vertebrate'
p273
I272
sS'vacation'
p274
I273
sS'basic'
p275
I274
sS'basin'
p276
I276
sS'meeting'
p277
I277
sS'location'
p278
I338
sS'life'
p279
I279
sS'fire'
p280
I280
sS'angiosperm'
p281
I281
sS'worker'
p282
I282
sS'dramatic'
p283
I121
sS'external'
p284
I284
sS'child'
p285
I285
sS'masonry'
p286
I286
sS'wheeled'
p287
I287
sS'present'
p288
I288
sS'sound'
p289
I289
sS'atmospheric'
p290
I290
sS'solid'
p291
I291
sS'plain'
p292
I292
sS'appearance'
p293
I293
sS'conveyance'
p294
I294
sS'property'
p295
I295
sS'canoe'
p296
I297
sS'soil'
p297
I298
sS'is'
p298
I299
sS'surface'
p299
I300
sS'decoration'
p300
I301
sS'in'
p301
I302
sS'waterway'
p302
I303
sS'binary'
p303
I304
sS'participant'
p304
I305
sS'descent'
p305
I306
sS'doctor'
p306
I307
sS'radiation'
p307
I308
sS'fragment'
p308
I309
sS'complex'
p309
I310
sS'speech'
p310
I311
sS'descend'
p311
I312
sS'composition'
p312
I313
sS'european'
p313
I314
sS'status'
p314
I315
sS'ball'
p315
I316
sS'diversion'
p316
I317
sS'paving'
p317
I318
sS'military'
p318
I319
sS'brome'
p319
I320
sS'canopy'
p320
I321
sS'person'
p321
I322
sS'cheer'
p322
I323
sS'materials'
p323
I324
sS'position'
p324
I325
sS'the'
p325
I326
sS'drawing'
p326
I327
sS'outdoor'
p327
I328
sS'gully'
p328
I329
sS'shape'
p329
I330
sS'biome'
p330
I331
sS'spectacles'
p331
I332
sS'cur'
p332
I253
sS'residential'
p333
I334
sS'supply'
p334
I259
sS'organism'
p335
I418
sS'geological'
p336
I336
sS'instrument'
p337
I337
sS'board'
p338
I278
sS'contestant'
p339
I339
sS'elevation'
p340
I340
sS'game'
p341
I341
sS'facial'
p342
I342
sS'precipitation'
p343
I343
sS'color'
p344
I344
sS'furniture'
p345
I345
sS'cognitive'
p346
I346
sS'chordate'
p347
I347
sS'chamber'
p348
I348
sS'vegetation'
p349
I349
sS'popular'
p350
I350
sS'output'
p351
I351
sS'tower'
p352
I352
sS'adversity'
p353
I353
sS'old'
p354
I354
sS'verbal'
p355
I355
sS'creation'
p356
I356
sS'dead'
p357
I357
sS'hair'
p358
I358
sS'martial'
p359
I359
sS'musician'
p360
I410
sS'transport'
p361
I361
sS'ungulate'
p362
I362
sS'soft-finned'
p363
I363
sS'religion'
p364
I364
sS'?'
p365
I365
sS'hose'
p366
I366
sS'conveyer'
p367
I367
sS'thoroughfare'
p368
I368
sS'by'
p369
I369
sS'stage'
p370
I370
sS'goods'
p371
I371
sS'of'
p372
I372
sS'mobilization'
p373
I271
sS'dinner'
p374
I374
sS'act'
p375
I375
sS'road'
p376
I108
sS'swimming'
p377
I377
sS'gymnastic'
p378
I378
sS'facility'
p379
I379
sS'communication'
p380
I380
sS'image'
p381
I381
sS'float'
p382
I125
sS'furnishing'
p383
I383
sS'ellipse'
p384
I384
sS'ridge'
p385
I385
sS'area'
p386
I386
sS'custom'
p387
I387
sS'pool'
p388
I414
sS'way'
p389
I389
sS'house'
p390
I390
sS'valley'
p391
I391
sS'beverage'
p392
I420
sS'cloth'
p393
I392
sS'line'
p394
I393
sS'buying'
p395
I394
sS'gallinaceous'
p396
I395
sS'reproductive'
p397
I396
sS'extremity'
p398
I397
sS'piece'
p399
I398
sS'skating'
p400
I399
sS'juvenile'
p401
I400
sS'education'
p402
I401
sS'physical'
p403
I402
sS'contest'
p404
I403
sS'objection'
p405
I404
sS'field'
p406
I405
sS'other'
p407
I406
sS'gambling'
p408
I407
sS'oscine'
p409
I408
sS'picture'
p410
I409
sS'trouser'
p411
I360
sS'shelter'
p412
I411
sS'football'
p413
I412
sS'insect'
p414
I413
sS'structure'
p415
I388
sS'building'
p416
I415
sS'land'
p417
I416
sS'happening'
p418
I417
sS'consumer'
p419
I89
sS'curve'
p420
I419
sS'craft'
p421
I283
sS'free-reed'
p422
I421
sS'time'
p423
I422
s.