(dp0
S'What'
p1
I0
sS'people'
p2
I1
sS'instruments'
p3
I2
sS'is'
p4
I3
sS'scene'
p5
I4
sS'How'
p6
I5
sS'are'
p7
I6
sS'Which'
p8
I7
sS'in'
p9
I8
sS'type'
p10
I9
sS'image'
p11
I10
sS'?'
p12
I11
sS'wearing'
p13
I12
sS'bodyparts'
p14
I13
sS'present'
p15
I14
sS'animals'
p16
I15
sS'of'
p17
I16
sS'person'
p18
I17
sS'vehicle(s)'
p19
I18
sS'many'
p20
I19
sS'following'
p21
I20
sS'the'
p22
I21
sS'Select'
p23
I22
s.